ARM GAS  /tmp/ccQwasSs.s 			page 1


   1              		.cpu cortex-m4
   2              		.eabi_attribute 27, 1
   3              		.eabi_attribute 28, 1
   4              		.eabi_attribute 20, 1
   5              		.eabi_attribute 21, 1
   6              		.eabi_attribute 23, 3
   7              		.eabi_attribute 24, 1
   8              		.eabi_attribute 25, 1
   9              		.eabi_attribute 26, 1
  10              		.eabi_attribute 30, 1
  11              		.eabi_attribute 34, 1
  12              		.eabi_attribute 18, 4
  13              		.file	"lwgps.c"
  14              		.text
  15              	.Ltext0:
  16              		.cfi_sections	.debug_frame
  17              		.section	.text.prv_parse_number,"ax",%progbits
  18              		.align	1
  19              		.syntax unified
  20              		.thumb
  21              		.thumb_func
  22              		.fpu fpv4-sp-d16
  24              	prv_parse_number:
  25              	.LFB0:
  26              		.file 1 "Drivers/lwgps/src/lwgps/lwgps.c"
   1:Drivers/lwgps/src/lwgps/lwgps.c **** /**
   2:Drivers/lwgps/src/lwgps/lwgps.c ****  * \file            lwgps.c
   3:Drivers/lwgps/src/lwgps/lwgps.c ****  * \brief           GPS main file
   4:Drivers/lwgps/src/lwgps/lwgps.c ****  */
   5:Drivers/lwgps/src/lwgps/lwgps.c **** 
   6:Drivers/lwgps/src/lwgps/lwgps.c **** /*
   7:Drivers/lwgps/src/lwgps/lwgps.c ****  * Copyright (c) 2020 Tilen MAJERLE
   8:Drivers/lwgps/src/lwgps/lwgps.c ****  *
   9:Drivers/lwgps/src/lwgps/lwgps.c ****  * Permission is hereby granted, free of charge, to any person
  10:Drivers/lwgps/src/lwgps/lwgps.c ****  * obtaining a copy of this software and associated documentation
  11:Drivers/lwgps/src/lwgps/lwgps.c ****  * files (the "Software"), to deal in the Software without restriction,
  12:Drivers/lwgps/src/lwgps/lwgps.c ****  * including without limitation the rights to use, copy, modify, merge,
  13:Drivers/lwgps/src/lwgps/lwgps.c ****  * publish, distribute, sublicense, and/or sell copies of the Software,
  14:Drivers/lwgps/src/lwgps/lwgps.c ****  * and to permit persons to whom the Software is furnished to do so,
  15:Drivers/lwgps/src/lwgps/lwgps.c ****  * subject to the following conditions:
  16:Drivers/lwgps/src/lwgps/lwgps.c ****  *
  17:Drivers/lwgps/src/lwgps/lwgps.c ****  * The above copyright notice and this permission notice shall be
  18:Drivers/lwgps/src/lwgps/lwgps.c ****  * included in all copies or substantial portions of the Software.
  19:Drivers/lwgps/src/lwgps/lwgps.c ****  *
  20:Drivers/lwgps/src/lwgps/lwgps.c ****  * THE SOFTWARE IS PROVIDED "AS IS", WITHOUT WARRANTY OF ANY KIND,
  21:Drivers/lwgps/src/lwgps/lwgps.c ****  * EXPRESS OR IMPLIED, INCLUDING BUT NOT LIMITED TO THE WARRANTIES
  22:Drivers/lwgps/src/lwgps/lwgps.c ****  * OF MERCHANTABILITY, FITNESS FOR A PARTICULAR PURPOSE
  23:Drivers/lwgps/src/lwgps/lwgps.c ****  * AND NONINFRINGEMENT. IN NO EVENT SHALL THE AUTHORS OR COPYRIGHT
  24:Drivers/lwgps/src/lwgps/lwgps.c ****  * HOLDERS BE LIABLE FOR ANY CLAIM, DAMAGES OR OTHER LIABILITY,
  25:Drivers/lwgps/src/lwgps/lwgps.c ****  * WHETHER IN AN ACTION OF CONTRACT, TORT OR OTHERWISE, ARISING
  26:Drivers/lwgps/src/lwgps/lwgps.c ****  * FROM, OUT OF OR IN CONNECTION WITH THE SOFTWARE OR THE USE OR
  27:Drivers/lwgps/src/lwgps/lwgps.c ****  * OTHER DEALINGS IN THE SOFTWARE.
  28:Drivers/lwgps/src/lwgps/lwgps.c ****  *
  29:Drivers/lwgps/src/lwgps/lwgps.c ****  * This file is part of LwGPS - Lightweight GPS NMEA parser library.
  30:Drivers/lwgps/src/lwgps/lwgps.c ****  *
  31:Drivers/lwgps/src/lwgps/lwgps.c ****  * Author:          Tilen MAJERLE <tilen@majerle.eu>
  32:Drivers/lwgps/src/lwgps/lwgps.c ****  * Version:         v2.1.0
ARM GAS  /tmp/ccQwasSs.s 			page 2


  33:Drivers/lwgps/src/lwgps/lwgps.c ****  */
  34:Drivers/lwgps/src/lwgps/lwgps.c **** #include <math.h>
  35:Drivers/lwgps/src/lwgps/lwgps.c **** #include <string.h>
  36:Drivers/lwgps/src/lwgps/lwgps.c **** #include <stdlib.h>
  37:Drivers/lwgps/src/lwgps/lwgps.c **** #include "lwgps/lwgps.h"
  38:Drivers/lwgps/src/lwgps/lwgps.c **** 
  39:Drivers/lwgps/src/lwgps/lwgps.c **** #define FLT(x)              ((lwgps_float_t)(x))
  40:Drivers/lwgps/src/lwgps/lwgps.c **** #define D2R(x)              FLT(FLT(x) * FLT(0.01745329251994)) /*!< Degrees to radians */
  41:Drivers/lwgps/src/lwgps/lwgps.c **** #define R2D(x)              FLT(FLT(x) * FLT(57.29577951308232))/*!< Radians to degrees */
  42:Drivers/lwgps/src/lwgps/lwgps.c **** #define EARTH_RADIUS        FLT(6371.0)         /*!< Earth radius in units of kilometers */
  43:Drivers/lwgps/src/lwgps/lwgps.c **** 
  44:Drivers/lwgps/src/lwgps/lwgps.c **** #define CRC_ADD(_gh, ch)    (_gh)->p.crc_calc ^= (uint8_t)(ch)
  45:Drivers/lwgps/src/lwgps/lwgps.c **** #define TERM_ADD(_gh, ch)   do {    \
  46:Drivers/lwgps/src/lwgps/lwgps.c ****         if ((_gh)->p.term_pos < (sizeof((_gh)->p.term_str) - 1)) {  \
  47:Drivers/lwgps/src/lwgps/lwgps.c ****             (_gh)->p.term_str[(_gh)->p.term_pos] = (ch);\
  48:Drivers/lwgps/src/lwgps/lwgps.c ****             (_gh)->p.term_str[++(_gh)->p.term_pos] = 0; \
  49:Drivers/lwgps/src/lwgps/lwgps.c ****         }                               \
  50:Drivers/lwgps/src/lwgps/lwgps.c ****     } while (0)
  51:Drivers/lwgps/src/lwgps/lwgps.c **** #define TERM_NEXT(_gh)      do { (_gh)->p.term_str[((_gh)->p.term_pos = 0)] = 0; ++(_gh)->p.term_nu
  52:Drivers/lwgps/src/lwgps/lwgps.c **** 
  53:Drivers/lwgps/src/lwgps/lwgps.c **** #define CIN(x)              ((x) >= '0' && (x) <= '9')
  54:Drivers/lwgps/src/lwgps/lwgps.c **** #define CIHN(x)             (((x) >= '0' && (x) <= '9') || ((x) >= 'a' && (x) <= 'f') || ((x) >= 'A
  55:Drivers/lwgps/src/lwgps/lwgps.c **** #define CTN(x)              ((x) - '0')
  56:Drivers/lwgps/src/lwgps/lwgps.c **** #define CHTN(x)             (((x) >= '0' && (x) <= '9') ? ((x) - '0') : (((x) >= 'a' && (x) <= 'z')
  57:Drivers/lwgps/src/lwgps/lwgps.c **** 
  58:Drivers/lwgps/src/lwgps/lwgps.c **** /**
  59:Drivers/lwgps/src/lwgps/lwgps.c ****  * \brief           Parse number as integer
  60:Drivers/lwgps/src/lwgps/lwgps.c ****  * \param[in]       gh: GPS handle
  61:Drivers/lwgps/src/lwgps/lwgps.c ****  * \param[in]       t: Text to parse. Set to `NULL` to parse current GPS term
  62:Drivers/lwgps/src/lwgps/lwgps.c ****  * \return          Parsed integer
  63:Drivers/lwgps/src/lwgps/lwgps.c ****  */
  64:Drivers/lwgps/src/lwgps/lwgps.c **** static int32_t
  65:Drivers/lwgps/src/lwgps/lwgps.c **** prv_parse_number(lwgps_t* gh, const char* t) {
  27              		.loc 1 65 0
  28              		.cfi_startproc
  29              		@ args = 0, pretend = 0, frame = 0
  30              		@ frame_needed = 0, uses_anonymous_args = 0
  31              		@ link register save eliminated.
  32              	.LVL0:
  33 0000 10B4     		push	{r4}
  34              	.LCFI0:
  35              		.cfi_def_cfa_offset 4
  36              		.cfi_offset 4, -4
  37              	.LVL1:
  66:Drivers/lwgps/src/lwgps/lwgps.c ****     int32_t res = 0;
  67:Drivers/lwgps/src/lwgps/lwgps.c ****     uint8_t minus;
  68:Drivers/lwgps/src/lwgps/lwgps.c **** 
  69:Drivers/lwgps/src/lwgps/lwgps.c ****     if (t == NULL) {
  38              		.loc 1 69 0
  39 0002 0B46     		mov	r3, r1
  40 0004 19B9     		cbnz	r1, .L3
  70:Drivers/lwgps/src/lwgps/lwgps.c ****         t = gh->p.term_str;
  41              		.loc 1 70 0
  42 0006 00F17103 		add	r3, r0, #113
  43              	.LVL2:
  44 000a 00E0     		b	.L3
  45              	.L5:
ARM GAS  /tmp/ccQwasSs.s 			page 3


  71:Drivers/lwgps/src/lwgps/lwgps.c ****     }
  72:Drivers/lwgps/src/lwgps/lwgps.c ****     for (; t != NULL && *t == ' '; ++t) {}      /* Strip leading spaces */
  46              		.loc 1 72 0 discriminator 3
  47 000c 0133     		adds	r3, r3, #1
  48              	.LVL3:
  49              	.L3:
  50              		.loc 1 72 0 is_stmt 0 discriminator 1
  51 000e 13B1     		cbz	r3, .L4
  52              		.loc 1 72 0 discriminator 2
  53 0010 1A78     		ldrb	r2, [r3]	@ zero_extendqisi2
  54 0012 202A     		cmp	r2, #32
  55 0014 FAD0     		beq	.L5
  56              	.L4:
  73:Drivers/lwgps/src/lwgps/lwgps.c **** 
  74:Drivers/lwgps/src/lwgps/lwgps.c ****     minus = (*t == '-' ? (++t, 1) : 0);
  57              		.loc 1 74 0 is_stmt 1
  58 0016 1A78     		ldrb	r2, [r3]	@ zero_extendqisi2
  59 0018 2D2A     		cmp	r2, #45
  60 001a 02D0     		beq	.L13
  61 001c 0024     		movs	r4, #0
  62              	.L6:
  63              	.LVL4:
  66:Drivers/lwgps/src/lwgps/lwgps.c ****     uint8_t minus;
  64              		.loc 1 66 0 discriminator 4
  65 001e 0020     		movs	r0, #0
  66              	.LVL5:
  75:Drivers/lwgps/src/lwgps/lwgps.c ****     for (; t != NULL && CIN(*t); ++t) {
  67              		.loc 1 75 0 discriminator 4
  68 0020 09E0     		b	.L7
  69              	.LVL6:
  70              	.L13:
  74:Drivers/lwgps/src/lwgps/lwgps.c ****     for (; t != NULL && CIN(*t); ++t) {
  71              		.loc 1 74 0 discriminator 1
  72 0022 0133     		adds	r3, r3, #1
  73              	.LVL7:
  74 0024 0124     		movs	r4, #1
  75 0026 FAE7     		b	.L6
  76              	.LVL8:
  77              	.L9:
  76:Drivers/lwgps/src/lwgps/lwgps.c ****         res = 10 * res + CTN(*t);
  78              		.loc 1 76 0 discriminator 3
  79 0028 00EB8000 		add	r0, r0, r0, lsl #2
  80              	.LVL9:
  81 002c 4100     		lsls	r1, r0, #1
  82 002e A2F13000 		sub	r0, r2, #48
  83 0032 0844     		add	r0, r0, r1
  84              	.LVL10:
  75:Drivers/lwgps/src/lwgps/lwgps.c ****     for (; t != NULL && CIN(*t); ++t) {
  85              		.loc 1 75 0 discriminator 3
  86 0034 0133     		adds	r3, r3, #1
  87              	.LVL11:
  88              	.L7:
  75:Drivers/lwgps/src/lwgps/lwgps.c ****     for (; t != NULL && CIN(*t); ++t) {
  89              		.loc 1 75 0 is_stmt 0 discriminator 1
  90 0036 2BB1     		cbz	r3, .L8
  75:Drivers/lwgps/src/lwgps/lwgps.c ****     for (; t != NULL && CIN(*t); ++t) {
  91              		.loc 1 75 0 discriminator 2
ARM GAS  /tmp/ccQwasSs.s 			page 4


  92 0038 1A78     		ldrb	r2, [r3]	@ zero_extendqisi2
  93 003a A2F13001 		sub	r1, r2, #48
  94 003e C9B2     		uxtb	r1, r1
  95 0040 0929     		cmp	r1, #9
  96 0042 F1D9     		bls	.L9
  97              	.L8:
  77:Drivers/lwgps/src/lwgps/lwgps.c ****     }
  78:Drivers/lwgps/src/lwgps/lwgps.c ****     return minus ? -res : res;
  98              		.loc 1 78 0 is_stmt 1
  99 0044 04B1     		cbz	r4, .L1
 100              		.loc 1 78 0 is_stmt 0 discriminator 1
 101 0046 4042     		negs	r0, r0
 102              	.LVL12:
 103              	.L1:
  79:Drivers/lwgps/src/lwgps/lwgps.c **** }
 104              		.loc 1 79 0 is_stmt 1
 105 0048 5DF8044B 		ldr	r4, [sp], #4
 106              	.LCFI1:
 107              		.cfi_restore 4
 108              		.cfi_def_cfa_offset 0
 109              	.LVL13:
 110 004c 7047     		bx	lr
 111              		.cfi_endproc
 112              	.LFE0:
 114              		.section	.text.prv_check_crc,"ax",%progbits
 115              		.align	1
 116              		.syntax unified
 117              		.thumb
 118              		.thumb_func
 119              		.fpu fpv4-sp-d16
 121              	prv_check_crc:
 122              	.LFB4:
  80:Drivers/lwgps/src/lwgps/lwgps.c **** 
  81:Drivers/lwgps/src/lwgps/lwgps.c **** /**
  82:Drivers/lwgps/src/lwgps/lwgps.c ****  * \brief           Parse number as double and convert it to \ref lwgps_float_t
  83:Drivers/lwgps/src/lwgps/lwgps.c ****  * \param[in]       gh: GPS handle
  84:Drivers/lwgps/src/lwgps/lwgps.c ****  * \param[in]       t: Text to parse. Set to `NULL` to parse current GPS term
  85:Drivers/lwgps/src/lwgps/lwgps.c ****  * \return          Parsed double in \ref lwgps_float_t format
  86:Drivers/lwgps/src/lwgps/lwgps.c ****  */
  87:Drivers/lwgps/src/lwgps/lwgps.c **** static lwgps_float_t
  88:Drivers/lwgps/src/lwgps/lwgps.c **** prv_parse_float_number(lwgps_t* gh, const char* t) {
  89:Drivers/lwgps/src/lwgps/lwgps.c ****     lwgps_float_t res;
  90:Drivers/lwgps/src/lwgps/lwgps.c **** 
  91:Drivers/lwgps/src/lwgps/lwgps.c ****     if (t == NULL) {
  92:Drivers/lwgps/src/lwgps/lwgps.c ****         t = gh->p.term_str;
  93:Drivers/lwgps/src/lwgps/lwgps.c ****     }
  94:Drivers/lwgps/src/lwgps/lwgps.c ****     for (; t != NULL && *t == ' '; ++t) {}      /* Strip leading spaces */
  95:Drivers/lwgps/src/lwgps/lwgps.c **** 
  96:Drivers/lwgps/src/lwgps/lwgps.c **** #if LWGPS_CFG_DOUBLE
  97:Drivers/lwgps/src/lwgps/lwgps.c ****     res = strtod(t, NULL);                      /* Parse string to double */
  98:Drivers/lwgps/src/lwgps/lwgps.c **** #else /* LWGPS_CFG_DOUBLE */
  99:Drivers/lwgps/src/lwgps/lwgps.c ****     res = strtof(t, NULL);                      /* Parse string to float */
 100:Drivers/lwgps/src/lwgps/lwgps.c **** #endif /* !LWGPS_CFG_DOUBLE */
 101:Drivers/lwgps/src/lwgps/lwgps.c **** 
 102:Drivers/lwgps/src/lwgps/lwgps.c ****     return FLT(res);                            /* Return casted value, based on float size */
 103:Drivers/lwgps/src/lwgps/lwgps.c **** }
 104:Drivers/lwgps/src/lwgps/lwgps.c **** 
ARM GAS  /tmp/ccQwasSs.s 			page 5


 105:Drivers/lwgps/src/lwgps/lwgps.c **** /**
 106:Drivers/lwgps/src/lwgps/lwgps.c ****  * \brief           Parse latitude/longitude NMEA format to double
 107:Drivers/lwgps/src/lwgps/lwgps.c ****  *
 108:Drivers/lwgps/src/lwgps/lwgps.c ****  *                  NMEA output for latitude is ddmm.sss and longitude is dddmm.sss
 109:Drivers/lwgps/src/lwgps/lwgps.c ****  * \param[in]       gh: GPS handle
 110:Drivers/lwgps/src/lwgps/lwgps.c ****  * \return          Latitude/Longitude value in degrees
 111:Drivers/lwgps/src/lwgps/lwgps.c ****  */
 112:Drivers/lwgps/src/lwgps/lwgps.c **** static lwgps_float_t
 113:Drivers/lwgps/src/lwgps/lwgps.c **** prv_parse_lat_long(lwgps_t* gh) {
 114:Drivers/lwgps/src/lwgps/lwgps.c ****     lwgps_float_t ll, deg, min;
 115:Drivers/lwgps/src/lwgps/lwgps.c **** 
 116:Drivers/lwgps/src/lwgps/lwgps.c ****     ll = prv_parse_float_number(gh, NULL);      /* Parse value as double */
 117:Drivers/lwgps/src/lwgps/lwgps.c ****     deg = FLT((int)((int)ll / 100));            /* Get absolute degrees value, interested in intege
 118:Drivers/lwgps/src/lwgps/lwgps.c ****     min = ll - (deg * FLT(100));                /* Get remaining part from full number, minutes */
 119:Drivers/lwgps/src/lwgps/lwgps.c ****     ll = deg + (min / FLT(60.0));               /* Calculate latitude/longitude */
 120:Drivers/lwgps/src/lwgps/lwgps.c **** 
 121:Drivers/lwgps/src/lwgps/lwgps.c ****     return ll;
 122:Drivers/lwgps/src/lwgps/lwgps.c **** }
 123:Drivers/lwgps/src/lwgps/lwgps.c **** 
 124:Drivers/lwgps/src/lwgps/lwgps.c **** /**
 125:Drivers/lwgps/src/lwgps/lwgps.c ****  * \brief           Parse received term
 126:Drivers/lwgps/src/lwgps/lwgps.c ****  * \param[in]       gh: GPS handle
 127:Drivers/lwgps/src/lwgps/lwgps.c ****  * \return          `1` on success, `0` otherwise
 128:Drivers/lwgps/src/lwgps/lwgps.c ****  */
 129:Drivers/lwgps/src/lwgps/lwgps.c **** static uint8_t
 130:Drivers/lwgps/src/lwgps/lwgps.c **** prv_parse_term(lwgps_t* gh) {
 131:Drivers/lwgps/src/lwgps/lwgps.c ****     if (gh->p.term_num == 0) {                  /* Check string type */
 132:Drivers/lwgps/src/lwgps/lwgps.c ****         if (0) {
 133:Drivers/lwgps/src/lwgps/lwgps.c **** #if LWGPS_CFG_STATEMENT_GPGGA
 134:Drivers/lwgps/src/lwgps/lwgps.c ****         } else if (!strncmp(gh->p.term_str, "$GPGGA", 6) || !strncmp(gh->p.term_str, "$GNGGA", 6)) 
 135:Drivers/lwgps/src/lwgps/lwgps.c ****             gh->p.stat = STAT_GGA;
 136:Drivers/lwgps/src/lwgps/lwgps.c **** #endif /* LWGPS_CFG_STATEMENT_GPGGA */
 137:Drivers/lwgps/src/lwgps/lwgps.c **** #if LWGPS_CFG_STATEMENT_GPGSA
 138:Drivers/lwgps/src/lwgps/lwgps.c ****         } else if (!strncmp(gh->p.term_str, "$GPGSA", 6) || !strncmp(gh->p.term_str, "$GNGSA", 6)) 
 139:Drivers/lwgps/src/lwgps/lwgps.c ****             gh->p.stat = STAT_GSA;
 140:Drivers/lwgps/src/lwgps/lwgps.c **** #endif /* LWGPS_CFG_STATEMENT_GPGSA */
 141:Drivers/lwgps/src/lwgps/lwgps.c **** #if LWGPS_CFG_STATEMENT_GPGSV
 142:Drivers/lwgps/src/lwgps/lwgps.c ****         } else if (!strncmp(gh->p.term_str, "$GPGSV", 6) || !strncmp(gh->p.term_str, "$GNGSV", 6)) 
 143:Drivers/lwgps/src/lwgps/lwgps.c ****             gh->p.stat = STAT_GSV;
 144:Drivers/lwgps/src/lwgps/lwgps.c **** #endif /* LWGPS_CFG_STATEMENT_GPGSV */
 145:Drivers/lwgps/src/lwgps/lwgps.c **** #if LWGPS_CFG_STATEMENT_GPRMC
 146:Drivers/lwgps/src/lwgps/lwgps.c ****         } else if (!strncmp(gh->p.term_str, "$GPRMC", 6) || !strncmp(gh->p.term_str, "$GNRMC", 6)) 
 147:Drivers/lwgps/src/lwgps/lwgps.c ****             gh->p.stat = STAT_RMC;
 148:Drivers/lwgps/src/lwgps/lwgps.c **** #endif /* LWGPS_CFG_STATEMENT_GPRMC */
 149:Drivers/lwgps/src/lwgps/lwgps.c **** #if LWGPS_CFG_STATEMENT_PUBX
 150:Drivers/lwgps/src/lwgps/lwgps.c ****         } else if (!strncmp(gh->p.term_str, "$PUBX", 5)) {
 151:Drivers/lwgps/src/lwgps/lwgps.c ****             gh->p.stat = STAT_UBX;
 152:Drivers/lwgps/src/lwgps/lwgps.c **** #endif /* LWGPS_CFG_STATEMENT_PUBX */
 153:Drivers/lwgps/src/lwgps/lwgps.c ****         } else {
 154:Drivers/lwgps/src/lwgps/lwgps.c ****             gh->p.stat = STAT_UNKNOWN;          /* Invalid statement for library */
 155:Drivers/lwgps/src/lwgps/lwgps.c ****         }
 156:Drivers/lwgps/src/lwgps/lwgps.c ****         return 1;
 157:Drivers/lwgps/src/lwgps/lwgps.c ****     }
 158:Drivers/lwgps/src/lwgps/lwgps.c **** 
 159:Drivers/lwgps/src/lwgps/lwgps.c ****     /* Start parsing terms */
 160:Drivers/lwgps/src/lwgps/lwgps.c ****     if (gh->p.stat == STAT_UNKNOWN) {
 161:Drivers/lwgps/src/lwgps/lwgps.c **** #if LWGPS_CFG_STATEMENT_GPGGA
ARM GAS  /tmp/ccQwasSs.s 			page 6


 162:Drivers/lwgps/src/lwgps/lwgps.c ****     } else if (gh->p.stat == STAT_GGA) {        /* Process GPGGA statement */
 163:Drivers/lwgps/src/lwgps/lwgps.c ****         switch (gh->p.term_num) {
 164:Drivers/lwgps/src/lwgps/lwgps.c ****             case 1:                             /* Process UTC time */
 165:Drivers/lwgps/src/lwgps/lwgps.c ****                 gh->p.data.gga.hours = 10 * CTN(gh->p.term_str[0]) + CTN(gh->p.term_str[1]);
 166:Drivers/lwgps/src/lwgps/lwgps.c ****                 gh->p.data.gga.minutes = 10 * CTN(gh->p.term_str[2]) + CTN(gh->p.term_str[3]);
 167:Drivers/lwgps/src/lwgps/lwgps.c ****                 gh->p.data.gga.seconds = 10 * CTN(gh->p.term_str[4]) + CTN(gh->p.term_str[5]);
 168:Drivers/lwgps/src/lwgps/lwgps.c ****                 break;
 169:Drivers/lwgps/src/lwgps/lwgps.c ****             case 2:                             /* Latitude */
 170:Drivers/lwgps/src/lwgps/lwgps.c ****                 gh->p.data.gga.latitude = prv_parse_lat_long(gh);   /* Parse latitude */
 171:Drivers/lwgps/src/lwgps/lwgps.c ****                 break;
 172:Drivers/lwgps/src/lwgps/lwgps.c ****             case 3:                             /* Latitude north/south information */
 173:Drivers/lwgps/src/lwgps/lwgps.c ****                 if (gh->p.term_str[0] == 'S' || gh->p.term_str[0] == 's') {
 174:Drivers/lwgps/src/lwgps/lwgps.c ****                     gh->p.data.gga.latitude = -gh->p.data.gga.latitude;
 175:Drivers/lwgps/src/lwgps/lwgps.c ****                 }
 176:Drivers/lwgps/src/lwgps/lwgps.c ****                 break;
 177:Drivers/lwgps/src/lwgps/lwgps.c ****             case 4:                             /* Longitude */
 178:Drivers/lwgps/src/lwgps/lwgps.c ****                 gh->p.data.gga.longitude = prv_parse_lat_long(gh);  /* Parse longitude */
 179:Drivers/lwgps/src/lwgps/lwgps.c ****                 break;
 180:Drivers/lwgps/src/lwgps/lwgps.c ****             case 5:                             /* Longitude east/west information */
 181:Drivers/lwgps/src/lwgps/lwgps.c ****                 if (gh->p.term_str[0] == 'W' || gh->p.term_str[0] == 'w') {
 182:Drivers/lwgps/src/lwgps/lwgps.c ****                     gh->p.data.gga.longitude = -gh->p.data.gga.longitude;
 183:Drivers/lwgps/src/lwgps/lwgps.c ****                 }
 184:Drivers/lwgps/src/lwgps/lwgps.c ****                 break;
 185:Drivers/lwgps/src/lwgps/lwgps.c ****             case 6:                             /* Fix status */
 186:Drivers/lwgps/src/lwgps/lwgps.c ****                 gh->p.data.gga.fix = (uint8_t)prv_parse_number(gh, NULL);
 187:Drivers/lwgps/src/lwgps/lwgps.c ****                 break;
 188:Drivers/lwgps/src/lwgps/lwgps.c ****             case 7:                             /* Satellites in use */
 189:Drivers/lwgps/src/lwgps/lwgps.c ****                 gh->p.data.gga.sats_in_use = (uint8_t)prv_parse_number(gh, NULL);
 190:Drivers/lwgps/src/lwgps/lwgps.c ****                 break;
 191:Drivers/lwgps/src/lwgps/lwgps.c ****             case 9:                             /* Altitude */
 192:Drivers/lwgps/src/lwgps/lwgps.c ****                 gh->p.data.gga.altitude = prv_parse_float_number(gh, NULL);
 193:Drivers/lwgps/src/lwgps/lwgps.c ****                 break;
 194:Drivers/lwgps/src/lwgps/lwgps.c ****             case 11:                            /* Altitude above ellipsoid */
 195:Drivers/lwgps/src/lwgps/lwgps.c ****                 gh->p.data.gga.geo_sep = prv_parse_float_number(gh, NULL);
 196:Drivers/lwgps/src/lwgps/lwgps.c ****                 break;
 197:Drivers/lwgps/src/lwgps/lwgps.c ****             default:
 198:Drivers/lwgps/src/lwgps/lwgps.c ****                 break;
 199:Drivers/lwgps/src/lwgps/lwgps.c ****         }
 200:Drivers/lwgps/src/lwgps/lwgps.c **** #endif /* LWGPS_CFG_STATEMENT_GPGGA */
 201:Drivers/lwgps/src/lwgps/lwgps.c **** #if LWGPS_CFG_STATEMENT_GPGSA
 202:Drivers/lwgps/src/lwgps/lwgps.c ****     } else if (gh->p.stat == STAT_GSA) {        /* Process GPGSA statement */
 203:Drivers/lwgps/src/lwgps/lwgps.c ****         switch (gh->p.term_num) {
 204:Drivers/lwgps/src/lwgps/lwgps.c ****             case 2:                             /* Process fix mode */
 205:Drivers/lwgps/src/lwgps/lwgps.c ****                 gh->p.data.gsa.fix_mode = (uint8_t)prv_parse_number(gh, NULL);
 206:Drivers/lwgps/src/lwgps/lwgps.c ****                 break;
 207:Drivers/lwgps/src/lwgps/lwgps.c ****             case 15:                            /* Process PDOP */
 208:Drivers/lwgps/src/lwgps/lwgps.c ****                 gh->p.data.gsa.dop_p = prv_parse_float_number(gh, NULL);
 209:Drivers/lwgps/src/lwgps/lwgps.c ****                 break;
 210:Drivers/lwgps/src/lwgps/lwgps.c ****             case 16:                            /* Process HDOP */
 211:Drivers/lwgps/src/lwgps/lwgps.c ****                 gh->p.data.gsa.dop_h = prv_parse_float_number(gh, NULL);
 212:Drivers/lwgps/src/lwgps/lwgps.c ****                 break;
 213:Drivers/lwgps/src/lwgps/lwgps.c ****             case 17:                            /* Process VDOP */
 214:Drivers/lwgps/src/lwgps/lwgps.c ****                 gh->p.data.gsa.dop_v = prv_parse_float_number(gh, NULL);
 215:Drivers/lwgps/src/lwgps/lwgps.c ****                 break;
 216:Drivers/lwgps/src/lwgps/lwgps.c ****             default:
 217:Drivers/lwgps/src/lwgps/lwgps.c ****                 /* Parse satellite IDs */
 218:Drivers/lwgps/src/lwgps/lwgps.c ****                 if (gh->p.term_num >= 3 && gh->p.term_num <= 14) {
ARM GAS  /tmp/ccQwasSs.s 			page 7


 219:Drivers/lwgps/src/lwgps/lwgps.c ****                     gh->p.data.gsa.satellites_ids[gh->p.term_num - 3] = (uint8_t)prv_parse_number(g
 220:Drivers/lwgps/src/lwgps/lwgps.c ****                 }
 221:Drivers/lwgps/src/lwgps/lwgps.c ****                 break;
 222:Drivers/lwgps/src/lwgps/lwgps.c ****         }
 223:Drivers/lwgps/src/lwgps/lwgps.c **** #endif /* LWGPS_CFG_STATEMENT_GPGSA */
 224:Drivers/lwgps/src/lwgps/lwgps.c **** #if LWGPS_CFG_STATEMENT_GPGSV
 225:Drivers/lwgps/src/lwgps/lwgps.c ****     } else if (gh->p.stat == STAT_GSV) {        /* Process GPGSV statement */
 226:Drivers/lwgps/src/lwgps/lwgps.c ****         switch (gh->p.term_num) {
 227:Drivers/lwgps/src/lwgps/lwgps.c ****             case 2:                             /* Current GPGSV statement number */
 228:Drivers/lwgps/src/lwgps/lwgps.c ****                 gh->p.data.gsv.stat_num = (uint8_t)prv_parse_number(gh, NULL);
 229:Drivers/lwgps/src/lwgps/lwgps.c ****                 break;
 230:Drivers/lwgps/src/lwgps/lwgps.c ****             case 3:                             /* Process satellites in view */
 231:Drivers/lwgps/src/lwgps/lwgps.c ****                 gh->p.data.gsv.sats_in_view = (uint8_t)prv_parse_number(gh, NULL);
 232:Drivers/lwgps/src/lwgps/lwgps.c ****                 break;
 233:Drivers/lwgps/src/lwgps/lwgps.c ****             default:
 234:Drivers/lwgps/src/lwgps/lwgps.c **** #if LWGPS_CFG_STATEMENT_GPGSV_SAT_DET
 235:Drivers/lwgps/src/lwgps/lwgps.c ****                 if (gh->p.term_num >= 4 && gh->p.term_num <= 19) {  /* Check current term number */
 236:Drivers/lwgps/src/lwgps/lwgps.c ****                     uint8_t index, term_num = gh->p.term_num - 4;   /* Normalize term number from 4
 237:Drivers/lwgps/src/lwgps/lwgps.c ****                     uint16_t value;
 238:Drivers/lwgps/src/lwgps/lwgps.c **** 
 239:Drivers/lwgps/src/lwgps/lwgps.c ****                     index = ((gh->p.data.gsv.stat_num - 1) << 0x02) + (term_num >> 2);  /* Get arra
 240:Drivers/lwgps/src/lwgps/lwgps.c ****                     if (index < sizeof(gh->sats_in_view_desc) / sizeof(gh->sats_in_view_desc[0])) {
 241:Drivers/lwgps/src/lwgps/lwgps.c ****                         value = (uint16_t)prv_parse_number(gh, NULL);   /* Parse number as integer 
 242:Drivers/lwgps/src/lwgps/lwgps.c ****                         switch (term_num & 0x03) {
 243:Drivers/lwgps/src/lwgps/lwgps.c ****                             case 0:
 244:Drivers/lwgps/src/lwgps/lwgps.c ****                                 gh->sats_in_view_desc[index].num = value;
 245:Drivers/lwgps/src/lwgps/lwgps.c ****                                 break;
 246:Drivers/lwgps/src/lwgps/lwgps.c ****                             case 1:
 247:Drivers/lwgps/src/lwgps/lwgps.c ****                                 gh->sats_in_view_desc[index].elevation = value;
 248:Drivers/lwgps/src/lwgps/lwgps.c ****                                 break;
 249:Drivers/lwgps/src/lwgps/lwgps.c ****                             case 2:
 250:Drivers/lwgps/src/lwgps/lwgps.c ****                                 gh->sats_in_view_desc[index].azimuth = value;
 251:Drivers/lwgps/src/lwgps/lwgps.c ****                                 break;
 252:Drivers/lwgps/src/lwgps/lwgps.c ****                             case 3:
 253:Drivers/lwgps/src/lwgps/lwgps.c ****                                 gh->sats_in_view_desc[index].snr = value;
 254:Drivers/lwgps/src/lwgps/lwgps.c ****                                 break;
 255:Drivers/lwgps/src/lwgps/lwgps.c ****                             default:
 256:Drivers/lwgps/src/lwgps/lwgps.c ****                                 break;
 257:Drivers/lwgps/src/lwgps/lwgps.c ****                         }
 258:Drivers/lwgps/src/lwgps/lwgps.c ****                     }
 259:Drivers/lwgps/src/lwgps/lwgps.c ****                 }
 260:Drivers/lwgps/src/lwgps/lwgps.c **** #endif /* LWGPS_CFG_STATEMENT_GPGSV_SAT_DET */
 261:Drivers/lwgps/src/lwgps/lwgps.c ****                 break;
 262:Drivers/lwgps/src/lwgps/lwgps.c ****         }
 263:Drivers/lwgps/src/lwgps/lwgps.c **** #endif /* LWGPS_CFG_STATEMENT_GPGSV */
 264:Drivers/lwgps/src/lwgps/lwgps.c **** #if LWGPS_CFG_STATEMENT_GPRMC
 265:Drivers/lwgps/src/lwgps/lwgps.c ****     } else if (gh->p.stat == STAT_RMC) {        /* Process GPRMC statement */
 266:Drivers/lwgps/src/lwgps/lwgps.c ****         switch (gh->p.term_num) {
 267:Drivers/lwgps/src/lwgps/lwgps.c ****             case 2:                             /* Process valid status */
 268:Drivers/lwgps/src/lwgps/lwgps.c ****                 gh->p.data.rmc.is_valid = (gh->p.term_str[0] == 'A');
 269:Drivers/lwgps/src/lwgps/lwgps.c ****                 break;
 270:Drivers/lwgps/src/lwgps/lwgps.c ****             case 7:                             /* Process ground speed in knots */
 271:Drivers/lwgps/src/lwgps/lwgps.c ****                 gh->p.data.rmc.speed = prv_parse_float_number(gh, NULL);
 272:Drivers/lwgps/src/lwgps/lwgps.c ****                 break;
 273:Drivers/lwgps/src/lwgps/lwgps.c ****             case 8:                             /* Process true ground coarse */
 274:Drivers/lwgps/src/lwgps/lwgps.c ****                 gh->p.data.rmc.course = prv_parse_float_number(gh, NULL);
 275:Drivers/lwgps/src/lwgps/lwgps.c ****                 break;
ARM GAS  /tmp/ccQwasSs.s 			page 8


 276:Drivers/lwgps/src/lwgps/lwgps.c ****             case 9:                             /* Process date */
 277:Drivers/lwgps/src/lwgps/lwgps.c ****                 gh->p.data.rmc.date = (uint8_t)(10 * CTN(gh->p.term_str[0]) + CTN(gh->p.term_str[1]
 278:Drivers/lwgps/src/lwgps/lwgps.c ****                 gh->p.data.rmc.month = (uint8_t)(10 * CTN(gh->p.term_str[2]) + CTN(gh->p.term_str[3
 279:Drivers/lwgps/src/lwgps/lwgps.c ****                 gh->p.data.rmc.year = (uint8_t)(10 * CTN(gh->p.term_str[4]) + CTN(gh->p.term_str[5]
 280:Drivers/lwgps/src/lwgps/lwgps.c ****                 break;
 281:Drivers/lwgps/src/lwgps/lwgps.c ****             case 10:                            /* Process magnetic variation */
 282:Drivers/lwgps/src/lwgps/lwgps.c ****                 gh->p.data.rmc.variation = prv_parse_float_number(gh, NULL);
 283:Drivers/lwgps/src/lwgps/lwgps.c ****                 break;
 284:Drivers/lwgps/src/lwgps/lwgps.c ****             case 11:                            /* Process magnetic variation east/west */
 285:Drivers/lwgps/src/lwgps/lwgps.c ****                 if (gh->p.term_str[0] == 'W' || gh->p.term_str[0] == 'w') {
 286:Drivers/lwgps/src/lwgps/lwgps.c ****                     gh->p.data.rmc.variation = -gh->p.data.rmc.variation;
 287:Drivers/lwgps/src/lwgps/lwgps.c ****                 }
 288:Drivers/lwgps/src/lwgps/lwgps.c ****                 break;
 289:Drivers/lwgps/src/lwgps/lwgps.c ****             default:
 290:Drivers/lwgps/src/lwgps/lwgps.c ****                 break;
 291:Drivers/lwgps/src/lwgps/lwgps.c ****         }
 292:Drivers/lwgps/src/lwgps/lwgps.c **** #endif /* LWGPS_CFG_STATEMENT_GPRMC */
 293:Drivers/lwgps/src/lwgps/lwgps.c **** #if LWGPS_CFG_STATEMENT_PUBX
 294:Drivers/lwgps/src/lwgps/lwgps.c ****     } else if (gh->p.stat == STAT_UBX) {        /* Disambiguate generic PUBX statement */
 295:Drivers/lwgps/src/lwgps/lwgps.c ****         if (gh->p.term_str[0] == '0' && gh->p.term_str[1] == '4') {
 296:Drivers/lwgps/src/lwgps/lwgps.c ****             gh->p.stat = STAT_UBX_TIME;
 297:Drivers/lwgps/src/lwgps/lwgps.c ****         }
 298:Drivers/lwgps/src/lwgps/lwgps.c **** #if LWGPS_CFG_STATEMENT_PUBX_TIME
 299:Drivers/lwgps/src/lwgps/lwgps.c ****     } else if (gh->p.stat == STAT_UBX_TIME) {   /* Process PUBX (uBlox) TIME statement */
 300:Drivers/lwgps/src/lwgps/lwgps.c ****         switch (gh->p.term_num) {
 301:Drivers/lwgps/src/lwgps/lwgps.c ****             case 2:                             /* Process UTC time; ignore fractions of seconds */
 302:Drivers/lwgps/src/lwgps/lwgps.c ****                 gh->p.data.time.hours = 10 * CTN(gh->p.term_str[0]) + CTN(gh->p.term_str[1]);
 303:Drivers/lwgps/src/lwgps/lwgps.c ****                 gh->p.data.time.minutes = 10 * CTN(gh->p.term_str[2]) + CTN(gh->p.term_str[3]);
 304:Drivers/lwgps/src/lwgps/lwgps.c ****                 gh->p.data.time.seconds = 10 * CTN(gh->p.term_str[4]) + CTN(gh->p.term_str[5]);
 305:Drivers/lwgps/src/lwgps/lwgps.c ****                 break;
 306:Drivers/lwgps/src/lwgps/lwgps.c ****             case 3:                             /* Process UTC date */
 307:Drivers/lwgps/src/lwgps/lwgps.c ****                 gh->p.data.time.date = 10 * CTN(gh->p.term_str[0]) + CTN(gh->p.term_str[1]);
 308:Drivers/lwgps/src/lwgps/lwgps.c ****                 gh->p.data.time.month = 10 * CTN(gh->p.term_str[2]) + CTN(gh->p.term_str[3]);
 309:Drivers/lwgps/src/lwgps/lwgps.c ****                 gh->p.data.time.year = 10 * CTN(gh->p.term_str[4]) + CTN(gh->p.term_str[5]);
 310:Drivers/lwgps/src/lwgps/lwgps.c ****                 break;
 311:Drivers/lwgps/src/lwgps/lwgps.c ****             case 4:                             /* Process UTC TimeOfWeek */
 312:Drivers/lwgps/src/lwgps/lwgps.c ****                 gh->p.data.time.utc_tow = prv_parse_float_number(gh, NULL);
 313:Drivers/lwgps/src/lwgps/lwgps.c ****                 break;
 314:Drivers/lwgps/src/lwgps/lwgps.c ****             case 5:                             /* Process UTC WeekNumber */
 315:Drivers/lwgps/src/lwgps/lwgps.c ****                 gh->p.data.time.utc_wk = prv_parse_number(gh, NULL);
 316:Drivers/lwgps/src/lwgps/lwgps.c ****                 break;
 317:Drivers/lwgps/src/lwgps/lwgps.c ****             case 6:                             /* Process UTC leap seconds */
 318:Drivers/lwgps/src/lwgps/lwgps.c ****                 /*
 319:Drivers/lwgps/src/lwgps/lwgps.c **** 				 * Accomodate a 2- or 3-digit leap second count
 320:Drivers/lwgps/src/lwgps/lwgps.c ****                  * a trailing 'D' means this is the firmware's default value.
 321:Drivers/lwgps/src/lwgps/lwgps.c ****                  */
 322:Drivers/lwgps/src/lwgps/lwgps.c ****                 if (gh->p.term_str[2] == 'D' || gh->p.term_str[2] == '\0') {
 323:Drivers/lwgps/src/lwgps/lwgps.c ****                     gh->p.data.time.leap_sec = 10 * CTN(gh->p.term_str[0])
 324:Drivers/lwgps/src/lwgps/lwgps.c ****                                                + CTN(gh->p.term_str[1]);
 325:Drivers/lwgps/src/lwgps/lwgps.c ****                 } else {
 326:Drivers/lwgps/src/lwgps/lwgps.c ****                     gh->p.data.time.leap_sec = 100 * CTN(gh->p.term_str[0])
 327:Drivers/lwgps/src/lwgps/lwgps.c ****                                                + 10 * CTN(gh->p.term_str[1])
 328:Drivers/lwgps/src/lwgps/lwgps.c ****                                                + CTN(gh->p.term_str[2]);
 329:Drivers/lwgps/src/lwgps/lwgps.c ****                 }
 330:Drivers/lwgps/src/lwgps/lwgps.c ****                 break;
 331:Drivers/lwgps/src/lwgps/lwgps.c ****             case 7:                             /* Process clock bias */
 332:Drivers/lwgps/src/lwgps/lwgps.c ****                 gh->p.data.time.clk_bias = prv_parse_number(gh, NULL);
ARM GAS  /tmp/ccQwasSs.s 			page 9


 333:Drivers/lwgps/src/lwgps/lwgps.c ****                 break;
 334:Drivers/lwgps/src/lwgps/lwgps.c ****             case 8:                             /* Process clock drift */
 335:Drivers/lwgps/src/lwgps/lwgps.c ****                 gh->p.data.time.clk_drift = prv_parse_float_number(gh, NULL);
 336:Drivers/lwgps/src/lwgps/lwgps.c ****                 break;
 337:Drivers/lwgps/src/lwgps/lwgps.c ****             case 9:                             /* Process time pulse granularity */
 338:Drivers/lwgps/src/lwgps/lwgps.c ****                 gh->p.data.time.tp_gran = prv_parse_number(gh, NULL);
 339:Drivers/lwgps/src/lwgps/lwgps.c ****                 break;
 340:Drivers/lwgps/src/lwgps/lwgps.c ****             default:
 341:Drivers/lwgps/src/lwgps/lwgps.c ****                 break;
 342:Drivers/lwgps/src/lwgps/lwgps.c ****         }
 343:Drivers/lwgps/src/lwgps/lwgps.c **** #endif /* LWGPS_CFG_STATEMENT_PUBX_TIME */
 344:Drivers/lwgps/src/lwgps/lwgps.c **** #endif /* LWGPS_CFG_STATEMENT_PUBX */
 345:Drivers/lwgps/src/lwgps/lwgps.c ****     }
 346:Drivers/lwgps/src/lwgps/lwgps.c ****     return 1;
 347:Drivers/lwgps/src/lwgps/lwgps.c **** }
 348:Drivers/lwgps/src/lwgps/lwgps.c **** 
 349:Drivers/lwgps/src/lwgps/lwgps.c **** /**
 350:Drivers/lwgps/src/lwgps/lwgps.c ****  * \brief           Compare calculated CRC with received CRC
 351:Drivers/lwgps/src/lwgps/lwgps.c ****  * \param[in]       gh: GPS handle
 352:Drivers/lwgps/src/lwgps/lwgps.c ****  * \return          `1` on success, `0` otherwise
 353:Drivers/lwgps/src/lwgps/lwgps.c ****  */
 354:Drivers/lwgps/src/lwgps/lwgps.c **** static uint8_t
 355:Drivers/lwgps/src/lwgps/lwgps.c **** prv_check_crc(lwgps_t* gh) {
 123              		.loc 1 355 0
 124              		.cfi_startproc
 125              		@ args = 0, pretend = 0, frame = 0
 126              		@ frame_needed = 0, uses_anonymous_args = 0
 127              		@ link register save eliminated.
 128              	.LVL14:
 356:Drivers/lwgps/src/lwgps/lwgps.c ****     uint8_t crc;
 357:Drivers/lwgps/src/lwgps/lwgps.c ****     crc = (uint8_t)((CHTN(gh->p.term_str[0]) & 0x0F) << 0x04) | (CHTN(gh->p.term_str[1]) & 0x0F);  
 129              		.loc 1 357 0
 130 0000 90F87130 		ldrb	r3, [r0, #113]	@ zero_extendqisi2
 131 0004 A3F13002 		sub	r2, r3, #48
 132 0008 D2B2     		uxtb	r2, r2
 133 000a 092A     		cmp	r2, #9
 134 000c 16D8     		bhi	.L15
 135              		.loc 1 357 0 is_stmt 0 discriminator 1
 136 000e 1B01     		lsls	r3, r3, #4
 137 0010 5BB2     		sxtb	r3, r3
 138              	.L16:
 139              		.loc 1 357 0 discriminator 12
 140 0012 90F87220 		ldrb	r2, [r0, #114]	@ zero_extendqisi2
 141 0016 A2F13001 		sub	r1, r2, #48
 142 001a C9B2     		uxtb	r1, r1
 143 001c 0929     		cmp	r1, #9
 144 001e 23D9     		bls	.L23
 145              		.loc 1 357 0 discriminator 14
 146 0020 A2F16101 		sub	r1, r2, #97
 147 0024 C9B2     		uxtb	r1, r1
 148 0026 1929     		cmp	r1, #25
 149 0028 29D9     		bls	.L24
 150              		.loc 1 357 0 discriminator 17
 151 002a A2F14101 		sub	r1, r2, #65
 152 002e C9B2     		uxtb	r1, r1
 153 0030 1929     		cmp	r1, #25
 154 0032 28D8     		bhi	.L22
ARM GAS  /tmp/ccQwasSs.s 			page 10


 155              		.loc 1 357 0 discriminator 19
 156 0034 373A     		subs	r2, r2, #55
 157 0036 02F00F02 		and	r2, r2, #15
 158 003a 17E0     		b	.L19
 159              	.L15:
 160              		.loc 1 357 0 discriminator 2
 161 003c A3F16102 		sub	r2, r3, #97
 162 0040 D2B2     		uxtb	r2, r2
 163 0042 192A     		cmp	r2, #25
 164 0044 04D8     		bhi	.L17
 165              		.loc 1 357 0 discriminator 4
 166 0046 573B     		subs	r3, r3, #87
 167 0048 DBB2     		uxtb	r3, r3
 168 004a 1B01     		lsls	r3, r3, #4
 169 004c 5BB2     		sxtb	r3, r3
 170 004e E0E7     		b	.L16
 171              	.L17:
 172              		.loc 1 357 0 discriminator 5
 173 0050 A3F14102 		sub	r2, r3, #65
 174 0054 D2B2     		uxtb	r2, r2
 175 0056 192A     		cmp	r2, #25
 176 0058 04D8     		bhi	.L21
 177              		.loc 1 357 0 discriminator 7
 178 005a 373B     		subs	r3, r3, #55
 179 005c DBB2     		uxtb	r3, r3
 180 005e 1B01     		lsls	r3, r3, #4
 181 0060 5BB2     		sxtb	r3, r3
 182 0062 D6E7     		b	.L16
 183              	.L21:
 184              		.loc 1 357 0
 185 0064 0023     		movs	r3, #0
 186 0066 D4E7     		b	.L16
 187              	.L23:
 188              		.loc 1 357 0 discriminator 13
 189 0068 02F00F02 		and	r2, r2, #15
 190              	.L19:
 191              		.loc 1 357 0 discriminator 24
 192 006c 1343     		orrs	r3, r3, r2
 193 006e DBB2     		uxtb	r3, r3
 194              	.LVL15:
 358:Drivers/lwgps/src/lwgps/lwgps.c ****     return gh->p.crc_calc == crc;               /* They must match! */
 195              		.loc 1 358 0 is_stmt 1 discriminator 24
 196 0070 90F88100 		ldrb	r0, [r0, #129]	@ zero_extendqisi2
 197              	.LVL16:
 359:Drivers/lwgps/src/lwgps/lwgps.c **** }
 198              		.loc 1 359 0 discriminator 24
 199 0074 9842     		cmp	r0, r3
 200 0076 14BF     		ite	ne
 201 0078 0020     		movne	r0, #0
 202 007a 0120     		moveq	r0, #1
 203 007c 7047     		bx	lr
 204              	.LVL17:
 205              	.L24:
 357:Drivers/lwgps/src/lwgps/lwgps.c ****     return gh->p.crc_calc == crc;               /* They must match! */
 206              		.loc 1 357 0 discriminator 16
 207 007e 573A     		subs	r2, r2, #87
 208 0080 02F00F02 		and	r2, r2, #15
ARM GAS  /tmp/ccQwasSs.s 			page 11


 209 0084 F2E7     		b	.L19
 210              	.L22:
 357:Drivers/lwgps/src/lwgps/lwgps.c ****     return gh->p.crc_calc == crc;               /* They must match! */
 211              		.loc 1 357 0 is_stmt 0
 212 0086 0022     		movs	r2, #0
 213 0088 F0E7     		b	.L19
 214              		.cfi_endproc
 215              	.LFE4:
 217              		.section	.text.prv_parse_float_number,"ax",%progbits
 218              		.align	1
 219              		.syntax unified
 220              		.thumb
 221              		.thumb_func
 222              		.fpu fpv4-sp-d16
 224              	prv_parse_float_number:
 225              	.LFB1:
  88:Drivers/lwgps/src/lwgps/lwgps.c ****     lwgps_float_t res;
 226              		.loc 1 88 0 is_stmt 1
 227              		.cfi_startproc
 228              		@ args = 0, pretend = 0, frame = 0
 229              		@ frame_needed = 0, uses_anonymous_args = 0
 230              	.LVL18:
 231 0000 08B5     		push	{r3, lr}
 232              	.LCFI2:
 233              		.cfi_def_cfa_offset 8
 234              		.cfi_offset 3, -8
 235              		.cfi_offset 14, -4
  91:Drivers/lwgps/src/lwgps/lwgps.c ****         t = gh->p.term_str;
 236              		.loc 1 91 0
 237 0002 0B46     		mov	r3, r1
 238 0004 19B9     		cbnz	r1, .L27
  92:Drivers/lwgps/src/lwgps/lwgps.c ****     }
 239              		.loc 1 92 0
 240 0006 00F17103 		add	r3, r0, #113
 241              	.LVL19:
 242 000a 00E0     		b	.L27
 243              	.L29:
  94:Drivers/lwgps/src/lwgps/lwgps.c **** 
 244              		.loc 1 94 0 discriminator 3
 245 000c 0133     		adds	r3, r3, #1
 246              	.LVL20:
 247              	.L27:
  94:Drivers/lwgps/src/lwgps/lwgps.c **** 
 248              		.loc 1 94 0 is_stmt 0 discriminator 1
 249 000e 13B1     		cbz	r3, .L28
  94:Drivers/lwgps/src/lwgps/lwgps.c **** 
 250              		.loc 1 94 0 discriminator 2
 251 0010 1A78     		ldrb	r2, [r3]	@ zero_extendqisi2
 252 0012 202A     		cmp	r2, #32
 253 0014 FAD0     		beq	.L29
 254              	.L28:
  97:Drivers/lwgps/src/lwgps/lwgps.c **** #else /* LWGPS_CFG_DOUBLE */
 255              		.loc 1 97 0 is_stmt 1
 256 0016 0021     		movs	r1, #0
 257 0018 1846     		mov	r0, r3
 258              	.LVL21:
 259 001a FFF7FEFF 		bl	strtod
ARM GAS  /tmp/ccQwasSs.s 			page 12


 260              	.LVL22:
 103:Drivers/lwgps/src/lwgps/lwgps.c **** 
 261              		.loc 1 103 0
 262 001e 51EC100B 		vmov	r0, r1, d0
 263 0022 08BD     		pop	{r3, pc}
 264              		.cfi_endproc
 265              	.LFE1:
 267              		.global	__aeabi_d2iz
 268              		.global	__aeabi_i2d
 269              		.global	__aeabi_dmul
 270              		.global	__aeabi_dsub
 271              		.global	__aeabi_ddiv
 272              		.global	__aeabi_dadd
 273              		.section	.text.prv_parse_lat_long,"ax",%progbits
 274              		.align	1
 275              		.syntax unified
 276              		.thumb
 277              		.thumb_func
 278              		.fpu fpv4-sp-d16
 280              	prv_parse_lat_long:
 281              	.LFB2:
 113:Drivers/lwgps/src/lwgps/lwgps.c ****     lwgps_float_t ll, deg, min;
 282              		.loc 1 113 0
 283              		.cfi_startproc
 284              		@ args = 0, pretend = 0, frame = 0
 285              		@ frame_needed = 0, uses_anonymous_args = 0
 286              	.LVL23:
 287 0000 F8B5     		push	{r3, r4, r5, r6, r7, lr}
 288              	.LCFI3:
 289              		.cfi_def_cfa_offset 24
 290              		.cfi_offset 3, -24
 291              		.cfi_offset 4, -20
 292              		.cfi_offset 5, -16
 293              		.cfi_offset 6, -12
 294              		.cfi_offset 7, -8
 295              		.cfi_offset 14, -4
 116:Drivers/lwgps/src/lwgps/lwgps.c ****     deg = FLT((int)((int)ll / 100));            /* Get absolute degrees value, interested in intege
 296              		.loc 1 116 0
 297 0002 0021     		movs	r1, #0
 298 0004 FFF7FEFF 		bl	prv_parse_float_number
 299              	.LVL24:
 300 0008 0446     		mov	r4, r0
 301 000a 0D46     		mov	r5, r1
 302              	.LVL25:
 117:Drivers/lwgps/src/lwgps/lwgps.c ****     min = ll - (deg * FLT(100));                /* Get remaining part from full number, minutes */
 303              		.loc 1 117 0
 304 000c FFF7FEFF 		bl	__aeabi_d2iz
 305              	.LVL26:
 306 0010 0E4B     		ldr	r3, .L33
 307 0012 83FB0023 		smull	r2, r3, r3, r0
 308 0016 C017     		asrs	r0, r0, #31
 309 0018 C0EB6310 		rsb	r0, r0, r3, asr #5
 310 001c FFF7FEFF 		bl	__aeabi_i2d
 311              	.LVL27:
 312 0020 0646     		mov	r6, r0
 313 0022 0F46     		mov	r7, r1
 314              	.LVL28:
ARM GAS  /tmp/ccQwasSs.s 			page 13


 118:Drivers/lwgps/src/lwgps/lwgps.c ****     ll = deg + (min / FLT(60.0));               /* Calculate latitude/longitude */
 315              		.loc 1 118 0
 316 0024 0022     		movs	r2, #0
 317 0026 0A4B     		ldr	r3, .L33+4
 318 0028 FFF7FEFF 		bl	__aeabi_dmul
 319              	.LVL29:
 320 002c 0246     		mov	r2, r0
 321 002e 0B46     		mov	r3, r1
 322 0030 2046     		mov	r0, r4
 323 0032 2946     		mov	r1, r5
 324 0034 FFF7FEFF 		bl	__aeabi_dsub
 325              	.LVL30:
 119:Drivers/lwgps/src/lwgps/lwgps.c **** 
 326              		.loc 1 119 0
 327 0038 0022     		movs	r2, #0
 328 003a 064B     		ldr	r3, .L33+8
 329 003c FFF7FEFF 		bl	__aeabi_ddiv
 330              	.LVL31:
 331 0040 3246     		mov	r2, r6
 332 0042 3B46     		mov	r3, r7
 333 0044 FFF7FEFF 		bl	__aeabi_dadd
 334              	.LVL32:
 122:Drivers/lwgps/src/lwgps/lwgps.c **** 
 335              		.loc 1 122 0
 336 0048 F8BD     		pop	{r3, r4, r5, r6, r7, pc}
 337              	.LVL33:
 338              	.L34:
 339 004a 00BF     		.align	2
 340              	.L33:
 341 004c 1F85EB51 		.word	1374389535
 342 0050 00005940 		.word	1079574528
 343 0054 00004E40 		.word	1078853632
 344              		.cfi_endproc
 345              	.LFE2:
 347              		.section	.text.prv_parse_term,"ax",%progbits
 348              		.align	1
 349              		.syntax unified
 350              		.thumb
 351              		.thumb_func
 352              		.fpu fpv4-sp-d16
 354              	prv_parse_term:
 355              	.LFB3:
 130:Drivers/lwgps/src/lwgps/lwgps.c ****     if (gh->p.term_num == 0) {                  /* Check string type */
 356              		.loc 1 130 0
 357              		.cfi_startproc
 358              		@ args = 0, pretend = 0, frame = 0
 359              		@ frame_needed = 0, uses_anonymous_args = 0
 360              	.LVL34:
 361 0000 38B5     		push	{r3, r4, r5, lr}
 362              	.LCFI4:
 363              		.cfi_def_cfa_offset 16
 364              		.cfi_offset 3, -16
 365              		.cfi_offset 4, -12
 366              		.cfi_offset 5, -8
 367              		.cfi_offset 14, -4
 368 0002 0446     		mov	r4, r0
 131:Drivers/lwgps/src/lwgps/lwgps.c ****         if (0) {
ARM GAS  /tmp/ccQwasSs.s 			page 14


 369              		.loc 1 131 0
 370 0004 90F87F50 		ldrb	r5, [r0, #127]	@ zero_extendqisi2
 371 0008 002D     		cmp	r5, #0
 372 000a 46D1     		bne	.L36
 134:Drivers/lwgps/src/lwgps/lwgps.c ****             gh->p.stat = STAT_GGA;
 373              		.loc 1 134 0
 374 000c 00F17105 		add	r5, r0, #113
 375 0010 0622     		movs	r2, #6
 376 0012 BA49     		ldr	r1, .L81
 377 0014 2846     		mov	r0, r5
 378              	.LVL35:
 379 0016 FFF7FEFF 		bl	strncmp
 380              	.LVL36:
 381 001a 68B3     		cbz	r0, .L37
 134:Drivers/lwgps/src/lwgps/lwgps.c ****             gh->p.stat = STAT_GGA;
 382              		.loc 1 134 0 is_stmt 0 discriminator 1
 383 001c 0622     		movs	r2, #6
 384 001e B849     		ldr	r1, .L81+4
 385 0020 2846     		mov	r0, r5
 386 0022 FFF7FEFF 		bl	strncmp
 387              	.LVL37:
 388 0026 38B3     		cbz	r0, .L37
 138:Drivers/lwgps/src/lwgps/lwgps.c ****             gh->p.stat = STAT_GSA;
 389              		.loc 1 138 0 is_stmt 1
 390 0028 0622     		movs	r2, #6
 391 002a B649     		ldr	r1, .L81+8
 392 002c 2846     		mov	r0, r5
 393 002e FFF7FEFF 		bl	strncmp
 394              	.LVL38:
 395 0032 30B3     		cbz	r0, .L40
 138:Drivers/lwgps/src/lwgps/lwgps.c ****             gh->p.stat = STAT_GSA;
 396              		.loc 1 138 0 is_stmt 0 discriminator 1
 397 0034 0622     		movs	r2, #6
 398 0036 B449     		ldr	r1, .L81+12
 399 0038 2846     		mov	r0, r5
 400 003a FFF7FEFF 		bl	strncmp
 401              	.LVL39:
 402 003e 00B3     		cbz	r0, .L40
 142:Drivers/lwgps/src/lwgps/lwgps.c ****             gh->p.stat = STAT_GSV;
 403              		.loc 1 142 0 is_stmt 1
 404 0040 0622     		movs	r2, #6
 405 0042 B249     		ldr	r1, .L81+16
 406 0044 2846     		mov	r0, r5
 407 0046 FFF7FEFF 		bl	strncmp
 408              	.LVL40:
 409 004a F0B1     		cbz	r0, .L42
 142:Drivers/lwgps/src/lwgps/lwgps.c ****             gh->p.stat = STAT_GSV;
 410              		.loc 1 142 0 is_stmt 0 discriminator 1
 411 004c 0622     		movs	r2, #6
 412 004e B049     		ldr	r1, .L81+20
 413 0050 2846     		mov	r0, r5
 414 0052 FFF7FEFF 		bl	strncmp
 415              	.LVL41:
 416 0056 C0B1     		cbz	r0, .L42
 146:Drivers/lwgps/src/lwgps/lwgps.c ****             gh->p.stat = STAT_RMC;
 417              		.loc 1 146 0 is_stmt 1
 418 0058 0622     		movs	r2, #6
ARM GAS  /tmp/ccQwasSs.s 			page 15


 419 005a AE49     		ldr	r1, .L81+24
 420 005c 2846     		mov	r0, r5
 421 005e FFF7FEFF 		bl	strncmp
 422              	.LVL42:
 423 0062 28B1     		cbz	r0, .L44
 146:Drivers/lwgps/src/lwgps/lwgps.c ****             gh->p.stat = STAT_RMC;
 424              		.loc 1 146 0 is_stmt 0 discriminator 1
 425 0064 0622     		movs	r2, #6
 426 0066 AC49     		ldr	r1, .L81+28
 427 0068 2846     		mov	r0, r5
 428 006a FFF7FEFF 		bl	strncmp
 429              	.LVL43:
 430 006e 80B9     		cbnz	r0, .L45
 431              	.L44:
 147:Drivers/lwgps/src/lwgps/lwgps.c **** #endif /* LWGPS_CFG_STATEMENT_GPRMC */
 432              		.loc 1 147 0 is_stmt 1
 433 0070 0423     		movs	r3, #4
 434 0072 84F87030 		strb	r3, [r4, #112]
 435 0076 02E0     		b	.L39
 436              	.L37:
 135:Drivers/lwgps/src/lwgps/lwgps.c **** #endif /* LWGPS_CFG_STATEMENT_GPGGA */
 437              		.loc 1 135 0
 438 0078 0123     		movs	r3, #1
 439 007a 84F87030 		strb	r3, [r4, #112]
 440              	.LVL44:
 441              	.L39:
 347:Drivers/lwgps/src/lwgps/lwgps.c **** 
 442              		.loc 1 347 0
 443 007e 0120     		movs	r0, #1
 444 0080 38BD     		pop	{r3, r4, r5, pc}
 445              	.LVL45:
 446              	.L40:
 139:Drivers/lwgps/src/lwgps/lwgps.c **** #endif /* LWGPS_CFG_STATEMENT_GPGSA */
 447              		.loc 1 139 0
 448 0082 0223     		movs	r3, #2
 449 0084 84F87030 		strb	r3, [r4, #112]
 450 0088 F9E7     		b	.L39
 451              	.L42:
 143:Drivers/lwgps/src/lwgps/lwgps.c **** #endif /* LWGPS_CFG_STATEMENT_GPGSV */
 452              		.loc 1 143 0
 453 008a 0323     		movs	r3, #3
 454 008c 84F87030 		strb	r3, [r4, #112]
 455 0090 F5E7     		b	.L39
 456              	.L45:
 154:Drivers/lwgps/src/lwgps/lwgps.c ****         }
 457              		.loc 1 154 0
 458 0092 0023     		movs	r3, #0
 459 0094 84F87030 		strb	r3, [r4, #112]
 460 0098 F1E7     		b	.L39
 461              	.LVL46:
 462              	.L36:
 160:Drivers/lwgps/src/lwgps/lwgps.c **** #if LWGPS_CFG_STATEMENT_GPGGA
 463              		.loc 1 160 0
 464 009a 90F87030 		ldrb	r3, [r0, #112]	@ zero_extendqisi2
 465 009e 002B     		cmp	r3, #0
 466 00a0 EDD0     		beq	.L39
 162:Drivers/lwgps/src/lwgps/lwgps.c ****         switch (gh->p.term_num) {
ARM GAS  /tmp/ccQwasSs.s 			page 16


 467              		.loc 1 162 0
 468 00a2 012B     		cmp	r3, #1
 469 00a4 22D0     		beq	.L78
 202:Drivers/lwgps/src/lwgps/lwgps.c ****         switch (gh->p.term_num) {
 470              		.loc 1 202 0
 471 00a6 022B     		cmp	r3, #2
 472 00a8 00F0A180 		beq	.L79
 225:Drivers/lwgps/src/lwgps/lwgps.c ****         switch (gh->p.term_num) {
 473              		.loc 1 225 0
 474 00ac 032B     		cmp	r3, #3
 475 00ae 00F0D080 		beq	.L80
 265:Drivers/lwgps/src/lwgps/lwgps.c ****         switch (gh->p.term_num) {
 476              		.loc 1 265 0
 477 00b2 042B     		cmp	r3, #4
 478 00b4 E3D1     		bne	.L39
 266:Drivers/lwgps/src/lwgps/lwgps.c ****             case 2:                             /* Process valid status */
 479              		.loc 1 266 0
 480 00b6 023D     		subs	r5, r5, #2
 481 00b8 092D     		cmp	r5, #9
 482 00ba E0D8     		bhi	.L39
 483 00bc 01A3     		adr	r3, .L70
 484 00be 53F825F0 		ldr	pc, [r3, r5, lsl #2]
 485 00c2 00BF     		.p2align 2
 486              	.L70:
 487 00c4 75020000 		.word	.L69+1
 488 00c8 7F000000 		.word	.L39+1
 489 00cc 7F000000 		.word	.L39+1
 490 00d0 7F000000 		.word	.L39+1
 491 00d4 7F000000 		.word	.L39+1
 492 00d8 87020000 		.word	.L71+1
 493 00dc 93020000 		.word	.L72+1
 494 00e0 9F020000 		.word	.L73+1
 495 00e4 EF020000 		.word	.L74+1
 496 00e8 1D030000 		.word	.L75+1
 497              		.p2align 1
 498              	.L78:
 163:Drivers/lwgps/src/lwgps/lwgps.c ****             case 1:                             /* Process UTC time */
 499              		.loc 1 163 0
 500 00ec 013D     		subs	r5, r5, #1
 501 00ee 0A2D     		cmp	r5, #10
 502 00f0 C5D8     		bhi	.L39
 503 00f2 01A3     		adr	r3, .L48
 504 00f4 53F825F0 		ldr	pc, [r3, r5, lsl #2]
 505              		.p2align 2
 506              	.L48:
 507 00f8 25010000 		.word	.L47+1
 508 00fc 6F010000 		.word	.L49+1
 509 0100 79010000 		.word	.L50+1
 510 0104 97010000 		.word	.L51+1
 511 0108 A1010000 		.word	.L52+1
 512 010c BF010000 		.word	.L53+1
 513 0110 CB010000 		.word	.L54+1
 514 0114 7F000000 		.word	.L39+1
 515 0118 D7010000 		.word	.L55+1
 516 011c 7F000000 		.word	.L39+1
 517 0120 E3010000 		.word	.L56+1
 518              		.p2align 1
ARM GAS  /tmp/ccQwasSs.s 			page 17


 519              	.L47:
 165:Drivers/lwgps/src/lwgps/lwgps.c ****                 gh->p.data.gga.minutes = 10 * CTN(gh->p.term_str[2]) + CTN(gh->p.term_str[3]);
 520              		.loc 1 165 0
 521 0124 90F87130 		ldrb	r3, [r0, #113]	@ zero_extendqisi2
 522 0128 90F87220 		ldrb	r2, [r0, #114]	@ zero_extendqisi2
 523 012c 303B     		subs	r3, r3, #48
 524 012e 03EB8303 		add	r3, r3, r3, lsl #2
 525 0132 02EB4303 		add	r3, r2, r3, lsl #1
 526 0136 303B     		subs	r3, r3, #48
 527 0138 80F8AA30 		strb	r3, [r0, #170]
 166:Drivers/lwgps/src/lwgps/lwgps.c ****                 gh->p.data.gga.seconds = 10 * CTN(gh->p.term_str[4]) + CTN(gh->p.term_str[5]);
 528              		.loc 1 166 0
 529 013c 90F87330 		ldrb	r3, [r0, #115]	@ zero_extendqisi2
 530 0140 90F87420 		ldrb	r2, [r0, #116]	@ zero_extendqisi2
 531 0144 303B     		subs	r3, r3, #48
 532 0146 03EB8303 		add	r3, r3, r3, lsl #2
 533 014a 02EB4303 		add	r3, r2, r3, lsl #1
 534 014e 303B     		subs	r3, r3, #48
 535 0150 80F8AB30 		strb	r3, [r0, #171]
 167:Drivers/lwgps/src/lwgps/lwgps.c ****                 break;
 536              		.loc 1 167 0
 537 0154 90F87530 		ldrb	r3, [r0, #117]	@ zero_extendqisi2
 538 0158 90F87620 		ldrb	r2, [r0, #118]	@ zero_extendqisi2
 539 015c 303B     		subs	r3, r3, #48
 540 015e 03EB8303 		add	r3, r3, r3, lsl #2
 541 0162 02EB4303 		add	r3, r2, r3, lsl #1
 542 0166 303B     		subs	r3, r3, #48
 543 0168 80F8AC30 		strb	r3, [r0, #172]
 168:Drivers/lwgps/src/lwgps/lwgps.c ****             case 2:                             /* Latitude */
 544              		.loc 1 168 0
 545 016c 87E7     		b	.L39
 546              	.L49:
 170:Drivers/lwgps/src/lwgps/lwgps.c ****                 break;
 547              		.loc 1 170 0
 548 016e FFF7FEFF 		bl	prv_parse_lat_long
 549              	.LVL47:
 550 0172 C4E92201 		strd	r0, [r4, #136]
 171:Drivers/lwgps/src/lwgps/lwgps.c ****             case 3:                             /* Latitude north/south information */
 551              		.loc 1 171 0
 552 0176 82E7     		b	.L39
 553              	.LVL48:
 554              	.L50:
 173:Drivers/lwgps/src/lwgps/lwgps.c ****                     gh->p.data.gga.latitude = -gh->p.data.gga.latitude;
 555              		.loc 1 173 0
 556 0178 90F87130 		ldrb	r3, [r0, #113]	@ zero_extendqisi2
 557 017c 532B     		cmp	r3, #83
 558 017e 02D0     		beq	.L57
 173:Drivers/lwgps/src/lwgps/lwgps.c ****                     gh->p.data.gga.latitude = -gh->p.data.gga.latitude;
 559              		.loc 1 173 0 is_stmt 0 discriminator 1
 560 0180 732B     		cmp	r3, #115
 561 0182 7FF47CAF 		bne	.L39
 562              	.L57:
 174:Drivers/lwgps/src/lwgps/lwgps.c ****                 }
 563              		.loc 1 174 0 is_stmt 1
 564 0186 D4E92201 		ldrd	r0, [r4, #136]
 565              	.LVL49:
 566 018a 0246     		mov	r2, r0
ARM GAS  /tmp/ccQwasSs.s 			page 18


 567 018c 01F10043 		add	r3, r1, #-2147483648
 568 0190 C4E92223 		strd	r2, [r4, #136]
 569 0194 73E7     		b	.L39
 570              	.LVL50:
 571              	.L51:
 178:Drivers/lwgps/src/lwgps/lwgps.c ****                 break;
 572              		.loc 1 178 0
 573 0196 FFF7FEFF 		bl	prv_parse_lat_long
 574              	.LVL51:
 575 019a C4E92401 		strd	r0, [r4, #144]
 179:Drivers/lwgps/src/lwgps/lwgps.c ****             case 5:                             /* Longitude east/west information */
 576              		.loc 1 179 0
 577 019e 6EE7     		b	.L39
 578              	.LVL52:
 579              	.L52:
 181:Drivers/lwgps/src/lwgps/lwgps.c ****                     gh->p.data.gga.longitude = -gh->p.data.gga.longitude;
 580              		.loc 1 181 0
 581 01a0 90F87130 		ldrb	r3, [r0, #113]	@ zero_extendqisi2
 582 01a4 572B     		cmp	r3, #87
 583 01a6 02D0     		beq	.L58
 181:Drivers/lwgps/src/lwgps/lwgps.c ****                     gh->p.data.gga.longitude = -gh->p.data.gga.longitude;
 584              		.loc 1 181 0 is_stmt 0 discriminator 1
 585 01a8 772B     		cmp	r3, #119
 586 01aa 7FF468AF 		bne	.L39
 587              	.L58:
 182:Drivers/lwgps/src/lwgps/lwgps.c ****                 }
 588              		.loc 1 182 0 is_stmt 1
 589 01ae D4E92401 		ldrd	r0, [r4, #144]
 590              	.LVL53:
 591 01b2 0246     		mov	r2, r0
 592 01b4 01F10043 		add	r3, r1, #-2147483648
 593 01b8 C4E92423 		strd	r2, [r4, #144]
 594 01bc 5FE7     		b	.L39
 595              	.LVL54:
 596              	.L53:
 186:Drivers/lwgps/src/lwgps/lwgps.c ****                 break;
 597              		.loc 1 186 0
 598 01be 0021     		movs	r1, #0
 599 01c0 FFF7FEFF 		bl	prv_parse_number
 600              	.LVL55:
 601 01c4 84F8A900 		strb	r0, [r4, #169]
 187:Drivers/lwgps/src/lwgps/lwgps.c ****             case 7:                             /* Satellites in use */
 602              		.loc 1 187 0
 603 01c8 59E7     		b	.L39
 604              	.LVL56:
 605              	.L54:
 189:Drivers/lwgps/src/lwgps/lwgps.c ****                 break;
 606              		.loc 1 189 0
 607 01ca 0021     		movs	r1, #0
 608 01cc FFF7FEFF 		bl	prv_parse_number
 609              	.LVL57:
 610 01d0 84F8A800 		strb	r0, [r4, #168]
 190:Drivers/lwgps/src/lwgps/lwgps.c ****             case 9:                             /* Altitude */
 611              		.loc 1 190 0
 612 01d4 53E7     		b	.L39
 613              	.LVL58:
 614              	.L55:
ARM GAS  /tmp/ccQwasSs.s 			page 19


 192:Drivers/lwgps/src/lwgps/lwgps.c ****                 break;
 615              		.loc 1 192 0
 616 01d6 0021     		movs	r1, #0
 617 01d8 FFF7FEFF 		bl	prv_parse_float_number
 618              	.LVL59:
 619 01dc C4E92601 		strd	r0, [r4, #152]
 193:Drivers/lwgps/src/lwgps/lwgps.c ****             case 11:                            /* Altitude above ellipsoid */
 620              		.loc 1 193 0
 621 01e0 4DE7     		b	.L39
 622              	.LVL60:
 623              	.L56:
 195:Drivers/lwgps/src/lwgps/lwgps.c ****                 break;
 624              		.loc 1 195 0
 625 01e2 0021     		movs	r1, #0
 626 01e4 FFF7FEFF 		bl	prv_parse_float_number
 627              	.LVL61:
 628 01e8 C4E92801 		strd	r0, [r4, #160]
 196:Drivers/lwgps/src/lwgps/lwgps.c ****             default:
 629              		.loc 1 196 0
 630 01ec 47E7     		b	.L39
 631              	.LVL62:
 632              	.L79:
 203:Drivers/lwgps/src/lwgps/lwgps.c ****             case 2:                             /* Process fix mode */
 633              		.loc 1 203 0
 634 01ee AB1E     		subs	r3, r5, #2
 635 01f0 0F2B     		cmp	r3, #15
 636 01f2 21D8     		bhi	.L60
 637 01f4 DFE803F0 		tbb	[pc, r3]
 638              	.L62:
 639 01f8 08       		.byte	(.L61-.L62)/2
 640 01f9 20       		.byte	(.L60-.L62)/2
 641 01fa 20       		.byte	(.L60-.L62)/2
 642 01fb 20       		.byte	(.L60-.L62)/2
 643 01fc 20       		.byte	(.L60-.L62)/2
 644 01fd 20       		.byte	(.L60-.L62)/2
 645 01fe 20       		.byte	(.L60-.L62)/2
 646 01ff 20       		.byte	(.L60-.L62)/2
 647 0200 20       		.byte	(.L60-.L62)/2
 648 0201 20       		.byte	(.L60-.L62)/2
 649 0202 20       		.byte	(.L60-.L62)/2
 650 0203 20       		.byte	(.L60-.L62)/2
 651 0204 20       		.byte	(.L60-.L62)/2
 652 0205 0E       		.byte	(.L63-.L62)/2
 653 0206 14       		.byte	(.L64-.L62)/2
 654 0207 1A       		.byte	(.L65-.L62)/2
 655              		.p2align 1
 656              	.L61:
 205:Drivers/lwgps/src/lwgps/lwgps.c ****                 break;
 657              		.loc 1 205 0
 658 0208 0021     		movs	r1, #0
 659 020a FFF7FEFF 		bl	prv_parse_number
 660              	.LVL63:
 661 020e 84F8A000 		strb	r0, [r4, #160]
 206:Drivers/lwgps/src/lwgps/lwgps.c ****             case 15:                            /* Process PDOP */
 662              		.loc 1 206 0
 663 0212 34E7     		b	.L39
 664              	.LVL64:
ARM GAS  /tmp/ccQwasSs.s 			page 20


 665              	.L63:
 208:Drivers/lwgps/src/lwgps/lwgps.c ****                 break;
 666              		.loc 1 208 0
 667 0214 0021     		movs	r1, #0
 668 0216 FFF7FEFF 		bl	prv_parse_float_number
 669              	.LVL65:
 670 021a C4E92601 		strd	r0, [r4, #152]
 209:Drivers/lwgps/src/lwgps/lwgps.c ****             case 16:                            /* Process HDOP */
 671              		.loc 1 209 0
 672 021e 2EE7     		b	.L39
 673              	.LVL66:
 674              	.L64:
 211:Drivers/lwgps/src/lwgps/lwgps.c ****                 break;
 675              		.loc 1 211 0
 676 0220 0021     		movs	r1, #0
 677 0222 FFF7FEFF 		bl	prv_parse_float_number
 678              	.LVL67:
 679 0226 C4E92201 		strd	r0, [r4, #136]
 212:Drivers/lwgps/src/lwgps/lwgps.c ****             case 17:                            /* Process VDOP */
 680              		.loc 1 212 0
 681 022a 28E7     		b	.L39
 682              	.LVL68:
 683              	.L65:
 214:Drivers/lwgps/src/lwgps/lwgps.c ****                 break;
 684              		.loc 1 214 0
 685 022c 0021     		movs	r1, #0
 686 022e FFF7FEFF 		bl	prv_parse_float_number
 687              	.LVL69:
 688 0232 C4E92401 		strd	r0, [r4, #144]
 215:Drivers/lwgps/src/lwgps/lwgps.c ****             default:
 689              		.loc 1 215 0
 690 0236 22E7     		b	.L39
 691              	.LVL70:
 692              	.L60:
 218:Drivers/lwgps/src/lwgps/lwgps.c ****                     gh->p.data.gsa.satellites_ids[gh->p.term_num - 3] = (uint8_t)prv_parse_number(g
 693              		.loc 1 218 0
 694 0238 EB1E     		subs	r3, r5, #3
 695 023a DBB2     		uxtb	r3, r3
 696 023c 0B2B     		cmp	r3, #11
 697 023e 3FF61EAF 		bhi	.L39
 219:Drivers/lwgps/src/lwgps/lwgps.c ****                 }
 698              		.loc 1 219 0
 699 0242 0021     		movs	r1, #0
 700 0244 FFF7FEFF 		bl	prv_parse_number
 701              	.LVL71:
 702 0248 033D     		subs	r5, r5, #3
 703 024a 2C44     		add	r4, r4, r5
 704              	.LVL72:
 705 024c 84F8A100 		strb	r0, [r4, #161]
 706 0250 15E7     		b	.L39
 707              	.LVL73:
 708              	.L80:
 226:Drivers/lwgps/src/lwgps/lwgps.c ****             case 2:                             /* Current GPGSV statement number */
 709              		.loc 1 226 0
 710 0252 022D     		cmp	r5, #2
 711 0254 08D0     		beq	.L67
 712 0256 032D     		cmp	r5, #3
ARM GAS  /tmp/ccQwasSs.s 			page 21


 713 0258 7FF411AF 		bne	.L39
 231:Drivers/lwgps/src/lwgps/lwgps.c ****                 break;
 714              		.loc 1 231 0
 715 025c 0021     		movs	r1, #0
 716 025e FFF7FEFF 		bl	prv_parse_number
 717              	.LVL74:
 718 0262 84F88800 		strb	r0, [r4, #136]
 232:Drivers/lwgps/src/lwgps/lwgps.c ****             default:
 719              		.loc 1 232 0
 720 0266 0AE7     		b	.L39
 721              	.LVL75:
 722              	.L67:
 228:Drivers/lwgps/src/lwgps/lwgps.c ****                 break;
 723              		.loc 1 228 0
 724 0268 0021     		movs	r1, #0
 725 026a FFF7FEFF 		bl	prv_parse_number
 726              	.LVL76:
 727 026e 84F88900 		strb	r0, [r4, #137]
 229:Drivers/lwgps/src/lwgps/lwgps.c ****             case 3:                             /* Process satellites in view */
 728              		.loc 1 229 0
 729 0272 04E7     		b	.L39
 730              	.LVL77:
 731              	.L69:
 268:Drivers/lwgps/src/lwgps/lwgps.c ****                 break;
 732              		.loc 1 268 0
 733 0274 90F87130 		ldrb	r3, [r0, #113]	@ zero_extendqisi2
 734 0278 412B     		cmp	r3, #65
 735 027a 14BF     		ite	ne
 736 027c 0023     		movne	r3, #0
 737 027e 0123     		moveq	r3, #1
 738 0280 80F88830 		strb	r3, [r0, #136]
 269:Drivers/lwgps/src/lwgps/lwgps.c ****             case 7:                             /* Process ground speed in knots */
 739              		.loc 1 269 0
 740 0284 FBE6     		b	.L39
 741              	.L71:
 271:Drivers/lwgps/src/lwgps/lwgps.c ****                 break;
 742              		.loc 1 271 0
 743 0286 0021     		movs	r1, #0
 744 0288 FFF7FEFF 		bl	prv_parse_float_number
 745              	.LVL78:
 746 028c C4E92401 		strd	r0, [r4, #144]
 272:Drivers/lwgps/src/lwgps/lwgps.c ****             case 8:                             /* Process true ground coarse */
 747              		.loc 1 272 0
 748 0290 F5E6     		b	.L39
 749              	.LVL79:
 750              	.L72:
 274:Drivers/lwgps/src/lwgps/lwgps.c ****                 break;
 751              		.loc 1 274 0
 752 0292 0021     		movs	r1, #0
 753 0294 FFF7FEFF 		bl	prv_parse_float_number
 754              	.LVL80:
 755 0298 C4E92601 		strd	r0, [r4, #152]
 275:Drivers/lwgps/src/lwgps/lwgps.c ****             case 9:                             /* Process date */
 756              		.loc 1 275 0
 757 029c EFE6     		b	.L39
 758              	.LVL81:
 759              	.L73:
ARM GAS  /tmp/ccQwasSs.s 			page 22


 277:Drivers/lwgps/src/lwgps/lwgps.c ****                 gh->p.data.rmc.month = (uint8_t)(10 * CTN(gh->p.term_str[2]) + CTN(gh->p.term_str[3
 760              		.loc 1 277 0
 761 029e 90F87120 		ldrb	r2, [r0, #113]	@ zero_extendqisi2
 762 02a2 90F87230 		ldrb	r3, [r0, #114]	@ zero_extendqisi2
 763 02a6 303A     		subs	r2, r2, #48
 764 02a8 02EB8202 		add	r2, r2, r2, lsl #2
 765 02ac 03EB4203 		add	r3, r3, r2, lsl #1
 766 02b0 DBB2     		uxtb	r3, r3
 767 02b2 303B     		subs	r3, r3, #48
 768 02b4 80F88930 		strb	r3, [r0, #137]
 278:Drivers/lwgps/src/lwgps/lwgps.c ****                 gh->p.data.rmc.year = (uint8_t)(10 * CTN(gh->p.term_str[4]) + CTN(gh->p.term_str[5]
 769              		.loc 1 278 0
 770 02b8 90F87320 		ldrb	r2, [r0, #115]	@ zero_extendqisi2
 771 02bc 90F87430 		ldrb	r3, [r0, #116]	@ zero_extendqisi2
 772 02c0 303A     		subs	r2, r2, #48
 773 02c2 02EB8202 		add	r2, r2, r2, lsl #2
 774 02c6 03EB4203 		add	r3, r3, r2, lsl #1
 775 02ca DBB2     		uxtb	r3, r3
 776 02cc 303B     		subs	r3, r3, #48
 777 02ce 80F88A30 		strb	r3, [r0, #138]
 279:Drivers/lwgps/src/lwgps/lwgps.c ****                 break;
 778              		.loc 1 279 0
 779 02d2 90F87520 		ldrb	r2, [r0, #117]	@ zero_extendqisi2
 780 02d6 90F87630 		ldrb	r3, [r0, #118]	@ zero_extendqisi2
 781 02da 303A     		subs	r2, r2, #48
 782 02dc 02EB8202 		add	r2, r2, r2, lsl #2
 783 02e0 03EB4203 		add	r3, r3, r2, lsl #1
 784 02e4 DBB2     		uxtb	r3, r3
 785 02e6 303B     		subs	r3, r3, #48
 786 02e8 80F88B30 		strb	r3, [r0, #139]
 280:Drivers/lwgps/src/lwgps/lwgps.c ****             case 10:                            /* Process magnetic variation */
 787              		.loc 1 280 0
 788 02ec C7E6     		b	.L39
 789              	.L74:
 282:Drivers/lwgps/src/lwgps/lwgps.c ****                 break;
 790              		.loc 1 282 0
 791 02ee 0021     		movs	r1, #0
 792 02f0 FFF7FEFF 		bl	prv_parse_float_number
 793              	.LVL82:
 794 02f4 C4E92801 		strd	r0, [r4, #160]
 283:Drivers/lwgps/src/lwgps/lwgps.c ****             case 11:                            /* Process magnetic variation east/west */
 795              		.loc 1 283 0
 796 02f8 C1E6     		b	.L39
 797              	.L82:
 798 02fa 00BF     		.align	2
 799              	.L81:
 800 02fc 00000000 		.word	.LC0
 801 0300 08000000 		.word	.LC1
 802 0304 10000000 		.word	.LC2
 803 0308 18000000 		.word	.LC3
 804 030c 20000000 		.word	.LC4
 805 0310 28000000 		.word	.LC5
 806 0314 30000000 		.word	.LC6
 807 0318 38000000 		.word	.LC7
 808              	.LVL83:
 809              	.L75:
 285:Drivers/lwgps/src/lwgps/lwgps.c ****                     gh->p.data.rmc.variation = -gh->p.data.rmc.variation;
ARM GAS  /tmp/ccQwasSs.s 			page 23


 810              		.loc 1 285 0
 811 031c 90F87130 		ldrb	r3, [r0, #113]	@ zero_extendqisi2
 812 0320 572B     		cmp	r3, #87
 813 0322 02D0     		beq	.L76
 285:Drivers/lwgps/src/lwgps/lwgps.c ****                     gh->p.data.rmc.variation = -gh->p.data.rmc.variation;
 814              		.loc 1 285 0 is_stmt 0 discriminator 1
 815 0324 772B     		cmp	r3, #119
 816 0326 7FF4AAAE 		bne	.L39
 817              	.L76:
 286:Drivers/lwgps/src/lwgps/lwgps.c ****                 }
 818              		.loc 1 286 0 is_stmt 1
 819 032a D4E92801 		ldrd	r0, [r4, #160]
 820              	.LVL84:
 821 032e 0246     		mov	r2, r0
 822 0330 01F10043 		add	r3, r1, #-2147483648
 823 0334 C4E92823 		strd	r2, [r4, #160]
 824 0338 A1E6     		b	.L39
 825              		.cfi_endproc
 826              	.LFE3:
 828 033a 00BF     		.section	.text.prv_copy_from_tmp_memory,"ax",%progbits
 829              		.align	1
 830              		.syntax unified
 831              		.thumb
 832              		.thumb_func
 833              		.fpu fpv4-sp-d16
 835              	prv_copy_from_tmp_memory:
 836              	.LFB5:
 360:Drivers/lwgps/src/lwgps/lwgps.c **** 
 361:Drivers/lwgps/src/lwgps/lwgps.c **** /**
 362:Drivers/lwgps/src/lwgps/lwgps.c ****  * \brief           Copy temporary memory to user memory
 363:Drivers/lwgps/src/lwgps/lwgps.c ****  * \param[in]       gh: GPS handle
 364:Drivers/lwgps/src/lwgps/lwgps.c ****  * \return          `1` on success, `0` otherwise
 365:Drivers/lwgps/src/lwgps/lwgps.c ****  */
 366:Drivers/lwgps/src/lwgps/lwgps.c **** static uint8_t
 367:Drivers/lwgps/src/lwgps/lwgps.c **** prv_copy_from_tmp_memory(lwgps_t* gh) {
 837              		.loc 1 367 0
 838              		.cfi_startproc
 839              		@ args = 0, pretend = 0, frame = 0
 840              		@ frame_needed = 0, uses_anonymous_args = 0
 841              		@ link register save eliminated.
 842              	.LVL85:
 368:Drivers/lwgps/src/lwgps/lwgps.c ****     if (0) {
 369:Drivers/lwgps/src/lwgps/lwgps.c **** #if LWGPS_CFG_STATEMENT_GPGGA
 370:Drivers/lwgps/src/lwgps/lwgps.c ****     } else if (gh->p.stat == STAT_GGA) {
 843              		.loc 1 370 0
 844 0000 90F87030 		ldrb	r3, [r0, #112]	@ zero_extendqisi2
 845 0004 012B     		cmp	r3, #1
 846 0006 22D0     		beq	.L92
 371:Drivers/lwgps/src/lwgps/lwgps.c ****         gh->latitude = gh->p.data.gga.latitude;
 372:Drivers/lwgps/src/lwgps/lwgps.c ****         gh->longitude = gh->p.data.gga.longitude;
 373:Drivers/lwgps/src/lwgps/lwgps.c ****         gh->altitude = gh->p.data.gga.altitude;
 374:Drivers/lwgps/src/lwgps/lwgps.c ****         gh->geo_sep = gh->p.data.gga.geo_sep;
 375:Drivers/lwgps/src/lwgps/lwgps.c ****         gh->sats_in_use = gh->p.data.gga.sats_in_use;
 376:Drivers/lwgps/src/lwgps/lwgps.c ****         gh->fix = gh->p.data.gga.fix;
 377:Drivers/lwgps/src/lwgps/lwgps.c ****         gh->hours = gh->p.data.gga.hours;
 378:Drivers/lwgps/src/lwgps/lwgps.c ****         gh->minutes = gh->p.data.gga.minutes;
 379:Drivers/lwgps/src/lwgps/lwgps.c ****         gh->seconds = gh->p.data.gga.seconds;
ARM GAS  /tmp/ccQwasSs.s 			page 24


 380:Drivers/lwgps/src/lwgps/lwgps.c **** #endif /* LWGPS_CFG_STATEMENT_GPGGA */
 381:Drivers/lwgps/src/lwgps/lwgps.c **** #if LWGPS_CFG_STATEMENT_GPGSA
 382:Drivers/lwgps/src/lwgps/lwgps.c ****     } else if (gh->p.stat == STAT_GSA) {
 847              		.loc 1 382 0
 848 0008 022B     		cmp	r3, #2
 849 000a 46D0     		beq	.L93
 383:Drivers/lwgps/src/lwgps/lwgps.c ****         gh->dop_h = gh->p.data.gsa.dop_h;
 384:Drivers/lwgps/src/lwgps/lwgps.c ****         gh->dop_p = gh->p.data.gsa.dop_p;
 385:Drivers/lwgps/src/lwgps/lwgps.c ****         gh->dop_v = gh->p.data.gsa.dop_v;
 386:Drivers/lwgps/src/lwgps/lwgps.c ****         gh->fix_mode = gh->p.data.gsa.fix_mode;
 387:Drivers/lwgps/src/lwgps/lwgps.c ****         memcpy(gh->satellites_ids, gh->p.data.gsa.satellites_ids, sizeof(gh->satellites_ids));
 388:Drivers/lwgps/src/lwgps/lwgps.c **** #endif /* LWGPS_CFG_STATEMENT_GPGSA */
 389:Drivers/lwgps/src/lwgps/lwgps.c **** #if LWGPS_CFG_STATEMENT_GPGSV
 390:Drivers/lwgps/src/lwgps/lwgps.c ****     } else if (gh->p.stat == STAT_GSV) {
 850              		.loc 1 390 0
 851 000c 032B     		cmp	r3, #3
 852 000e 64D0     		beq	.L94
 391:Drivers/lwgps/src/lwgps/lwgps.c ****         gh->sats_in_view = gh->p.data.gsv.sats_in_view;
 392:Drivers/lwgps/src/lwgps/lwgps.c **** #endif /* LWGPS_CFG_STATEMENT_GPGSV */
 393:Drivers/lwgps/src/lwgps/lwgps.c **** #if LWGPS_CFG_STATEMENT_GPRMC
 394:Drivers/lwgps/src/lwgps/lwgps.c ****     } else if (gh->p.stat == STAT_RMC) {
 853              		.loc 1 394 0
 854 0010 042B     		cmp	r3, #4
 855 0012 40D1     		bne	.L89
 395:Drivers/lwgps/src/lwgps/lwgps.c ****         gh->course = gh->p.data.rmc.course;
 856              		.loc 1 395 0
 857 0014 D0E92623 		ldrd	r2, [r0, #152]
 858 0018 C0E91623 		strd	r2, [r0, #88]
 396:Drivers/lwgps/src/lwgps/lwgps.c ****         gh->is_valid = gh->p.data.rmc.is_valid;
 859              		.loc 1 396 0
 860 001c 90F88830 		ldrb	r3, [r0, #136]	@ zero_extendqisi2
 861 0020 80F84E30 		strb	r3, [r0, #78]
 397:Drivers/lwgps/src/lwgps/lwgps.c ****         gh->speed = gh->p.data.rmc.speed;
 862              		.loc 1 397 0
 863 0024 D0E92423 		ldrd	r2, [r0, #144]
 864 0028 C0E91423 		strd	r2, [r0, #80]
 398:Drivers/lwgps/src/lwgps/lwgps.c ****         gh->variation = gh->p.data.rmc.variation;
 865              		.loc 1 398 0
 866 002c D0E92823 		ldrd	r2, [r0, #160]
 867 0030 C0E91823 		strd	r2, [r0, #96]
 399:Drivers/lwgps/src/lwgps/lwgps.c ****         gh->date = gh->p.data.rmc.date;
 868              		.loc 1 399 0
 869 0034 90F88930 		ldrb	r3, [r0, #137]	@ zero_extendqisi2
 870 0038 80F86830 		strb	r3, [r0, #104]
 400:Drivers/lwgps/src/lwgps/lwgps.c ****         gh->month = gh->p.data.rmc.month;
 871              		.loc 1 400 0
 872 003c 90F88A30 		ldrb	r3, [r0, #138]	@ zero_extendqisi2
 873 0040 80F86930 		strb	r3, [r0, #105]
 401:Drivers/lwgps/src/lwgps/lwgps.c ****         gh->year = gh->p.data.rmc.year;
 874              		.loc 1 401 0
 875 0044 90F88B30 		ldrb	r3, [r0, #139]	@ zero_extendqisi2
 876 0048 80F86A30 		strb	r3, [r0, #106]
 877 004c 23E0     		b	.L89
 878              	.L92:
 371:Drivers/lwgps/src/lwgps/lwgps.c ****         gh->longitude = gh->p.data.gga.longitude;
 879              		.loc 1 371 0
 880 004e D0E92223 		ldrd	r2, [r0, #136]
ARM GAS  /tmp/ccQwasSs.s 			page 25


 881 0052 C0E90023 		strd	r2, [r0]
 372:Drivers/lwgps/src/lwgps/lwgps.c ****         gh->altitude = gh->p.data.gga.altitude;
 882              		.loc 1 372 0
 883 0056 D0E92423 		ldrd	r2, [r0, #144]
 884 005a C0E90223 		strd	r2, [r0, #8]
 373:Drivers/lwgps/src/lwgps/lwgps.c ****         gh->geo_sep = gh->p.data.gga.geo_sep;
 885              		.loc 1 373 0
 886 005e D0E92623 		ldrd	r2, [r0, #152]
 887 0062 C0E90423 		strd	r2, [r0, #16]
 374:Drivers/lwgps/src/lwgps/lwgps.c ****         gh->sats_in_use = gh->p.data.gga.sats_in_use;
 888              		.loc 1 374 0
 889 0066 D0E92823 		ldrd	r2, [r0, #160]
 890 006a C0E90623 		strd	r2, [r0, #24]
 375:Drivers/lwgps/src/lwgps/lwgps.c ****         gh->fix = gh->p.data.gga.fix;
 891              		.loc 1 375 0
 892 006e 90F8A830 		ldrb	r3, [r0, #168]	@ zero_extendqisi2
 893 0072 80F82030 		strb	r3, [r0, #32]
 376:Drivers/lwgps/src/lwgps/lwgps.c ****         gh->hours = gh->p.data.gga.hours;
 894              		.loc 1 376 0
 895 0076 90F8A930 		ldrb	r3, [r0, #169]	@ zero_extendqisi2
 896 007a 80F82130 		strb	r3, [r0, #33]
 377:Drivers/lwgps/src/lwgps/lwgps.c ****         gh->minutes = gh->p.data.gga.minutes;
 897              		.loc 1 377 0
 898 007e 90F8AA30 		ldrb	r3, [r0, #170]	@ zero_extendqisi2
 899 0082 80F82230 		strb	r3, [r0, #34]
 378:Drivers/lwgps/src/lwgps/lwgps.c ****         gh->seconds = gh->p.data.gga.seconds;
 900              		.loc 1 378 0
 901 0086 90F8AB30 		ldrb	r3, [r0, #171]	@ zero_extendqisi2
 902 008a 80F82330 		strb	r3, [r0, #35]
 379:Drivers/lwgps/src/lwgps/lwgps.c **** #endif /* LWGPS_CFG_STATEMENT_GPGGA */
 903              		.loc 1 379 0
 904 008e 90F8AC30 		ldrb	r3, [r0, #172]	@ zero_extendqisi2
 905 0092 80F82430 		strb	r3, [r0, #36]
 906              	.L89:
 402:Drivers/lwgps/src/lwgps/lwgps.c **** #endif /* LWGPS_CFG_STATEMENT_GPRMC */
 403:Drivers/lwgps/src/lwgps/lwgps.c **** #if LWGPS_CFG_STATEMENT_PUBX_TIME
 404:Drivers/lwgps/src/lwgps/lwgps.c ****     } else if (gh->p.stat == STAT_UBX_TIME) {
 405:Drivers/lwgps/src/lwgps/lwgps.c ****         gh->hours = gh->p.data.time.hours;
 406:Drivers/lwgps/src/lwgps/lwgps.c ****         gh->minutes = gh->p.data.time.minutes;
 407:Drivers/lwgps/src/lwgps/lwgps.c ****         gh->seconds = gh->p.data.time.seconds;
 408:Drivers/lwgps/src/lwgps/lwgps.c ****         gh->date = gh->p.data.time.date;
 409:Drivers/lwgps/src/lwgps/lwgps.c ****         gh->month = gh->p.data.time.month;
 410:Drivers/lwgps/src/lwgps/lwgps.c ****         gh->year = gh->p.data.time.year;
 411:Drivers/lwgps/src/lwgps/lwgps.c ****         gh->utc_tow = gh->p.data.time.utc_tow;
 412:Drivers/lwgps/src/lwgps/lwgps.c ****         gh->utc_wk = gh->p.data.time.utc_wk;
 413:Drivers/lwgps/src/lwgps/lwgps.c ****         gh->leap_sec = gh->p.data.time.leap_sec;
 414:Drivers/lwgps/src/lwgps/lwgps.c ****         gh->clk_bias = gh->p.data.time.clk_bias;
 415:Drivers/lwgps/src/lwgps/lwgps.c ****         gh->clk_drift = gh->p.data.time.clk_drift;
 416:Drivers/lwgps/src/lwgps/lwgps.c ****         gh->tp_gran = gh->p.data.time.tp_gran;
 417:Drivers/lwgps/src/lwgps/lwgps.c **** #endif /* LWGPS_CFG_STATEMENT_PUBX_TIME */
 418:Drivers/lwgps/src/lwgps/lwgps.c ****     }
 419:Drivers/lwgps/src/lwgps/lwgps.c ****     return 1;
 420:Drivers/lwgps/src/lwgps/lwgps.c **** }
 907              		.loc 1 420 0
 908 0096 0120     		movs	r0, #1
 909              	.LVL86:
 910 0098 7047     		bx	lr
ARM GAS  /tmp/ccQwasSs.s 			page 26


 911              	.LVL87:
 912              	.L93:
 367:Drivers/lwgps/src/lwgps/lwgps.c ****     if (0) {
 913              		.loc 1 367 0
 914 009a 10B4     		push	{r4}
 915              	.LCFI5:
 916              		.cfi_def_cfa_offset 4
 917              		.cfi_offset 4, -4
 383:Drivers/lwgps/src/lwgps/lwgps.c ****         gh->dop_p = gh->p.data.gsa.dop_p;
 918              		.loc 1 383 0
 919 009c D0E92223 		ldrd	r2, [r0, #136]
 920 00a0 C0E90A23 		strd	r2, [r0, #40]
 384:Drivers/lwgps/src/lwgps/lwgps.c ****         gh->dop_v = gh->p.data.gsa.dop_v;
 921              		.loc 1 384 0
 922 00a4 D0E92623 		ldrd	r2, [r0, #152]
 923 00a8 C0E90E23 		strd	r2, [r0, #56]
 385:Drivers/lwgps/src/lwgps/lwgps.c ****         gh->fix_mode = gh->p.data.gsa.fix_mode;
 924              		.loc 1 385 0
 925 00ac D0E92423 		ldrd	r2, [r0, #144]
 926 00b0 C0E90C23 		strd	r2, [r0, #48]
 386:Drivers/lwgps/src/lwgps/lwgps.c ****         memcpy(gh->satellites_ids, gh->p.data.gsa.satellites_ids, sizeof(gh->satellites_ids));
 927              		.loc 1 386 0
 928 00b4 90F8A030 		ldrb	r3, [r0, #160]	@ zero_extendqisi2
 929 00b8 80F84030 		strb	r3, [r0, #64]
 387:Drivers/lwgps/src/lwgps/lwgps.c **** #endif /* LWGPS_CFG_STATEMENT_GPGSA */
 930              		.loc 1 387 0
 931 00bc 0346     		mov	r3, r0
 932 00be 53F8A14F 		ldr	r4, [r3, #161]!	@ unaligned
 933 00c2 5968     		ldr	r1, [r3, #4]	@ unaligned
 934 00c4 9B68     		ldr	r3, [r3, #8]	@ unaligned
 935 00c6 C0F84140 		str	r4, [r0, #65]	@ unaligned
 936 00ca C0F84510 		str	r1, [r0, #69]	@ unaligned
 937 00ce C0F84930 		str	r3, [r0, #73]	@ unaligned
 938              		.loc 1 420 0
 939 00d2 0120     		movs	r0, #1
 940              	.LVL88:
 941 00d4 5DF8044B 		ldr	r4, [sp], #4
 942              	.LCFI6:
 943              		.cfi_restore 4
 944              		.cfi_def_cfa_offset 0
 945 00d8 7047     		bx	lr
 946              	.LVL89:
 947              	.L94:
 391:Drivers/lwgps/src/lwgps/lwgps.c **** #endif /* LWGPS_CFG_STATEMENT_GPGSV */
 948              		.loc 1 391 0
 949 00da 90F88830 		ldrb	r3, [r0, #136]	@ zero_extendqisi2
 950 00de 80F84D30 		strb	r3, [r0, #77]
 951 00e2 D8E7     		b	.L89
 952              		.cfi_endproc
 953              	.LFE5:
 955              		.section	.text.lwgps_init,"ax",%progbits
 956              		.align	1
 957              		.global	lwgps_init
 958              		.syntax unified
 959              		.thumb
 960              		.thumb_func
 961              		.fpu fpv4-sp-d16
ARM GAS  /tmp/ccQwasSs.s 			page 27


 963              	lwgps_init:
 964              	.LFB6:
 421:Drivers/lwgps/src/lwgps/lwgps.c **** 
 422:Drivers/lwgps/src/lwgps/lwgps.c **** /**
 423:Drivers/lwgps/src/lwgps/lwgps.c ****  * \brief           Init GPS handle
 424:Drivers/lwgps/src/lwgps/lwgps.c ****  * \param[in]       gh: GPS handle structure
 425:Drivers/lwgps/src/lwgps/lwgps.c ****  * \return          `1` on success, `0` otherwise
 426:Drivers/lwgps/src/lwgps/lwgps.c ****  */
 427:Drivers/lwgps/src/lwgps/lwgps.c **** uint8_t
 428:Drivers/lwgps/src/lwgps/lwgps.c **** lwgps_init(lwgps_t* gh) {
 965              		.loc 1 428 0
 966              		.cfi_startproc
 967              		@ args = 0, pretend = 0, frame = 0
 968              		@ frame_needed = 0, uses_anonymous_args = 0
 969              	.LVL90:
 970 0000 08B5     		push	{r3, lr}
 971              	.LCFI7:
 972              		.cfi_def_cfa_offset 8
 973              		.cfi_offset 3, -8
 974              		.cfi_offset 14, -4
 429:Drivers/lwgps/src/lwgps/lwgps.c ****     memset(gh, 0x00, sizeof(*gh));              /* Reset structure */
 975              		.loc 1 429 0
 976 0002 B022     		movs	r2, #176
 977 0004 0021     		movs	r1, #0
 978 0006 FFF7FEFF 		bl	memset
 979              	.LVL91:
 430:Drivers/lwgps/src/lwgps/lwgps.c ****     return 1;
 431:Drivers/lwgps/src/lwgps/lwgps.c **** }
 980              		.loc 1 431 0
 981 000a 0120     		movs	r0, #1
 982 000c 08BD     		pop	{r3, pc}
 983              		.cfi_endproc
 984              	.LFE6:
 986              		.section	.text.lwgps_process,"ax",%progbits
 987              		.align	1
 988              		.global	lwgps_process
 989              		.syntax unified
 990              		.thumb
 991              		.thumb_func
 992              		.fpu fpv4-sp-d16
 994              	lwgps_process:
 995              	.LFB7:
 432:Drivers/lwgps/src/lwgps/lwgps.c **** 
 433:Drivers/lwgps/src/lwgps/lwgps.c **** /**
 434:Drivers/lwgps/src/lwgps/lwgps.c ****  * \brief           Process NMEA data from GPS receiver
 435:Drivers/lwgps/src/lwgps/lwgps.c ****  * \param[in]       gh: GPS handle structure
 436:Drivers/lwgps/src/lwgps/lwgps.c ****  * \param[in]       data: Received data
 437:Drivers/lwgps/src/lwgps/lwgps.c ****  * \param[in]       len: Number of bytes to process
 438:Drivers/lwgps/src/lwgps/lwgps.c ****  * \param[in]       evt_fn: Event function to notify application layer.
 439:Drivers/lwgps/src/lwgps/lwgps.c ****  *                      This parameter is available only if \ref LWGPS_CFG_STATUS is enabled
 440:Drivers/lwgps/src/lwgps/lwgps.c ****  * \return          `1` on success, `0` otherwise
 441:Drivers/lwgps/src/lwgps/lwgps.c ****  */
 442:Drivers/lwgps/src/lwgps/lwgps.c **** uint8_t
 443:Drivers/lwgps/src/lwgps/lwgps.c **** #if LWGPS_CFG_STATUS || __DOXYGEN__
 444:Drivers/lwgps/src/lwgps/lwgps.c **** lwgps_process(lwgps_t* gh, const void* data, size_t len, lwgps_process_fn evt_fn) {
 445:Drivers/lwgps/src/lwgps/lwgps.c **** #else /* LWGPS_CFG_STATUS */
 446:Drivers/lwgps/src/lwgps/lwgps.c **** lwgps_process(lwgps_t* gh, const void* data, size_t len) {
ARM GAS  /tmp/ccQwasSs.s 			page 28


 996              		.loc 1 446 0
 997              		.cfi_startproc
 998              		@ args = 0, pretend = 0, frame = 0
 999              		@ frame_needed = 0, uses_anonymous_args = 0
 1000              	.LVL92:
 1001 0000 70B5     		push	{r4, r5, r6, lr}
 1002              	.LCFI8:
 1003              		.cfi_def_cfa_offset 16
 1004              		.cfi_offset 4, -16
 1005              		.cfi_offset 5, -12
 1006              		.cfi_offset 6, -8
 1007              		.cfi_offset 14, -4
 1008 0002 0446     		mov	r4, r0
 1009 0004 0D46     		mov	r5, r1
 1010 0006 1646     		mov	r6, r2
 1011              	.LVL93:
 447:Drivers/lwgps/src/lwgps/lwgps.c **** #endif /* !LWGPS_CFG_STATUS */
 448:Drivers/lwgps/src/lwgps/lwgps.c ****     const uint8_t* d = data;
 449:Drivers/lwgps/src/lwgps/lwgps.c **** 
 450:Drivers/lwgps/src/lwgps/lwgps.c ****     for (; len > 0; ++d, --len) {               /* Process all bytes */
 1012              		.loc 1 450 0
 1013 0008 11E0     		b	.L98
 1014              	.LVL94:
 1015              	.L108:
 451:Drivers/lwgps/src/lwgps/lwgps.c ****         if (*d == '$') {                        /* Check for beginning of NMEA line */
 452:Drivers/lwgps/src/lwgps/lwgps.c ****             memset(&gh->p, 0x00, sizeof(gh->p));/* Reset private memory */
 1016              		.loc 1 452 0
 1017 000a 4022     		movs	r2, #64
 1018 000c 0021     		movs	r1, #0
 1019 000e 04F17000 		add	r0, r4, #112
 1020 0012 FFF7FEFF 		bl	memset
 1021              	.LVL95:
 453:Drivers/lwgps/src/lwgps/lwgps.c ****             TERM_ADD(gh, *d);                   /* Add character to term */
 1022              		.loc 1 453 0
 1023 0016 2A78     		ldrb	r2, [r5]	@ zero_extendqisi2
 1024 0018 84F87120 		strb	r2, [r4, #113]
 1025 001c 0123     		movs	r3, #1
 1026 001e 84F87E30 		strb	r3, [r4, #126]
 1027 0022 2344     		add	r3, r3, r4
 1028 0024 0022     		movs	r2, #0
 1029 0026 83F87120 		strb	r2, [r3, #113]
 1030              	.L100:
 450:Drivers/lwgps/src/lwgps/lwgps.c ****         if (*d == '$') {                        /* Check for beginning of NMEA line */
 1031              		.loc 1 450 0
 1032 002a 0135     		adds	r5, r5, #1
 1033              	.LVL96:
 1034 002c 013E     		subs	r6, r6, #1
 1035              	.LVL97:
 1036              	.L98:
 450:Drivers/lwgps/src/lwgps/lwgps.c ****         if (*d == '$') {                        /* Check for beginning of NMEA line */
 1037              		.loc 1 450 0 is_stmt 0 discriminator 1
 1038 002e 002E     		cmp	r6, #0
 1039 0030 4FD0     		beq	.L107
 451:Drivers/lwgps/src/lwgps/lwgps.c ****         if (*d == '$') {                        /* Check for beginning of NMEA line */
 1040              		.loc 1 451 0 is_stmt 1
 1041 0032 2B78     		ldrb	r3, [r5]	@ zero_extendqisi2
 1042 0034 242B     		cmp	r3, #36
ARM GAS  /tmp/ccQwasSs.s 			page 29


 1043 0036 E8D0     		beq	.L108
 454:Drivers/lwgps/src/lwgps/lwgps.c ****         } else if (*d == ',') {                 /* Term separator character */
 1044              		.loc 1 454 0
 1045 0038 2C2B     		cmp	r3, #44
 1046 003a 1CD0     		beq	.L109
 455:Drivers/lwgps/src/lwgps/lwgps.c ****             prv_parse_term(gh);                 /* Parse term we have currently in memory */
 456:Drivers/lwgps/src/lwgps/lwgps.c ****             CRC_ADD(gh, *d);                    /* Add character to CRC computation */
 457:Drivers/lwgps/src/lwgps/lwgps.c ****             TERM_NEXT(gh);                      /* Start with next term */
 458:Drivers/lwgps/src/lwgps/lwgps.c ****         } else if (*d == '*') {                 /* Start indicates end of data for CRC computation 
 1047              		.loc 1 458 0
 1048 003c 2A2B     		cmp	r3, #42
 1049 003e 2ED0     		beq	.L110
 459:Drivers/lwgps/src/lwgps/lwgps.c ****             prv_parse_term(gh);                 /* Parse term we have currently in memory */
 460:Drivers/lwgps/src/lwgps/lwgps.c ****             gh->p.star = 1;                     /* STAR detected */
 461:Drivers/lwgps/src/lwgps/lwgps.c ****             TERM_NEXT(gh);                      /* Start with next term */
 462:Drivers/lwgps/src/lwgps/lwgps.c ****         } else if (*d == '\r') {
 1050              		.loc 1 462 0
 1051 0040 0D2B     		cmp	r3, #13
 1052 0042 3DD0     		beq	.L111
 463:Drivers/lwgps/src/lwgps/lwgps.c ****             if (prv_check_crc(gh)) {            /* Check for CRC result */
 464:Drivers/lwgps/src/lwgps/lwgps.c ****                 /* CRC is OK, in theory we can copy data from statements to user data */
 465:Drivers/lwgps/src/lwgps/lwgps.c ****                 prv_copy_from_tmp_memory(gh);   /* Copy memory from temporary to user memory */
 466:Drivers/lwgps/src/lwgps/lwgps.c **** #if LWGPS_CFG_STATUS
 467:Drivers/lwgps/src/lwgps/lwgps.c ****                 if (evt_fn != NULL) {
 468:Drivers/lwgps/src/lwgps/lwgps.c ****                     evt_fn(gh->p.stat);
 469:Drivers/lwgps/src/lwgps/lwgps.c ****                 }
 470:Drivers/lwgps/src/lwgps/lwgps.c ****             } else if (evt_fn != NULL) {
 471:Drivers/lwgps/src/lwgps/lwgps.c ****                 evt_fn(STAT_CHECKSUM_FAIL);
 472:Drivers/lwgps/src/lwgps/lwgps.c **** #endif /* LWGPS_CFG_STATUS */
 473:Drivers/lwgps/src/lwgps/lwgps.c ****             }
 474:Drivers/lwgps/src/lwgps/lwgps.c ****         } else {
 475:Drivers/lwgps/src/lwgps/lwgps.c ****             if (!gh->p.star) {                  /* Add to CRC only if star not yet detected */
 1053              		.loc 1 475 0
 1054 0044 94F88020 		ldrb	r2, [r4, #128]	@ zero_extendqisi2
 1055 0048 22B9     		cbnz	r2, .L104
 476:Drivers/lwgps/src/lwgps/lwgps.c ****                 CRC_ADD(gh, *d);                /* Add to CRC */
 1056              		.loc 1 476 0
 1057 004a 94F88120 		ldrb	r2, [r4, #129]	@ zero_extendqisi2
 1058 004e 5340     		eors	r3, r3, r2
 1059 0050 84F88130 		strb	r3, [r4, #129]
 1060              	.L104:
 477:Drivers/lwgps/src/lwgps/lwgps.c ****             }
 478:Drivers/lwgps/src/lwgps/lwgps.c ****             TERM_ADD(gh, *d);                   /* Add character to term */
 1061              		.loc 1 478 0
 1062 0054 94F87E30 		ldrb	r3, [r4, #126]	@ zero_extendqisi2
 1063 0058 0B2B     		cmp	r3, #11
 1064 005a E6D8     		bhi	.L100
 1065              		.loc 1 478 0 is_stmt 0 discriminator 1
 1066 005c 2978     		ldrb	r1, [r5]	@ zero_extendqisi2
 1067 005e E218     		adds	r2, r4, r3
 1068 0060 82F87110 		strb	r1, [r2, #113]
 1069 0064 0133     		adds	r3, r3, #1
 1070 0066 DBB2     		uxtb	r3, r3
 1071 0068 84F87E30 		strb	r3, [r4, #126]
 1072 006c 2344     		add	r3, r3, r4
 1073 006e 0022     		movs	r2, #0
 1074 0070 83F87120 		strb	r2, [r3, #113]
ARM GAS  /tmp/ccQwasSs.s 			page 30


 1075 0074 D9E7     		b	.L100
 1076              	.L109:
 455:Drivers/lwgps/src/lwgps/lwgps.c ****             CRC_ADD(gh, *d);                    /* Add character to CRC computation */
 1077              		.loc 1 455 0 is_stmt 1
 1078 0076 2046     		mov	r0, r4
 1079 0078 FFF7FEFF 		bl	prv_parse_term
 1080              	.LVL98:
 456:Drivers/lwgps/src/lwgps/lwgps.c ****             TERM_NEXT(gh);                      /* Start with next term */
 1081              		.loc 1 456 0
 1082 007c 2B78     		ldrb	r3, [r5]	@ zero_extendqisi2
 1083 007e 94F88120 		ldrb	r2, [r4, #129]	@ zero_extendqisi2
 1084 0082 5340     		eors	r3, r3, r2
 1085 0084 84F88130 		strb	r3, [r4, #129]
 457:Drivers/lwgps/src/lwgps/lwgps.c ****         } else if (*d == '*') {                 /* Start indicates end of data for CRC computation 
 1086              		.loc 1 457 0
 1087 0088 0023     		movs	r3, #0
 1088 008a 84F87E30 		strb	r3, [r4, #126]
 1089 008e 84F87130 		strb	r3, [r4, #113]
 1090 0092 94F87F30 		ldrb	r3, [r4, #127]	@ zero_extendqisi2
 1091 0096 0133     		adds	r3, r3, #1
 1092 0098 84F87F30 		strb	r3, [r4, #127]
 1093 009c C5E7     		b	.L100
 1094              	.L110:
 459:Drivers/lwgps/src/lwgps/lwgps.c ****             gh->p.star = 1;                     /* STAR detected */
 1095              		.loc 1 459 0
 1096 009e 2046     		mov	r0, r4
 1097 00a0 FFF7FEFF 		bl	prv_parse_term
 1098              	.LVL99:
 460:Drivers/lwgps/src/lwgps/lwgps.c ****             TERM_NEXT(gh);                      /* Start with next term */
 1099              		.loc 1 460 0
 1100 00a4 0123     		movs	r3, #1
 1101 00a6 84F88030 		strb	r3, [r4, #128]
 461:Drivers/lwgps/src/lwgps/lwgps.c ****         } else if (*d == '\r') {
 1102              		.loc 1 461 0
 1103 00aa 0023     		movs	r3, #0
 1104 00ac 84F87E30 		strb	r3, [r4, #126]
 1105 00b0 84F87130 		strb	r3, [r4, #113]
 1106 00b4 94F87F30 		ldrb	r3, [r4, #127]	@ zero_extendqisi2
 1107 00b8 0133     		adds	r3, r3, #1
 1108 00ba 84F87F30 		strb	r3, [r4, #127]
 1109 00be B4E7     		b	.L100
 1110              	.L111:
 463:Drivers/lwgps/src/lwgps/lwgps.c ****                 /* CRC is OK, in theory we can copy data from statements to user data */
 1111              		.loc 1 463 0
 1112 00c0 2046     		mov	r0, r4
 1113 00c2 FFF7FEFF 		bl	prv_check_crc
 1114              	.LVL100:
 1115 00c6 0028     		cmp	r0, #0
 1116 00c8 AFD0     		beq	.L100
 465:Drivers/lwgps/src/lwgps/lwgps.c **** #if LWGPS_CFG_STATUS
 1117              		.loc 1 465 0
 1118 00ca 2046     		mov	r0, r4
 1119 00cc FFF7FEFF 		bl	prv_copy_from_tmp_memory
 1120              	.LVL101:
 1121 00d0 ABE7     		b	.L100
 1122              	.L107:
 479:Drivers/lwgps/src/lwgps/lwgps.c ****         }
ARM GAS  /tmp/ccQwasSs.s 			page 31


 480:Drivers/lwgps/src/lwgps/lwgps.c ****     }
 481:Drivers/lwgps/src/lwgps/lwgps.c ****     return 1;
 482:Drivers/lwgps/src/lwgps/lwgps.c **** }
 1123              		.loc 1 482 0
 1124 00d2 0120     		movs	r0, #1
 1125 00d4 70BD     		pop	{r4, r5, r6, pc}
 1126              		.cfi_endproc
 1127              	.LFE7:
 1129              		.global	__aeabi_dcmplt
 1130              		.section	.text.lwgps_distance_bearing,"ax",%progbits
 1131              		.align	1
 1132              		.global	lwgps_distance_bearing
 1133              		.syntax unified
 1134              		.thumb
 1135              		.thumb_func
 1136              		.fpu fpv4-sp-d16
 1138              	lwgps_distance_bearing:
 1139              	.LFB8:
 483:Drivers/lwgps/src/lwgps/lwgps.c **** 
 484:Drivers/lwgps/src/lwgps/lwgps.c **** /**
 485:Drivers/lwgps/src/lwgps/lwgps.c ****  * \brief           Calculate distance and bearing between `2` latitude and longitude coordinates
 486:Drivers/lwgps/src/lwgps/lwgps.c ****  * \param[in]       las: Latitude start coordinate, in units of degrees
 487:Drivers/lwgps/src/lwgps/lwgps.c ****  * \param[in]       los: Longitude start coordinate, in units of degrees
 488:Drivers/lwgps/src/lwgps/lwgps.c ****  * \param[in]       lae: Latitude end coordinate, in units of degrees
 489:Drivers/lwgps/src/lwgps/lwgps.c ****  * \param[in]       loe: Longitude end coordinate, in units of degrees
 490:Drivers/lwgps/src/lwgps/lwgps.c ****  * \param[out]      d: Pointer to output distance in units of meters
 491:Drivers/lwgps/src/lwgps/lwgps.c ****  * \param[out]      b: Pointer to output bearing between start and end coordinate in relation to no
 492:Drivers/lwgps/src/lwgps/lwgps.c ****  * \return          `1` on success, `0` otherwise
 493:Drivers/lwgps/src/lwgps/lwgps.c ****  */
 494:Drivers/lwgps/src/lwgps/lwgps.c **** uint8_t
 495:Drivers/lwgps/src/lwgps/lwgps.c **** lwgps_distance_bearing(lwgps_float_t las, lwgps_float_t los, lwgps_float_t lae, lwgps_float_t loe, 
 1140              		.loc 1 495 0
 1141              		.cfi_startproc
 1142              		@ args = 0, pretend = 0, frame = 24
 1143              		@ frame_needed = 0, uses_anonymous_args = 0
 1144              	.LVL102:
 1145 0000 2DE9F04F 		push	{r4, r5, r6, r7, r8, r9, r10, fp, lr}
 1146              	.LCFI9:
 1147              		.cfi_def_cfa_offset 36
 1148              		.cfi_offset 4, -36
 1149              		.cfi_offset 5, -32
 1150              		.cfi_offset 6, -28
 1151              		.cfi_offset 7, -24
 1152              		.cfi_offset 8, -20
 1153              		.cfi_offset 9, -16
 1154              		.cfi_offset 10, -12
 1155              		.cfi_offset 11, -8
 1156              		.cfi_offset 14, -4
 1157 0004 2DED068B 		vpush.64	{d8, d9, d10}
 1158              	.LCFI10:
 1159              		.cfi_def_cfa_offset 60
 1160              		.cfi_offset 80, -60
 1161              		.cfi_offset 81, -56
 1162              		.cfi_offset 82, -52
 1163              		.cfi_offset 83, -48
 1164              		.cfi_offset 84, -44
 1165              		.cfi_offset 85, -40
ARM GAS  /tmp/ccQwasSs.s 			page 32


 1166 0008 87B0     		sub	sp, sp, #28
 1167              	.LCFI11:
 1168              		.cfi_def_cfa_offset 88
 496:Drivers/lwgps/src/lwgps/lwgps.c ****     lwgps_float_t df, dfi, a;
 497:Drivers/lwgps/src/lwgps/lwgps.c **** 
 498:Drivers/lwgps/src/lwgps/lwgps.c ****     if (d == NULL && b == NULL) {
 1169              		.loc 1 498 0
 1170 000a 8346     		mov	fp, r0
 1171 000c 0028     		cmp	r0, #0
 1172 000e 00F02D81 		beq	.L123
 1173              	.L113:
 1174 0012 8A46     		mov	r10, r1
 1175 0014 8DED003B 		vstr.64	d3, [sp]
 1176 0018 57EC126B 		vmov	r6, r7, d2
 1177 001c 59EC118B 		vmov	r8, r9, d1
 1178 0020 55EC104B 		vmov	r4, r5, d0
 499:Drivers/lwgps/src/lwgps/lwgps.c ****         return 0;
 500:Drivers/lwgps/src/lwgps/lwgps.c ****     }
 501:Drivers/lwgps/src/lwgps/lwgps.c **** 
 502:Drivers/lwgps/src/lwgps/lwgps.c ****     /* Convert degrees to radians */
 503:Drivers/lwgps/src/lwgps/lwgps.c ****     df = D2R(lae - las);
 1179              		.loc 1 503 0
 1180 0024 10EE102A 		vmov	r2, s0	@ int
 1181 0028 2B46     		mov	r3, r5
 1182 002a 12EE100A 		vmov	r0, s4	@ int
 1183              	.LVL103:
 1184 002e 3946     		mov	r1, r7
 1185              	.LVL104:
 1186 0030 FFF7FEFF 		bl	__aeabi_dsub
 1187              	.LVL105:
 1188 0034 A0A3     		adr	r3, .L125+32
 1189 0036 D3E90023 		ldrd	r2, [r3]
 1190 003a FFF7FEFF 		bl	__aeabi_dmul
 1191              	.LVL106:
 1192 003e CDE90201 		strd	r0, [sp, #8]
 1193              	.LVL107:
 504:Drivers/lwgps/src/lwgps/lwgps.c ****     dfi = D2R(loe - los);
 1194              		.loc 1 504 0
 1195 0042 4246     		mov	r2, r8
 1196 0044 4B46     		mov	r3, r9
 1197 0046 DDE90001 		ldrd	r0, [sp]
 1198              	.LVL108:
 1199 004a FFF7FEFF 		bl	__aeabi_dsub
 1200              	.LVL109:
 1201 004e 9AA3     		adr	r3, .L125+32
 1202 0050 D3E90023 		ldrd	r2, [r3]
 1203 0054 FFF7FEFF 		bl	__aeabi_dmul
 1204              	.LVL110:
 1205 0058 CDE90401 		strd	r0, [sp, #16]
 1206              	.LVL111:
 505:Drivers/lwgps/src/lwgps/lwgps.c ****     las = D2R(las);
 1207              		.loc 1 505 0
 1208 005c 96A3     		adr	r3, .L125+32
 1209 005e D3E90023 		ldrd	r2, [r3]
 1210 0062 2046     		mov	r0, r4
 1211              	.LVL112:
 1212 0064 2946     		mov	r1, r5
ARM GAS  /tmp/ccQwasSs.s 			page 33


 1213 0066 FFF7FEFF 		bl	__aeabi_dmul
 1214              	.LVL113:
 1215 006a 41EC180B 		vmov	d8, r0, r1
 1216              	.LVL114:
 506:Drivers/lwgps/src/lwgps/lwgps.c ****     los = D2R(los);
 1217              		.loc 1 506 0
 1218 006e 92A3     		adr	r3, .L125+32
 1219 0070 D3E90023 		ldrd	r2, [r3]
 1220 0074 4046     		mov	r0, r8
 1221              	.LVL115:
 1222 0076 4946     		mov	r1, r9
 1223 0078 FFF7FEFF 		bl	__aeabi_dmul
 1224              	.LVL116:
 1225 007c 8046     		mov	r8, r0
 1226              	.LVL117:
 1227 007e 8946     		mov	r9, r1
 1228              	.LVL118:
 507:Drivers/lwgps/src/lwgps/lwgps.c ****     lae = D2R(lae);
 1229              		.loc 1 507 0
 1230 0080 8DA3     		adr	r3, .L125+32
 1231 0082 D3E90023 		ldrd	r2, [r3]
 1232 0086 3046     		mov	r0, r6
 1233 0088 3946     		mov	r1, r7
 1234 008a FFF7FEFF 		bl	__aeabi_dmul
 1235              	.LVL119:
 1236 008e 41EC190B 		vmov	d9, r0, r1
 1237              	.LVL120:
 508:Drivers/lwgps/src/lwgps/lwgps.c ****     loe = D2R(loe);
 1238              		.loc 1 508 0
 1239 0092 89A3     		adr	r3, .L125+32
 1240 0094 D3E90023 		ldrd	r2, [r3]
 1241 0098 DDE90001 		ldrd	r0, [sp]
 1242              	.LVL121:
 1243 009c FFF7FEFF 		bl	__aeabi_dmul
 1244              	.LVL122:
 1245 00a0 0446     		mov	r4, r0
 1246 00a2 0D46     		mov	r5, r1
 1247              	.LVL123:
 509:Drivers/lwgps/src/lwgps/lwgps.c **** 
 510:Drivers/lwgps/src/lwgps/lwgps.c ****     /*
 511:Drivers/lwgps/src/lwgps/lwgps.c ****      * Calculate distance
 512:Drivers/lwgps/src/lwgps/lwgps.c ****      *
 513:Drivers/lwgps/src/lwgps/lwgps.c ****      * Calculated distance is absolute value in meters between 2 points on earth.
 514:Drivers/lwgps/src/lwgps/lwgps.c ****      */
 515:Drivers/lwgps/src/lwgps/lwgps.c ****     if (d != NULL) {
 1248              		.loc 1 515 0
 1249 00a4 BBF1000F 		cmp	fp, #0
 1250 00a8 70D0     		beq	.L115
 516:Drivers/lwgps/src/lwgps/lwgps.c ****         /*
 517:Drivers/lwgps/src/lwgps/lwgps.c ****          * a = sin(df / 2)^2 + cos(las) * cos(lae) * sin(dfi / 2)^2
 518:Drivers/lwgps/src/lwgps/lwgps.c ****          * *d = RADIUS * 2 * atan(sqrt(a) / sqrt(1 - a)) * 1000 (for meters)
 519:Drivers/lwgps/src/lwgps/lwgps.c ****          */
 520:Drivers/lwgps/src/lwgps/lwgps.c **** #if LWGPS_CFG_DOUBLE
 521:Drivers/lwgps/src/lwgps/lwgps.c ****         a = FLT(sin(df * 0.5) * sin(df * 0.5) + sin(dfi * 0.5) * sin(dfi * 0.5) * cos(las) * cos(la
 1251              		.loc 1 521 0
 1252 00aa 0022     		movs	r2, #0
 1253 00ac 7E4B     		ldr	r3, .L125+16
ARM GAS  /tmp/ccQwasSs.s 			page 34


 1254 00ae DDE90201 		ldrd	r0, [sp, #8]
 1255 00b2 FFF7FEFF 		bl	__aeabi_dmul
 1256              	.LVL124:
 1257 00b6 41EC100B 		vmov	d0, r0, r1
 1258 00ba FFF7FEFF 		bl	sin
 1259              	.LVL125:
 1260 00be 51EC100B 		vmov	r0, r1, d0
 1261 00c2 10EE102A 		vmov	r2, s0	@ int
 1262 00c6 0B46     		mov	r3, r1
 1263 00c8 FFF7FEFF 		bl	__aeabi_dmul
 1264              	.LVL126:
 1265 00cc 0646     		mov	r6, r0
 1266 00ce 0F46     		mov	r7, r1
 1267 00d0 0022     		movs	r2, #0
 1268 00d2 754B     		ldr	r3, .L125+16
 1269 00d4 DDE90401 		ldrd	r0, [sp, #16]
 1270 00d8 FFF7FEFF 		bl	__aeabi_dmul
 1271              	.LVL127:
 1272 00dc 41EC100B 		vmov	d0, r0, r1
 1273 00e0 FFF7FEFF 		bl	sin
 1274              	.LVL128:
 1275 00e4 51EC100B 		vmov	r0, r1, d0
 1276 00e8 10EE102A 		vmov	r2, s0	@ int
 1277 00ec 0B46     		mov	r3, r1
 1278 00ee FFF7FEFF 		bl	__aeabi_dmul
 1279              	.LVL129:
 1280 00f2 CDE90001 		strd	r0, [sp]
 1281 00f6 B0EE480A 		vmov.f32	s0, s16
 1282 00fa F0EE680A 		vmov.f32	s1, s17
 1283 00fe FFF7FEFF 		bl	cos
 1284              	.LVL130:
 1285 0102 53EC102B 		vmov	r2, r3, d0
 1286 0106 DDE90001 		ldrd	r0, [sp]
 1287 010a FFF7FEFF 		bl	__aeabi_dmul
 1288              	.LVL131:
 1289 010e CDE90001 		strd	r0, [sp]
 1290 0112 B0EE490A 		vmov.f32	s0, s18
 1291 0116 F0EE690A 		vmov.f32	s1, s19
 1292 011a FFF7FEFF 		bl	cos
 1293              	.LVL132:
 1294 011e 53EC102B 		vmov	r2, r3, d0
 1295 0122 DDE90001 		ldrd	r0, [sp]
 1296 0126 FFF7FEFF 		bl	__aeabi_dmul
 1297              	.LVL133:
 1298 012a 0246     		mov	r2, r0
 1299 012c 0B46     		mov	r3, r1
 1300 012e 3046     		mov	r0, r6
 1301 0130 3946     		mov	r1, r7
 1302 0132 FFF7FEFF 		bl	__aeabi_dadd
 1303              	.LVL134:
 1304 0136 0646     		mov	r6, r0
 1305 0138 0F46     		mov	r7, r1
 1306              	.LVL135:
 522:Drivers/lwgps/src/lwgps/lwgps.c ****         *d = FLT(EARTH_RADIUS * 2.0 * atan2(sqrt(a), sqrt(1.0 - a)) * 1000.0);
 1307              		.loc 1 522 0
 1308 013a 47EC106B 		vmov	d0, r6, r7
 1309 013e FFF7FEFF 		bl	sqrt
ARM GAS  /tmp/ccQwasSs.s 			page 35


 1310              	.LVL136:
 1311 0142 B0EE40AA 		vmov.f32	s20, s0
 1312 0146 F0EE60AA 		vmov.f32	s21, s1
 1313 014a 3246     		mov	r2, r6
 1314 014c 3B46     		mov	r3, r7
 1315 014e 0020     		movs	r0, #0
 1316 0150 5649     		ldr	r1, .L125+20
 1317 0152 FFF7FEFF 		bl	__aeabi_dsub
 1318              	.LVL137:
 1319 0156 41EC100B 		vmov	d0, r0, r1
 1320 015a FFF7FEFF 		bl	sqrt
 1321              	.LVL138:
 1322 015e B0EE401A 		vmov.f32	s2, s0
 1323 0162 F0EE601A 		vmov.f32	s3, s1
 1324 0166 B0EE4A0A 		vmov.f32	s0, s20
 1325 016a F0EE6A0A 		vmov.f32	s1, s21
 1326 016e FFF7FEFF 		bl	atan2
 1327              	.LVL139:
 1328 0172 49A3     		adr	r3, .L125
 1329 0174 D3E90023 		ldrd	r2, [r3]
 1330 0178 51EC100B 		vmov	r0, r1, d0
 1331 017c FFF7FEFF 		bl	__aeabi_dmul
 1332              	.LVL140:
 1333 0180 0022     		movs	r2, #0
 1334 0182 4B4B     		ldr	r3, .L125+24
 1335 0184 FFF7FEFF 		bl	__aeabi_dmul
 1336              	.LVL141:
 1337 0188 CBE90001 		strd	r0, [fp]
 1338              	.LVL142:
 1339              	.L115:
 523:Drivers/lwgps/src/lwgps/lwgps.c **** #else /* LWGPS_CFG_DOUBLE */
 524:Drivers/lwgps/src/lwgps/lwgps.c ****         a = FLT(sinf(df * 0.5f) * sinf(df * 0.5f) + sinf(dfi * 0.5f) * sinf(dfi * 0.5f) * cosf(las)
 525:Drivers/lwgps/src/lwgps/lwgps.c ****         *d = FLT(EARTH_RADIUS * 2.0f * atan2f(sqrtf(a), sqrtf(1.0f - a)) * 1000.0f);
 526:Drivers/lwgps/src/lwgps/lwgps.c **** #endif /* !LWGPS_CFG_DOUBLE */
 527:Drivers/lwgps/src/lwgps/lwgps.c ****     }
 528:Drivers/lwgps/src/lwgps/lwgps.c **** 
 529:Drivers/lwgps/src/lwgps/lwgps.c ****     /*
 530:Drivers/lwgps/src/lwgps/lwgps.c ****      * Calculate bearing
 531:Drivers/lwgps/src/lwgps/lwgps.c ****      *
 532:Drivers/lwgps/src/lwgps/lwgps.c ****      * Bearing is calculated from point 1 to point 2.
 533:Drivers/lwgps/src/lwgps/lwgps.c ****      * Result will tell us in which direction (according to north) we should move,
 534:Drivers/lwgps/src/lwgps/lwgps.c ****      * to reach point 2.
 535:Drivers/lwgps/src/lwgps/lwgps.c ****      *
 536:Drivers/lwgps/src/lwgps/lwgps.c ****      * Example:
 537:Drivers/lwgps/src/lwgps/lwgps.c ****      *      Bearing is 0 => move to north
 538:Drivers/lwgps/src/lwgps/lwgps.c ****      *      Bearing is 90 => move to east
 539:Drivers/lwgps/src/lwgps/lwgps.c ****      *      Bearing is 180 => move to south
 540:Drivers/lwgps/src/lwgps/lwgps.c ****      *      Bearing is 270 => move to west
 541:Drivers/lwgps/src/lwgps/lwgps.c ****      */
 542:Drivers/lwgps/src/lwgps/lwgps.c ****     if (b != NULL) {
 1340              		.loc 1 542 0
 1341 018c BAF1000F 		cmp	r10, #0
 1342 0190 7BD0     		beq	.L118
 543:Drivers/lwgps/src/lwgps/lwgps.c **** #if LWGPS_CFG_DOUBLE
 544:Drivers/lwgps/src/lwgps/lwgps.c ****         df = FLT(sin(loe - los) * cos(lae));
 1343              		.loc 1 544 0
 1344 0192 4246     		mov	r2, r8
ARM GAS  /tmp/ccQwasSs.s 			page 36


 1345 0194 4B46     		mov	r3, r9
 1346 0196 2046     		mov	r0, r4
 1347 0198 2946     		mov	r1, r5
 1348 019a FFF7FEFF 		bl	__aeabi_dsub
 1349              	.LVL143:
 1350 019e 41EC1A0B 		vmov	d10, r0, r1
 1351 01a2 41EC100B 		vmov	d0, r0, r1
 1352 01a6 FFF7FEFF 		bl	sin
 1353              	.LVL144:
 1354 01aa 55EC104B 		vmov	r4, r5, d0
 1355              	.LVL145:
 1356 01ae B0EE490A 		vmov.f32	s0, s18
 1357 01b2 F0EE690A 		vmov.f32	s1, s19
 1358 01b6 FFF7FEFF 		bl	cos
 1359              	.LVL146:
 1360 01ba 59EC108B 		vmov	r8, r9, d0
 1361              	.LVL147:
 1362 01be 10EE102A 		vmov	r2, s0	@ int
 1363 01c2 4B46     		mov	r3, r9
 1364 01c4 2046     		mov	r0, r4
 1365 01c6 2946     		mov	r1, r5
 1366 01c8 FFF7FEFF 		bl	__aeabi_dmul
 1367              	.LVL148:
 1368 01cc 0446     		mov	r4, r0
 1369 01ce 0D46     		mov	r5, r1
 1370              	.LVL149:
 545:Drivers/lwgps/src/lwgps/lwgps.c ****         dfi = FLT(cos(las) * sin(lae) - sin(las) * cos(lae) * cos(loe - los));
 1371              		.loc 1 545 0
 1372 01d0 B0EE480A 		vmov.f32	s0, s16
 1373 01d4 F0EE680A 		vmov.f32	s1, s17
 1374 01d8 FFF7FEFF 		bl	cos
 1375              	.LVL150:
 1376 01dc 57EC106B 		vmov	r6, r7, d0
 1377 01e0 B0EE490A 		vmov.f32	s0, s18
 1378 01e4 F0EE690A 		vmov.f32	s1, s19
 1379 01e8 FFF7FEFF 		bl	sin
 1380              	.LVL151:
 1381 01ec 53EC102B 		vmov	r2, r3, d0
 1382 01f0 3046     		mov	r0, r6
 1383 01f2 3946     		mov	r1, r7
 1384 01f4 FFF7FEFF 		bl	__aeabi_dmul
 1385              	.LVL152:
 1386 01f8 0646     		mov	r6, r0
 1387 01fa 0F46     		mov	r7, r1
 1388 01fc B0EE480A 		vmov.f32	s0, s16
 1389 0200 F0EE680A 		vmov.f32	s1, s17
 1390 0204 FFF7FEFF 		bl	sin
 1391              	.LVL153:
 1392 0208 53EC102B 		vmov	r2, r3, d0
 1393 020c 4046     		mov	r0, r8
 1394 020e 4946     		mov	r1, r9
 1395 0210 FFF7FEFF 		bl	__aeabi_dmul
 1396              	.LVL154:
 1397 0214 8046     		mov	r8, r0
 1398 0216 8946     		mov	r9, r1
 1399 0218 B0EE4A0A 		vmov.f32	s0, s20
 1400 021c F0EE6A0A 		vmov.f32	s1, s21
ARM GAS  /tmp/ccQwasSs.s 			page 37


 1401 0220 FFF7FEFF 		bl	cos
 1402              	.LVL155:
 1403 0224 53EC102B 		vmov	r2, r3, d0
 1404 0228 4046     		mov	r0, r8
 1405 022a 4946     		mov	r1, r9
 1406 022c FFF7FEFF 		bl	__aeabi_dmul
 1407              	.LVL156:
 1408 0230 0246     		mov	r2, r0
 1409 0232 0B46     		mov	r3, r1
 1410 0234 3046     		mov	r0, r6
 1411 0236 3946     		mov	r1, r7
 1412 0238 FFF7FEFF 		bl	__aeabi_dsub
 1413              	.LVL157:
 546:Drivers/lwgps/src/lwgps/lwgps.c **** 
 547:Drivers/lwgps/src/lwgps/lwgps.c ****         *b = R2D(atan2(df, dfi));               /* Calculate bearing and convert to degrees */
 1414              		.loc 1 547 0
 1415 023c 41EC110B 		vmov	d1, r0, r1
 1416 0240 45EC104B 		vmov	d0, r4, r5
 1417 0244 FFF7FEFF 		bl	atan2
 1418              	.LVL158:
 1419 0248 15A3     		adr	r3, .L125+8
 1420 024a D3E90023 		ldrd	r2, [r3]
 1421 024e 51EC100B 		vmov	r0, r1, d0
 1422 0252 FFF7FEFF 		bl	__aeabi_dmul
 1423              	.LVL159:
 1424 0256 0446     		mov	r4, r0
 1425              	.LVL160:
 1426 0258 0D46     		mov	r5, r1
 1427 025a CAE90045 		strd	r4, [r10]
 548:Drivers/lwgps/src/lwgps/lwgps.c **** #else /* LWGPS_CFG_DOUBLE */
 549:Drivers/lwgps/src/lwgps/lwgps.c ****         df = FLT(sinf(loe - los) * cosf(lae));
 550:Drivers/lwgps/src/lwgps/lwgps.c ****         dfi = FLT(cosf(las) * sinf(lae) - sinf(las) * cosf(lae) * cosf(loe - los));
 551:Drivers/lwgps/src/lwgps/lwgps.c **** 
 552:Drivers/lwgps/src/lwgps/lwgps.c ****         *b = R2D(atan2f(df, dfi));              /* Calculate bearing and convert to degrees */
 553:Drivers/lwgps/src/lwgps/lwgps.c **** #endif /* !LWGPS_CFG_DOUBLE */
 554:Drivers/lwgps/src/lwgps/lwgps.c ****         if (*b < 0) {                           /* Check for negative angle */
 1428              		.loc 1 554 0
 1429 025e 0022     		movs	r2, #0
 1430 0260 0023     		movs	r3, #0
 1431 0262 FFF7FEFF 		bl	__aeabi_dcmplt
 1432              	.LVL161:
 1433 0266 30B9     		cbnz	r0, .L124
 555:Drivers/lwgps/src/lwgps/lwgps.c ****             *b += FLT(360);                     /* Make bearing always positive */
 556:Drivers/lwgps/src/lwgps/lwgps.c ****         }
 557:Drivers/lwgps/src/lwgps/lwgps.c ****     }
 558:Drivers/lwgps/src/lwgps/lwgps.c ****     return 1;
 1434              		.loc 1 558 0
 1435 0268 0120     		movs	r0, #1
 1436 026a 0FE0     		b	.L114
 1437              	.LVL162:
 1438              	.L123:
 498:Drivers/lwgps/src/lwgps/lwgps.c ****         return 0;
 1439              		.loc 1 498 0 discriminator 1
 1440 026c 0029     		cmp	r1, #0
 1441 026e 7FF4D0AE 		bne	.L113
 499:Drivers/lwgps/src/lwgps/lwgps.c ****     }
 1442              		.loc 1 499 0
ARM GAS  /tmp/ccQwasSs.s 			page 38


 1443 0272 0020     		movs	r0, #0
 1444              	.LVL163:
 1445 0274 0AE0     		b	.L114
 1446              	.LVL164:
 1447              	.L124:
 555:Drivers/lwgps/src/lwgps/lwgps.c ****             *b += FLT(360);                     /* Make bearing always positive */
 1448              		.loc 1 555 0
 1449 0276 0022     		movs	r2, #0
 1450 0278 0E4B     		ldr	r3, .L125+28
 1451 027a 2046     		mov	r0, r4
 1452 027c 2946     		mov	r1, r5
 1453 027e FFF7FEFF 		bl	__aeabi_dadd
 1454              	.LVL165:
 1455 0282 CAE90001 		strd	r0, [r10]
 1456              		.loc 1 558 0
 1457 0286 0120     		movs	r0, #1
 1458 0288 00E0     		b	.L114
 1459              	.LVL166:
 1460              	.L118:
 1461 028a 0120     		movs	r0, #1
 1462              	.LVL167:
 1463              	.L114:
 559:Drivers/lwgps/src/lwgps/lwgps.c **** }
 1464              		.loc 1 559 0
 1465 028c 07B0     		add	sp, sp, #28
 1466              	.LCFI12:
 1467              		.cfi_def_cfa_offset 60
 1468              		@ sp needed
 1469 028e BDEC068B 		vldm	sp!, {d8-d10}
 1470              	.LCFI13:
 1471              		.cfi_restore 84
 1472              		.cfi_restore 85
 1473              		.cfi_restore 82
 1474              		.cfi_restore 83
 1475              		.cfi_restore 80
 1476              		.cfi_restore 81
 1477              		.cfi_def_cfa_offset 36
 1478 0292 BDE8F08F 		pop	{r4, r5, r6, r7, r8, r9, r10, fp, pc}
 1479              	.LVL168:
 1480              	.L126:
 1481 0296 00BF     		.align	3
 1482              	.L125:
 1483 0298 00000000 		.word	0
 1484 029c 00E3C840 		.word	1086907136
 1485 02a0 F8C1631A 		.word	442745336
 1486 02a4 DCA54C40 		.word	1078765020
 1487 02a8 0000E03F 		.word	1071644672
 1488 02ac 0000F03F 		.word	1072693248
 1489 02b0 00408F40 		.word	1083129856
 1490 02b4 00807640 		.word	1081507840
 1491 02b8 839952A2 		.word	2723322243
 1492 02bc 46DF913F 		.word	1066524486
 1493              		.cfi_endproc
 1494              	.LFE8:
 1496              		.section	.text.lwgps_to_speed,"ax",%progbits
 1497              		.align	1
 1498              		.global	lwgps_to_speed
ARM GAS  /tmp/ccQwasSs.s 			page 39


 1499              		.syntax unified
 1500              		.thumb
 1501              		.thumb_func
 1502              		.fpu fpv4-sp-d16
 1504              	lwgps_to_speed:
 1505              	.LFB9:
 560:Drivers/lwgps/src/lwgps/lwgps.c **** 
 561:Drivers/lwgps/src/lwgps/lwgps.c **** /**
 562:Drivers/lwgps/src/lwgps/lwgps.c ****  * \brief           Convert NMEA GPS speed (in knots = nautical mile per hour) to different speed f
 563:Drivers/lwgps/src/lwgps/lwgps.c ****  * \param[in]       sik: Speed in knots, received from GPS NMEA statement
 564:Drivers/lwgps/src/lwgps/lwgps.c ****  * \param[in]       ts: Target speed to convert to from knots
 565:Drivers/lwgps/src/lwgps/lwgps.c ****  * \return          Speed calculated from knots
 566:Drivers/lwgps/src/lwgps/lwgps.c ****  */
 567:Drivers/lwgps/src/lwgps/lwgps.c **** lwgps_float_t
 568:Drivers/lwgps/src/lwgps/lwgps.c **** lwgps_to_speed(lwgps_float_t sik, lwgps_speed_t ts) {
 1506              		.loc 1 568 0
 1507              		.cfi_startproc
 1508              		@ args = 0, pretend = 0, frame = 0
 1509              		@ frame_needed = 0, uses_anonymous_args = 0
 1510              	.LVL169:
 1511 0000 08B5     		push	{r3, lr}
 1512              	.LCFI14:
 1513              		.cfi_def_cfa_offset 8
 1514              		.cfi_offset 3, -8
 1515              		.cfi_offset 14, -4
 569:Drivers/lwgps/src/lwgps/lwgps.c ****     switch (ts) {
 1516              		.loc 1 569 0
 1517 0002 0E28     		cmp	r0, #14
 1518 0004 00F29580 		bhi	.L145
 1519 0008 DFE800F0 		tbb	[pc, r0]
 1520              	.L130:
 1521 000c 08       		.byte	(.L129-.L130)/2
 1522 000d 12       		.byte	(.L131-.L130)/2
 1523 000e 1C       		.byte	(.L132-.L130)/2
 1524 000f 26       		.byte	(.L133-.L130)/2
 1525 0010 30       		.byte	(.L134-.L130)/2
 1526 0011 3A       		.byte	(.L135-.L130)/2
 1527 0012 44       		.byte	(.L136-.L130)/2
 1528 0013 4E       		.byte	(.L137-.L130)/2
 1529 0014 58       		.byte	(.L138-.L130)/2
 1530 0015 62       		.byte	(.L139-.L130)/2
 1531 0016 6B       		.byte	(.L140-.L130)/2
 1532 0017 75       		.byte	(.L141-.L130)/2
 1533 0018 7F       		.byte	(.L142-.L130)/2
 1534 0019 89       		.byte	(.L143-.L130)/2
 1535 001a 11       		.byte	(.L127-.L130)/2
 1536 001b 00       		.p2align 1
 1537              	.L129:
 570:Drivers/lwgps/src/lwgps/lwgps.c ****         case lwgps_speed_kps:
 571:Drivers/lwgps/src/lwgps/lwgps.c ****             return FLT(sik * FLT(0.000514));
 1538              		.loc 1 571 0
 1539 001c 51A3     		adr	r3, .L147+44
 1540 001e D3E90023 		ldrd	r2, [r3]
 1541 0022 51EC100B 		vmov	r0, r1, d0
 1542              	.LVL170:
 1543 0026 FFF7FEFF 		bl	__aeabi_dmul
 1544              	.LVL171:
ARM GAS  /tmp/ccQwasSs.s 			page 40


 1545 002a 41EC100B 		vmov	d0, r0, r1
 1546              	.L127:
 572:Drivers/lwgps/src/lwgps/lwgps.c ****         case lwgps_speed_kph:
 573:Drivers/lwgps/src/lwgps/lwgps.c ****             return FLT(sik * FLT(1.852));
 574:Drivers/lwgps/src/lwgps/lwgps.c ****         case lwgps_speed_mps:
 575:Drivers/lwgps/src/lwgps/lwgps.c ****             return FLT(sik * FLT(0.5144));
 576:Drivers/lwgps/src/lwgps/lwgps.c ****         case lwgps_speed_mpm:
 577:Drivers/lwgps/src/lwgps/lwgps.c ****             return FLT(sik * FLT(30.87));
 578:Drivers/lwgps/src/lwgps/lwgps.c **** 
 579:Drivers/lwgps/src/lwgps/lwgps.c ****         case lwgps_speed_mips:
 580:Drivers/lwgps/src/lwgps/lwgps.c ****             return FLT(sik * FLT(0.0003197));
 581:Drivers/lwgps/src/lwgps/lwgps.c ****         case lwgps_speed_mph:
 582:Drivers/lwgps/src/lwgps/lwgps.c ****             return FLT(sik * FLT(1.151));
 583:Drivers/lwgps/src/lwgps/lwgps.c ****         case lwgps_speed_fps:
 584:Drivers/lwgps/src/lwgps/lwgps.c ****             return FLT(sik * FLT(1.688));
 585:Drivers/lwgps/src/lwgps/lwgps.c ****         case lwgps_speed_fpm:
 586:Drivers/lwgps/src/lwgps/lwgps.c ****             return FLT(sik * FLT(101.3));
 587:Drivers/lwgps/src/lwgps/lwgps.c **** 
 588:Drivers/lwgps/src/lwgps/lwgps.c ****         case lwgps_speed_mpk:
 589:Drivers/lwgps/src/lwgps/lwgps.c ****             return FLT(sik * FLT(32.4));
 590:Drivers/lwgps/src/lwgps/lwgps.c ****         case lwgps_speed_spk:
 591:Drivers/lwgps/src/lwgps/lwgps.c ****             return FLT(sik * FLT(1944.0));
 592:Drivers/lwgps/src/lwgps/lwgps.c ****         case lwgps_speed_sp100m:
 593:Drivers/lwgps/src/lwgps/lwgps.c ****             return FLT(sik * FLT(194.4));
 594:Drivers/lwgps/src/lwgps/lwgps.c ****         case lwgps_speed_mipm:
 595:Drivers/lwgps/src/lwgps/lwgps.c ****             return FLT(sik * FLT(52.14));
 596:Drivers/lwgps/src/lwgps/lwgps.c ****         case lwgps_speed_spm:
 597:Drivers/lwgps/src/lwgps/lwgps.c ****             return FLT(sik * FLT(3128.0));
 598:Drivers/lwgps/src/lwgps/lwgps.c ****         case lwgps_speed_sp100y:
 599:Drivers/lwgps/src/lwgps/lwgps.c ****             return FLT(sik * FLT(177.7));
 600:Drivers/lwgps/src/lwgps/lwgps.c **** 
 601:Drivers/lwgps/src/lwgps/lwgps.c ****         case lwgps_speed_smph:
 602:Drivers/lwgps/src/lwgps/lwgps.c ****             return FLT(sik * FLT(1.0));
 603:Drivers/lwgps/src/lwgps/lwgps.c ****         default:
 604:Drivers/lwgps/src/lwgps/lwgps.c ****             return 0;
 605:Drivers/lwgps/src/lwgps/lwgps.c ****     }
 606:Drivers/lwgps/src/lwgps/lwgps.c **** }
 1547              		.loc 1 606 0
 1548 002e 08BD     		pop	{r3, pc}
 1549              	.LVL172:
 1550              	.L131:
 573:Drivers/lwgps/src/lwgps/lwgps.c ****         case lwgps_speed_mps:
 1551              		.loc 1 573 0
 1552 0030 4EA3     		adr	r3, .L147+52
 1553 0032 D3E90023 		ldrd	r2, [r3]
 1554 0036 51EC100B 		vmov	r0, r1, d0
 1555              	.LVL173:
 1556 003a FFF7FEFF 		bl	__aeabi_dmul
 1557              	.LVL174:
 1558 003e 41EC100B 		vmov	d0, r0, r1
 1559 0042 F4E7     		b	.L127
 1560              	.LVL175:
 1561              	.L132:
 575:Drivers/lwgps/src/lwgps/lwgps.c ****         case lwgps_speed_mpm:
 1562              		.loc 1 575 0
 1563 0044 4BA3     		adr	r3, .L147+60
 1564 0046 D3E90023 		ldrd	r2, [r3]
ARM GAS  /tmp/ccQwasSs.s 			page 41


 1565 004a 51EC100B 		vmov	r0, r1, d0
 1566              	.LVL176:
 1567 004e FFF7FEFF 		bl	__aeabi_dmul
 1568              	.LVL177:
 1569 0052 41EC100B 		vmov	d0, r0, r1
 1570 0056 EAE7     		b	.L127
 1571              	.LVL178:
 1572              	.L133:
 577:Drivers/lwgps/src/lwgps/lwgps.c **** 
 1573              		.loc 1 577 0
 1574 0058 48A3     		adr	r3, .L147+68
 1575 005a D3E90023 		ldrd	r2, [r3]
 1576 005e 51EC100B 		vmov	r0, r1, d0
 1577              	.LVL179:
 1578 0062 FFF7FEFF 		bl	__aeabi_dmul
 1579              	.LVL180:
 1580 0066 41EC100B 		vmov	d0, r0, r1
 1581 006a E0E7     		b	.L127
 1582              	.LVL181:
 1583              	.L134:
 580:Drivers/lwgps/src/lwgps/lwgps.c ****         case lwgps_speed_mph:
 1584              		.loc 1 580 0
 1585 006c 45A3     		adr	r3, .L147+76
 1586 006e D3E90023 		ldrd	r2, [r3]
 1587 0072 51EC100B 		vmov	r0, r1, d0
 1588              	.LVL182:
 1589 0076 FFF7FEFF 		bl	__aeabi_dmul
 1590              	.LVL183:
 1591 007a 41EC100B 		vmov	d0, r0, r1
 1592 007e D6E7     		b	.L127
 1593              	.LVL184:
 1594              	.L135:
 582:Drivers/lwgps/src/lwgps/lwgps.c ****         case lwgps_speed_fps:
 1595              		.loc 1 582 0
 1596 0080 42A3     		adr	r3, .L147+84
 1597 0082 D3E90023 		ldrd	r2, [r3]
 1598 0086 51EC100B 		vmov	r0, r1, d0
 1599              	.LVL185:
 1600 008a FFF7FEFF 		bl	__aeabi_dmul
 1601              	.LVL186:
 1602 008e 41EC100B 		vmov	d0, r0, r1
 1603 0092 CCE7     		b	.L127
 1604              	.LVL187:
 1605              	.L136:
 584:Drivers/lwgps/src/lwgps/lwgps.c ****         case lwgps_speed_fpm:
 1606              		.loc 1 584 0
 1607 0094 3FA3     		adr	r3, .L147+92
 1608 0096 D3E90023 		ldrd	r2, [r3]
 1609 009a 51EC100B 		vmov	r0, r1, d0
 1610              	.LVL188:
 1611 009e FFF7FEFF 		bl	__aeabi_dmul
 1612              	.LVL189:
 1613 00a2 41EC100B 		vmov	d0, r0, r1
 1614 00a6 C2E7     		b	.L127
 1615              	.LVL190:
 1616              	.L137:
 586:Drivers/lwgps/src/lwgps/lwgps.c **** 
ARM GAS  /tmp/ccQwasSs.s 			page 42


 1617              		.loc 1 586 0
 1618 00a8 3CA3     		adr	r3, .L147+100
 1619 00aa D3E90023 		ldrd	r2, [r3]
 1620 00ae 51EC100B 		vmov	r0, r1, d0
 1621              	.LVL191:
 1622 00b2 FFF7FEFF 		bl	__aeabi_dmul
 1623              	.LVL192:
 1624 00b6 41EC100B 		vmov	d0, r0, r1
 1625 00ba B8E7     		b	.L127
 1626              	.LVL193:
 1627              	.L138:
 589:Drivers/lwgps/src/lwgps/lwgps.c ****         case lwgps_speed_spk:
 1628              		.loc 1 589 0
 1629 00bc 39A3     		adr	r3, .L147+108
 1630 00be D3E90023 		ldrd	r2, [r3]
 1631 00c2 51EC100B 		vmov	r0, r1, d0
 1632              	.LVL194:
 1633 00c6 FFF7FEFF 		bl	__aeabi_dmul
 1634              	.LVL195:
 1635 00ca 41EC100B 		vmov	d0, r0, r1
 1636 00ce AEE7     		b	.L127
 1637              	.LVL196:
 1638              	.L139:
 591:Drivers/lwgps/src/lwgps/lwgps.c ****         case lwgps_speed_sp100m:
 1639              		.loc 1 591 0
 1640 00d0 0022     		movs	r2, #0
 1641 00d2 234B     		ldr	r3, .L147+40
 1642 00d4 51EC100B 		vmov	r0, r1, d0
 1643              	.LVL197:
 1644 00d8 FFF7FEFF 		bl	__aeabi_dmul
 1645              	.LVL198:
 1646 00dc 41EC100B 		vmov	d0, r0, r1
 1647 00e0 A5E7     		b	.L127
 1648              	.LVL199:
 1649              	.L140:
 593:Drivers/lwgps/src/lwgps/lwgps.c ****         case lwgps_speed_mipm:
 1650              		.loc 1 593 0
 1651 00e2 15A3     		adr	r3, .L147
 1652 00e4 D3E90023 		ldrd	r2, [r3]
 1653 00e8 51EC100B 		vmov	r0, r1, d0
 1654              	.LVL200:
 1655 00ec FFF7FEFF 		bl	__aeabi_dmul
 1656              	.LVL201:
 1657 00f0 41EC100B 		vmov	d0, r0, r1
 1658 00f4 9BE7     		b	.L127
 1659              	.LVL202:
 1660              	.L141:
 595:Drivers/lwgps/src/lwgps/lwgps.c ****         case lwgps_speed_spm:
 1661              		.loc 1 595 0
 1662 00f6 12A3     		adr	r3, .L147+8
 1663 00f8 D3E90023 		ldrd	r2, [r3]
 1664 00fc 51EC100B 		vmov	r0, r1, d0
 1665              	.LVL203:
 1666 0100 FFF7FEFF 		bl	__aeabi_dmul
 1667              	.LVL204:
 1668 0104 41EC100B 		vmov	d0, r0, r1
 1669 0108 91E7     		b	.L127
ARM GAS  /tmp/ccQwasSs.s 			page 43


 1670              	.LVL205:
 1671              	.L142:
 597:Drivers/lwgps/src/lwgps/lwgps.c ****         case lwgps_speed_sp100y:
 1672              		.loc 1 597 0
 1673 010a 0FA3     		adr	r3, .L147+16
 1674 010c D3E90023 		ldrd	r2, [r3]
 1675 0110 51EC100B 		vmov	r0, r1, d0
 1676              	.LVL206:
 1677 0114 FFF7FEFF 		bl	__aeabi_dmul
 1678              	.LVL207:
 1679 0118 41EC100B 		vmov	d0, r0, r1
 1680 011c 87E7     		b	.L127
 1681              	.LVL208:
 1682              	.L143:
 599:Drivers/lwgps/src/lwgps/lwgps.c **** 
 1683              		.loc 1 599 0
 1684 011e 0CA3     		adr	r3, .L147+24
 1685 0120 D3E90023 		ldrd	r2, [r3]
 1686 0124 51EC100B 		vmov	r0, r1, d0
 1687              	.LVL209:
 1688 0128 FFF7FEFF 		bl	__aeabi_dmul
 1689              	.LVL210:
 1690 012c 41EC100B 		vmov	d0, r0, r1
 1691 0130 7DE7     		b	.L127
 1692              	.LVL211:
 1693              	.L145:
 604:Drivers/lwgps/src/lwgps/lwgps.c ****     }
 1694              		.loc 1 604 0
 1695 0132 9FED090B 		vldr.64	d0, .L147+32
 1696              	.LVL212:
 1697 0136 7AE7     		b	.L127
 1698              	.L148:
 1699              		.align	3
 1700              	.L147:
 1701 0138 CDCCCCCC 		.word	3435973837
 1702 013c CC4C6840 		.word	1080577228
 1703 0140 52B81E85 		.word	2233382994
 1704 0144 EB114A40 		.word	1078596075
 1705 0148 00000000 		.word	0
 1706 014c 0070A840 		.word	1084780544
 1707 0150 66666666 		.word	1717986918
 1708 0154 66366640 		.word	1080440422
 1709 0158 00000000 		.word	0
 1710 015c 00000000 		.word	0
 1711 0160 00609E40 		.word	1084121088
 1712 0164 7BA35698 		.word	2555814779
 1713 0168 BED7403F 		.word	1061214142
 1714 016c 6F1283C0 		.word	3229815407
 1715 0170 CAA1FD3F 		.word	1073586634
 1716 0174 2EFF21FD 		.word	4246863662
 1717 0178 F675E03F 		.word	1071674870
 1718 017c 1F85EB51 		.word	1374389535
 1719 0180 B8DE3E40 		.word	1077862072
 1720 0184 9065660B 		.word	191260048
 1721 0188 ADF3343F 		.word	1060434861
 1722 018c D122DBF9 		.word	4191888081
 1723 0190 7E6AF23F 		.word	1072851582
ARM GAS  /tmp/ccQwasSs.s 			page 44


 1724 0194 355EBA49 		.word	1236950581
 1725 0198 0C02FB3F 		.word	1073414668
 1726 019c 33333333 		.word	858993459
 1727 01a0 33535940 		.word	1079595827
 1728 01a4 33333333 		.word	858993459
 1729 01a8 33334040 		.word	1077949235
 1730              		.cfi_endproc
 1731              	.LFE9:
 1733              		.section	.rodata.prv_parse_term.str1.4,"aMS",%progbits,1
 1734              		.align	2
 1735              	.LC0:
 1736 0000 24475047 		.ascii	"$GPGGA\000"
 1736      474100
 1737 0007 00       		.space	1
 1738              	.LC1:
 1739 0008 24474E47 		.ascii	"$GNGGA\000"
 1739      474100
 1740 000f 00       		.space	1
 1741              	.LC2:
 1742 0010 24475047 		.ascii	"$GPGSA\000"
 1742      534100
 1743 0017 00       		.space	1
 1744              	.LC3:
 1745 0018 24474E47 		.ascii	"$GNGSA\000"
 1745      534100
 1746 001f 00       		.space	1
 1747              	.LC4:
 1748 0020 24475047 		.ascii	"$GPGSV\000"
 1748      535600
 1749 0027 00       		.space	1
 1750              	.LC5:
 1751 0028 24474E47 		.ascii	"$GNGSV\000"
 1751      535600
 1752 002f 00       		.space	1
 1753              	.LC6:
 1754 0030 24475052 		.ascii	"$GPRMC\000"
 1754      4D4300
 1755 0037 00       		.space	1
 1756              	.LC7:
 1757 0038 24474E52 		.ascii	"$GNRMC\000"
 1757      4D4300
 1758              		.text
 1759              	.Letext0:
 1760              		.file 2 "/usr/lib/gcc/arm-none-eabi/7.3.1/include/stddef.h"
 1761              		.file 3 "/usr/include/newlib/machine/_default_types.h"
 1762              		.file 4 "/usr/include/newlib/sys/lock.h"
 1763              		.file 5 "/usr/include/newlib/sys/_types.h"
 1764              		.file 6 "/usr/include/newlib/sys/reent.h"
 1765              		.file 7 "/usr/include/newlib/math.h"
 1766              		.file 8 "/usr/include/newlib/stdlib.h"
 1767              		.file 9 "/usr/include/newlib/sys/_stdint.h"
 1768              		.file 10 "Drivers/lwgps/src/include/lwgps/lwgps.h"
 1769              		.file 11 "/usr/include/newlib/string.h"
 1770              		.file 12 "<built-in>"
ARM GAS  /tmp/ccQwasSs.s 			page 45

