ARM GAS  /tmp/cci89IhS.s 			page 1


   1              		.cpu cortex-m4
   2              		.eabi_attribute 27, 1
   3              		.eabi_attribute 28, 1
   4              		.eabi_attribute 20, 1
   5              		.eabi_attribute 21, 1
   6              		.eabi_attribute 23, 3
   7              		.eabi_attribute 24, 1
   8              		.eabi_attribute 25, 1
   9              		.eabi_attribute 26, 1
  10              		.eabi_attribute 30, 1
  11              		.eabi_attribute 34, 1
  12              		.eabi_attribute 18, 4
  13              		.file	"spi.c"
  14              		.text
  15              	.Ltext0:
  16              		.cfi_sections	.debug_frame
  17              		.section	.text.MX_SPI3_Init,"ax",%progbits
  18              		.align	1
  19              		.global	MX_SPI3_Init
  20              		.syntax unified
  21              		.thumb
  22              		.thumb_func
  23              		.fpu fpv4-sp-d16
  25              	MX_SPI3_Init:
  26              	.LFB329:
  27              		.file 1 "Core/Src/spi.c"
   1:Core/Src/spi.c **** /**
   2:Core/Src/spi.c ****   ******************************************************************************
   3:Core/Src/spi.c ****   * @file    spi.c
   4:Core/Src/spi.c ****   * @brief   This file provides code for the configuration
   5:Core/Src/spi.c ****   *          of the SPI instances.
   6:Core/Src/spi.c ****   ******************************************************************************
   7:Core/Src/spi.c ****   * @attention
   8:Core/Src/spi.c ****   *
   9:Core/Src/spi.c ****   * <h2><center>&copy; Copyright (c) 2021 STMicroelectronics.
  10:Core/Src/spi.c ****   * All rights reserved.</center></h2>
  11:Core/Src/spi.c ****   *
  12:Core/Src/spi.c ****   * This software component is licensed by ST under Ultimate Liberty license
  13:Core/Src/spi.c ****   * SLA0044, the "License"; You may not use this file except in compliance with
  14:Core/Src/spi.c ****   * the License. You may obtain a copy of the License at:
  15:Core/Src/spi.c ****   *                             www.st.com/SLA0044
  16:Core/Src/spi.c ****   *
  17:Core/Src/spi.c ****   ******************************************************************************
  18:Core/Src/spi.c ****   */
  19:Core/Src/spi.c **** 
  20:Core/Src/spi.c **** /* Includes ------------------------------------------------------------------*/
  21:Core/Src/spi.c **** #include "spi.h"
  22:Core/Src/spi.c **** 
  23:Core/Src/spi.c **** /* USER CODE BEGIN 0 */
  24:Core/Src/spi.c **** 
  25:Core/Src/spi.c **** /* USER CODE END 0 */
  26:Core/Src/spi.c **** 
  27:Core/Src/spi.c **** SPI_HandleTypeDef hspi3;
  28:Core/Src/spi.c **** DMA_HandleTypeDef hdma_spi3_rx;
  29:Core/Src/spi.c **** DMA_HandleTypeDef hdma_spi3_tx;
  30:Core/Src/spi.c **** 
  31:Core/Src/spi.c **** /* SPI3 init function */
ARM GAS  /tmp/cci89IhS.s 			page 2


  32:Core/Src/spi.c **** void MX_SPI3_Init(void)
  33:Core/Src/spi.c **** {
  28              		.loc 1 33 0
  29              		.cfi_startproc
  30              		@ args = 0, pretend = 0, frame = 0
  31              		@ frame_needed = 0, uses_anonymous_args = 0
  32 0000 08B5     		push	{r3, lr}
  33              	.LCFI0:
  34              		.cfi_def_cfa_offset 8
  35              		.cfi_offset 3, -8
  36              		.cfi_offset 14, -4
  34:Core/Src/spi.c **** 
  35:Core/Src/spi.c ****   /* USER CODE BEGIN SPI3_Init 0 */
  36:Core/Src/spi.c **** 
  37:Core/Src/spi.c ****   /* USER CODE END SPI3_Init 0 */
  38:Core/Src/spi.c **** 
  39:Core/Src/spi.c ****   /* USER CODE BEGIN SPI3_Init 1 */
  40:Core/Src/spi.c **** 
  41:Core/Src/spi.c ****   /* USER CODE END SPI3_Init 1 */
  42:Core/Src/spi.c ****   hspi3.Instance = SPI3;
  37              		.loc 1 42 0
  38 0002 1048     		ldr	r0, .L5
  39 0004 104B     		ldr	r3, .L5+4
  40 0006 0360     		str	r3, [r0]
  43:Core/Src/spi.c ****   hspi3.Init.Mode = SPI_MODE_MASTER;
  41              		.loc 1 43 0
  42 0008 4FF48273 		mov	r3, #260
  43 000c 4360     		str	r3, [r0, #4]
  44:Core/Src/spi.c ****   hspi3.Init.Direction = SPI_DIRECTION_2LINES;
  44              		.loc 1 44 0
  45 000e 0023     		movs	r3, #0
  46 0010 8360     		str	r3, [r0, #8]
  45:Core/Src/spi.c ****   hspi3.Init.DataSize = SPI_DATASIZE_8BIT;
  47              		.loc 1 45 0
  48 0012 4FF4E062 		mov	r2, #1792
  49 0016 C260     		str	r2, [r0, #12]
  46:Core/Src/spi.c ****   hspi3.Init.CLKPolarity = SPI_POLARITY_LOW;
  50              		.loc 1 46 0
  51 0018 0361     		str	r3, [r0, #16]
  47:Core/Src/spi.c ****   hspi3.Init.CLKPhase = SPI_PHASE_1EDGE;
  52              		.loc 1 47 0
  53 001a 4361     		str	r3, [r0, #20]
  48:Core/Src/spi.c ****   hspi3.Init.NSS = SPI_NSS_SOFT;
  54              		.loc 1 48 0
  55 001c 4FF40072 		mov	r2, #512
  56 0020 8261     		str	r2, [r0, #24]
  49:Core/Src/spi.c ****   hspi3.Init.BaudRatePrescaler = SPI_BAUDRATEPRESCALER_64;
  57              		.loc 1 49 0
  58 0022 2822     		movs	r2, #40
  59 0024 C261     		str	r2, [r0, #28]
  50:Core/Src/spi.c ****   hspi3.Init.FirstBit = SPI_FIRSTBIT_MSB;
  60              		.loc 1 50 0
  61 0026 0362     		str	r3, [r0, #32]
  51:Core/Src/spi.c ****   hspi3.Init.TIMode = SPI_TIMODE_DISABLE;
  62              		.loc 1 51 0
  63 0028 4362     		str	r3, [r0, #36]
  52:Core/Src/spi.c ****   hspi3.Init.CRCCalculation = SPI_CRCCALCULATION_DISABLE;
ARM GAS  /tmp/cci89IhS.s 			page 3


  64              		.loc 1 52 0
  65 002a 8362     		str	r3, [r0, #40]
  53:Core/Src/spi.c ****   hspi3.Init.CRCPolynomial = 7;
  66              		.loc 1 53 0
  67 002c 0722     		movs	r2, #7
  68 002e C262     		str	r2, [r0, #44]
  54:Core/Src/spi.c ****   hspi3.Init.CRCLength = SPI_CRC_LENGTH_DATASIZE;
  69              		.loc 1 54 0
  70 0030 0363     		str	r3, [r0, #48]
  55:Core/Src/spi.c ****   hspi3.Init.NSSPMode = SPI_NSS_PULSE_ENABLE;
  71              		.loc 1 55 0
  72 0032 0823     		movs	r3, #8
  73 0034 4363     		str	r3, [r0, #52]
  56:Core/Src/spi.c ****   if (HAL_SPI_Init(&hspi3) != HAL_OK)
  74              		.loc 1 56 0
  75 0036 FFF7FEFF 		bl	HAL_SPI_Init
  76              	.LVL0:
  77 003a 00B9     		cbnz	r0, .L4
  78              	.L1:
  57:Core/Src/spi.c ****   {
  58:Core/Src/spi.c ****     Error_Handler();
  59:Core/Src/spi.c ****   }
  60:Core/Src/spi.c ****   /* USER CODE BEGIN SPI3_Init 2 */
  61:Core/Src/spi.c **** 
  62:Core/Src/spi.c ****   /* USER CODE END SPI3_Init 2 */
  63:Core/Src/spi.c **** 
  64:Core/Src/spi.c **** }
  79              		.loc 1 64 0
  80 003c 08BD     		pop	{r3, pc}
  81              	.L4:
  58:Core/Src/spi.c ****   }
  82              		.loc 1 58 0
  83 003e FFF7FEFF 		bl	Error_Handler
  84              	.LVL1:
  85              		.loc 1 64 0
  86 0042 FBE7     		b	.L1
  87              	.L6:
  88              		.align	2
  89              	.L5:
  90 0044 00000000 		.word	hspi3
  91 0048 003C0040 		.word	1073757184
  92              		.cfi_endproc
  93              	.LFE329:
  95              		.section	.text.HAL_SPI_MspInit,"ax",%progbits
  96              		.align	1
  97              		.global	HAL_SPI_MspInit
  98              		.syntax unified
  99              		.thumb
 100              		.thumb_func
 101              		.fpu fpv4-sp-d16
 103              	HAL_SPI_MspInit:
 104              	.LFB330:
  65:Core/Src/spi.c **** 
  66:Core/Src/spi.c **** void HAL_SPI_MspInit(SPI_HandleTypeDef* spiHandle)
  67:Core/Src/spi.c **** {
 105              		.loc 1 67 0
 106              		.cfi_startproc
ARM GAS  /tmp/cci89IhS.s 			page 4


 107              		@ args = 0, pretend = 0, frame = 32
 108              		@ frame_needed = 0, uses_anonymous_args = 0
 109              	.LVL2:
 110 0000 70B5     		push	{r4, r5, r6, lr}
 111              	.LCFI1:
 112              		.cfi_def_cfa_offset 16
 113              		.cfi_offset 4, -16
 114              		.cfi_offset 5, -12
 115              		.cfi_offset 6, -8
 116              		.cfi_offset 14, -4
 117 0002 88B0     		sub	sp, sp, #32
 118              	.LCFI2:
 119              		.cfi_def_cfa_offset 48
  68:Core/Src/spi.c **** 
  69:Core/Src/spi.c ****   GPIO_InitTypeDef GPIO_InitStruct = {0};
 120              		.loc 1 69 0
 121 0004 0023     		movs	r3, #0
 122 0006 0393     		str	r3, [sp, #12]
 123 0008 0493     		str	r3, [sp, #16]
 124 000a 0593     		str	r3, [sp, #20]
 125 000c 0693     		str	r3, [sp, #24]
 126 000e 0793     		str	r3, [sp, #28]
  70:Core/Src/spi.c ****   if(spiHandle->Instance==SPI3)
 127              		.loc 1 70 0
 128 0010 0268     		ldr	r2, [r0]
 129 0012 344B     		ldr	r3, .L15
 130 0014 9A42     		cmp	r2, r3
 131 0016 01D0     		beq	.L12
 132              	.LVL3:
 133              	.L7:
  71:Core/Src/spi.c ****   {
  72:Core/Src/spi.c ****   /* USER CODE BEGIN SPI3_MspInit 0 */
  73:Core/Src/spi.c **** 
  74:Core/Src/spi.c ****   /* USER CODE END SPI3_MspInit 0 */
  75:Core/Src/spi.c ****     /* SPI3 clock enable */
  76:Core/Src/spi.c ****     __HAL_RCC_SPI3_CLK_ENABLE();
  77:Core/Src/spi.c **** 
  78:Core/Src/spi.c ****     __HAL_RCC_GPIOC_CLK_ENABLE();
  79:Core/Src/spi.c ****     __HAL_RCC_GPIOB_CLK_ENABLE();
  80:Core/Src/spi.c ****     /**SPI3 GPIO Configuration
  81:Core/Src/spi.c ****     PC10     ------> SPI3_SCK
  82:Core/Src/spi.c ****     PB4     ------> SPI3_MISO
  83:Core/Src/spi.c ****     PB5     ------> SPI3_MOSI
  84:Core/Src/spi.c ****     */
  85:Core/Src/spi.c ****     GPIO_InitStruct.Pin = GPIO_PIN_10;
  86:Core/Src/spi.c ****     GPIO_InitStruct.Mode = GPIO_MODE_AF_PP;
  87:Core/Src/spi.c ****     GPIO_InitStruct.Pull = GPIO_NOPULL;
  88:Core/Src/spi.c ****     GPIO_InitStruct.Speed = GPIO_SPEED_FREQ_LOW;
  89:Core/Src/spi.c ****     GPIO_InitStruct.Alternate = GPIO_AF6_SPI3;
  90:Core/Src/spi.c ****     HAL_GPIO_Init(GPIOC, &GPIO_InitStruct);
  91:Core/Src/spi.c **** 
  92:Core/Src/spi.c ****     GPIO_InitStruct.Pin = GPIO_PIN_4|GPIO_PIN_5;
  93:Core/Src/spi.c ****     GPIO_InitStruct.Mode = GPIO_MODE_AF_PP;
  94:Core/Src/spi.c ****     GPIO_InitStruct.Pull = GPIO_NOPULL;
  95:Core/Src/spi.c ****     GPIO_InitStruct.Speed = GPIO_SPEED_FREQ_LOW;
  96:Core/Src/spi.c ****     GPIO_InitStruct.Alternate = GPIO_AF6_SPI3;
  97:Core/Src/spi.c ****     HAL_GPIO_Init(GPIOB, &GPIO_InitStruct);
ARM GAS  /tmp/cci89IhS.s 			page 5


  98:Core/Src/spi.c **** 
  99:Core/Src/spi.c ****     /* SPI3 DMA Init */
 100:Core/Src/spi.c ****     /* SPI3_RX Init */
 101:Core/Src/spi.c ****     hdma_spi3_rx.Instance = DMA1_Channel2;
 102:Core/Src/spi.c ****     hdma_spi3_rx.Init.Request = DMA_REQUEST_SPI3_RX;
 103:Core/Src/spi.c ****     hdma_spi3_rx.Init.Direction = DMA_PERIPH_TO_MEMORY;
 104:Core/Src/spi.c ****     hdma_spi3_rx.Init.PeriphInc = DMA_PINC_DISABLE;
 105:Core/Src/spi.c ****     hdma_spi3_rx.Init.MemInc = DMA_MINC_ENABLE;
 106:Core/Src/spi.c ****     hdma_spi3_rx.Init.PeriphDataAlignment = DMA_PDATAALIGN_BYTE;
 107:Core/Src/spi.c ****     hdma_spi3_rx.Init.MemDataAlignment = DMA_MDATAALIGN_BYTE;
 108:Core/Src/spi.c ****     hdma_spi3_rx.Init.Mode = DMA_NORMAL;
 109:Core/Src/spi.c ****     hdma_spi3_rx.Init.Priority = DMA_PRIORITY_LOW;
 110:Core/Src/spi.c ****     if (HAL_DMA_Init(&hdma_spi3_rx) != HAL_OK)
 111:Core/Src/spi.c ****     {
 112:Core/Src/spi.c ****       Error_Handler();
 113:Core/Src/spi.c ****     }
 114:Core/Src/spi.c **** 
 115:Core/Src/spi.c ****     __HAL_LINKDMA(spiHandle,hdmarx,hdma_spi3_rx);
 116:Core/Src/spi.c **** 
 117:Core/Src/spi.c ****     /* SPI3_TX Init */
 118:Core/Src/spi.c ****     hdma_spi3_tx.Instance = DMA1_Channel3;
 119:Core/Src/spi.c ****     hdma_spi3_tx.Init.Request = DMA_REQUEST_SPI3_TX;
 120:Core/Src/spi.c ****     hdma_spi3_tx.Init.Direction = DMA_MEMORY_TO_PERIPH;
 121:Core/Src/spi.c ****     hdma_spi3_tx.Init.PeriphInc = DMA_PINC_DISABLE;
 122:Core/Src/spi.c ****     hdma_spi3_tx.Init.MemInc = DMA_MINC_ENABLE;
 123:Core/Src/spi.c ****     hdma_spi3_tx.Init.PeriphDataAlignment = DMA_PDATAALIGN_BYTE;
 124:Core/Src/spi.c ****     hdma_spi3_tx.Init.MemDataAlignment = DMA_MDATAALIGN_BYTE;
 125:Core/Src/spi.c ****     hdma_spi3_tx.Init.Mode = DMA_NORMAL;
 126:Core/Src/spi.c ****     hdma_spi3_tx.Init.Priority = DMA_PRIORITY_LOW;
 127:Core/Src/spi.c ****     if (HAL_DMA_Init(&hdma_spi3_tx) != HAL_OK)
 128:Core/Src/spi.c ****     {
 129:Core/Src/spi.c ****       Error_Handler();
 130:Core/Src/spi.c ****     }
 131:Core/Src/spi.c **** 
 132:Core/Src/spi.c ****     __HAL_LINKDMA(spiHandle,hdmatx,hdma_spi3_tx);
 133:Core/Src/spi.c **** 
 134:Core/Src/spi.c ****   /* USER CODE BEGIN SPI3_MspInit 1 */
 135:Core/Src/spi.c **** 
 136:Core/Src/spi.c ****   /* USER CODE END SPI3_MspInit 1 */
 137:Core/Src/spi.c ****   }
 138:Core/Src/spi.c **** }
 134              		.loc 1 138 0
 135 0018 08B0     		add	sp, sp, #32
 136              	.LCFI3:
 137              		.cfi_remember_state
 138              		.cfi_def_cfa_offset 16
 139              		@ sp needed
 140 001a 70BD     		pop	{r4, r5, r6, pc}
 141              	.LVL4:
 142              	.L12:
 143              	.LCFI4:
 144              		.cfi_restore_state
 145 001c 0446     		mov	r4, r0
 146              	.LBB2:
  76:Core/Src/spi.c **** 
 147              		.loc 1 76 0
 148 001e 03F5EA33 		add	r3, r3, #119808
ARM GAS  /tmp/cci89IhS.s 			page 6


 149 0022 9A6D     		ldr	r2, [r3, #88]
 150 0024 42F40042 		orr	r2, r2, #32768
 151 0028 9A65     		str	r2, [r3, #88]
 152 002a 9A6D     		ldr	r2, [r3, #88]
 153 002c 02F40042 		and	r2, r2, #32768
 154 0030 0092     		str	r2, [sp]
 155 0032 009A     		ldr	r2, [sp]
 156              	.LBE2:
 157              	.LBB3:
  78:Core/Src/spi.c ****     __HAL_RCC_GPIOB_CLK_ENABLE();
 158              		.loc 1 78 0
 159 0034 DA6C     		ldr	r2, [r3, #76]
 160 0036 42F00402 		orr	r2, r2, #4
 161 003a DA64     		str	r2, [r3, #76]
 162 003c DA6C     		ldr	r2, [r3, #76]
 163 003e 02F00402 		and	r2, r2, #4
 164 0042 0192     		str	r2, [sp, #4]
 165 0044 019A     		ldr	r2, [sp, #4]
 166              	.LBE3:
 167              	.LBB4:
  79:Core/Src/spi.c ****     /**SPI3 GPIO Configuration
 168              		.loc 1 79 0
 169 0046 DA6C     		ldr	r2, [r3, #76]
 170 0048 42F00202 		orr	r2, r2, #2
 171 004c DA64     		str	r2, [r3, #76]
 172 004e DB6C     		ldr	r3, [r3, #76]
 173 0050 03F00203 		and	r3, r3, #2
 174 0054 0293     		str	r3, [sp, #8]
 175 0056 029B     		ldr	r3, [sp, #8]
 176              	.LBE4:
  85:Core/Src/spi.c ****     GPIO_InitStruct.Mode = GPIO_MODE_AF_PP;
 177              		.loc 1 85 0
 178 0058 4FF48063 		mov	r3, #1024
 179 005c 0393     		str	r3, [sp, #12]
  86:Core/Src/spi.c ****     GPIO_InitStruct.Pull = GPIO_NOPULL;
 180              		.loc 1 86 0
 181 005e 0225     		movs	r5, #2
 182 0060 0495     		str	r5, [sp, #16]
  89:Core/Src/spi.c ****     HAL_GPIO_Init(GPIOC, &GPIO_InitStruct);
 183              		.loc 1 89 0
 184 0062 0626     		movs	r6, #6
 185 0064 0796     		str	r6, [sp, #28]
  90:Core/Src/spi.c **** 
 186              		.loc 1 90 0
 187 0066 03A9     		add	r1, sp, #12
 188 0068 1F48     		ldr	r0, .L15+4
 189              	.LVL5:
 190 006a FFF7FEFF 		bl	HAL_GPIO_Init
 191              	.LVL6:
  92:Core/Src/spi.c ****     GPIO_InitStruct.Mode = GPIO_MODE_AF_PP;
 192              		.loc 1 92 0
 193 006e 3023     		movs	r3, #48
 194 0070 0393     		str	r3, [sp, #12]
  93:Core/Src/spi.c ****     GPIO_InitStruct.Pull = GPIO_NOPULL;
 195              		.loc 1 93 0
 196 0072 0495     		str	r5, [sp, #16]
  94:Core/Src/spi.c ****     GPIO_InitStruct.Speed = GPIO_SPEED_FREQ_LOW;
ARM GAS  /tmp/cci89IhS.s 			page 7


 197              		.loc 1 94 0
 198 0074 0025     		movs	r5, #0
 199 0076 0595     		str	r5, [sp, #20]
  95:Core/Src/spi.c ****     GPIO_InitStruct.Alternate = GPIO_AF6_SPI3;
 200              		.loc 1 95 0
 201 0078 0695     		str	r5, [sp, #24]
  96:Core/Src/spi.c ****     HAL_GPIO_Init(GPIOB, &GPIO_InitStruct);
 202              		.loc 1 96 0
 203 007a 0796     		str	r6, [sp, #28]
  97:Core/Src/spi.c **** 
 204              		.loc 1 97 0
 205 007c 03A9     		add	r1, sp, #12
 206 007e 1B48     		ldr	r0, .L15+8
 207 0080 FFF7FEFF 		bl	HAL_GPIO_Init
 208              	.LVL7:
 101:Core/Src/spi.c ****     hdma_spi3_rx.Init.Request = DMA_REQUEST_SPI3_RX;
 209              		.loc 1 101 0
 210 0084 1A48     		ldr	r0, .L15+12
 211 0086 1B4B     		ldr	r3, .L15+16
 212 0088 0360     		str	r3, [r0]
 102:Core/Src/spi.c ****     hdma_spi3_rx.Init.Direction = DMA_PERIPH_TO_MEMORY;
 213              		.loc 1 102 0
 214 008a 0E23     		movs	r3, #14
 215 008c 4360     		str	r3, [r0, #4]
 103:Core/Src/spi.c ****     hdma_spi3_rx.Init.PeriphInc = DMA_PINC_DISABLE;
 216              		.loc 1 103 0
 217 008e 8560     		str	r5, [r0, #8]
 104:Core/Src/spi.c ****     hdma_spi3_rx.Init.MemInc = DMA_MINC_ENABLE;
 218              		.loc 1 104 0
 219 0090 C560     		str	r5, [r0, #12]
 105:Core/Src/spi.c ****     hdma_spi3_rx.Init.PeriphDataAlignment = DMA_PDATAALIGN_BYTE;
 220              		.loc 1 105 0
 221 0092 8023     		movs	r3, #128
 222 0094 0361     		str	r3, [r0, #16]
 106:Core/Src/spi.c ****     hdma_spi3_rx.Init.MemDataAlignment = DMA_MDATAALIGN_BYTE;
 223              		.loc 1 106 0
 224 0096 4561     		str	r5, [r0, #20]
 107:Core/Src/spi.c ****     hdma_spi3_rx.Init.Mode = DMA_NORMAL;
 225              		.loc 1 107 0
 226 0098 8561     		str	r5, [r0, #24]
 108:Core/Src/spi.c ****     hdma_spi3_rx.Init.Priority = DMA_PRIORITY_LOW;
 227              		.loc 1 108 0
 228 009a C561     		str	r5, [r0, #28]
 109:Core/Src/spi.c ****     if (HAL_DMA_Init(&hdma_spi3_rx) != HAL_OK)
 229              		.loc 1 109 0
 230 009c 0562     		str	r5, [r0, #32]
 110:Core/Src/spi.c ****     {
 231              		.loc 1 110 0
 232 009e FFF7FEFF 		bl	HAL_DMA_Init
 233              	.LVL8:
 234 00a2 C0B9     		cbnz	r0, .L13
 235              	.L9:
 115:Core/Src/spi.c **** 
 236              		.loc 1 115 0
 237 00a4 124B     		ldr	r3, .L15+12
 238 00a6 A365     		str	r3, [r4, #88]
 239 00a8 9C62     		str	r4, [r3, #40]
ARM GAS  /tmp/cci89IhS.s 			page 8


 118:Core/Src/spi.c ****     hdma_spi3_tx.Init.Request = DMA_REQUEST_SPI3_TX;
 240              		.loc 1 118 0
 241 00aa 1348     		ldr	r0, .L15+20
 242 00ac 134B     		ldr	r3, .L15+24
 243 00ae 0360     		str	r3, [r0]
 119:Core/Src/spi.c ****     hdma_spi3_tx.Init.Direction = DMA_MEMORY_TO_PERIPH;
 244              		.loc 1 119 0
 245 00b0 0F23     		movs	r3, #15
 246 00b2 4360     		str	r3, [r0, #4]
 120:Core/Src/spi.c ****     hdma_spi3_tx.Init.PeriphInc = DMA_PINC_DISABLE;
 247              		.loc 1 120 0
 248 00b4 1023     		movs	r3, #16
 249 00b6 8360     		str	r3, [r0, #8]
 121:Core/Src/spi.c ****     hdma_spi3_tx.Init.MemInc = DMA_MINC_ENABLE;
 250              		.loc 1 121 0
 251 00b8 0023     		movs	r3, #0
 252 00ba C360     		str	r3, [r0, #12]
 122:Core/Src/spi.c ****     hdma_spi3_tx.Init.PeriphDataAlignment = DMA_PDATAALIGN_BYTE;
 253              		.loc 1 122 0
 254 00bc 8022     		movs	r2, #128
 255 00be 0261     		str	r2, [r0, #16]
 123:Core/Src/spi.c ****     hdma_spi3_tx.Init.MemDataAlignment = DMA_MDATAALIGN_BYTE;
 256              		.loc 1 123 0
 257 00c0 4361     		str	r3, [r0, #20]
 124:Core/Src/spi.c ****     hdma_spi3_tx.Init.Mode = DMA_NORMAL;
 258              		.loc 1 124 0
 259 00c2 8361     		str	r3, [r0, #24]
 125:Core/Src/spi.c ****     hdma_spi3_tx.Init.Priority = DMA_PRIORITY_LOW;
 260              		.loc 1 125 0
 261 00c4 C361     		str	r3, [r0, #28]
 126:Core/Src/spi.c ****     if (HAL_DMA_Init(&hdma_spi3_tx) != HAL_OK)
 262              		.loc 1 126 0
 263 00c6 0362     		str	r3, [r0, #32]
 127:Core/Src/spi.c ****     {
 264              		.loc 1 127 0
 265 00c8 FFF7FEFF 		bl	HAL_DMA_Init
 266              	.LVL9:
 267 00cc 30B9     		cbnz	r0, .L14
 268              	.L10:
 132:Core/Src/spi.c **** 
 269              		.loc 1 132 0
 270 00ce 0A4B     		ldr	r3, .L15+20
 271 00d0 6365     		str	r3, [r4, #84]
 272 00d2 9C62     		str	r4, [r3, #40]
 273              		.loc 1 138 0
 274 00d4 A0E7     		b	.L7
 275              	.L13:
 112:Core/Src/spi.c ****     }
 276              		.loc 1 112 0
 277 00d6 FFF7FEFF 		bl	Error_Handler
 278              	.LVL10:
 279 00da E3E7     		b	.L9
 280              	.L14:
 129:Core/Src/spi.c ****     }
 281              		.loc 1 129 0
 282 00dc FFF7FEFF 		bl	Error_Handler
 283              	.LVL11:
ARM GAS  /tmp/cci89IhS.s 			page 9


 284 00e0 F5E7     		b	.L10
 285              	.L16:
 286 00e2 00BF     		.align	2
 287              	.L15:
 288 00e4 003C0040 		.word	1073757184
 289 00e8 00080048 		.word	1207961600
 290 00ec 00040048 		.word	1207960576
 291 00f0 00000000 		.word	hdma_spi3_rx
 292 00f4 1C000240 		.word	1073872924
 293 00f8 00000000 		.word	hdma_spi3_tx
 294 00fc 30000240 		.word	1073872944
 295              		.cfi_endproc
 296              	.LFE330:
 298              		.section	.text.HAL_SPI_MspDeInit,"ax",%progbits
 299              		.align	1
 300              		.global	HAL_SPI_MspDeInit
 301              		.syntax unified
 302              		.thumb
 303              		.thumb_func
 304              		.fpu fpv4-sp-d16
 306              	HAL_SPI_MspDeInit:
 307              	.LFB331:
 139:Core/Src/spi.c **** 
 140:Core/Src/spi.c **** void HAL_SPI_MspDeInit(SPI_HandleTypeDef* spiHandle)
 141:Core/Src/spi.c **** {
 308              		.loc 1 141 0
 309              		.cfi_startproc
 310              		@ args = 0, pretend = 0, frame = 0
 311              		@ frame_needed = 0, uses_anonymous_args = 0
 312              	.LVL12:
 142:Core/Src/spi.c **** 
 143:Core/Src/spi.c ****   if(spiHandle->Instance==SPI3)
 313              		.loc 1 143 0
 314 0000 0268     		ldr	r2, [r0]
 315 0002 0D4B     		ldr	r3, .L24
 316 0004 9A42     		cmp	r2, r3
 317 0006 00D0     		beq	.L23
 318 0008 7047     		bx	lr
 319              	.L23:
 141:Core/Src/spi.c **** 
 320              		.loc 1 141 0
 321 000a 10B5     		push	{r4, lr}
 322              	.LCFI5:
 323              		.cfi_def_cfa_offset 8
 324              		.cfi_offset 4, -8
 325              		.cfi_offset 14, -4
 326 000c 0446     		mov	r4, r0
 144:Core/Src/spi.c ****   {
 145:Core/Src/spi.c ****   /* USER CODE BEGIN SPI3_MspDeInit 0 */
 146:Core/Src/spi.c **** 
 147:Core/Src/spi.c ****   /* USER CODE END SPI3_MspDeInit 0 */
 148:Core/Src/spi.c ****     /* Peripheral clock disable */
 149:Core/Src/spi.c ****     __HAL_RCC_SPI3_CLK_DISABLE();
 327              		.loc 1 149 0
 328 000e 0B4A     		ldr	r2, .L24+4
 329 0010 936D     		ldr	r3, [r2, #88]
 330 0012 23F40043 		bic	r3, r3, #32768
ARM GAS  /tmp/cci89IhS.s 			page 10


 331 0016 9365     		str	r3, [r2, #88]
 150:Core/Src/spi.c **** 
 151:Core/Src/spi.c ****     /**SPI3 GPIO Configuration
 152:Core/Src/spi.c ****     PC10     ------> SPI3_SCK
 153:Core/Src/spi.c ****     PB4     ------> SPI3_MISO
 154:Core/Src/spi.c ****     PB5     ------> SPI3_MOSI
 155:Core/Src/spi.c ****     */
 156:Core/Src/spi.c ****     HAL_GPIO_DeInit(GPIOC, GPIO_PIN_10);
 332              		.loc 1 156 0
 333 0018 4FF48061 		mov	r1, #1024
 334 001c 0848     		ldr	r0, .L24+8
 335              	.LVL13:
 336 001e FFF7FEFF 		bl	HAL_GPIO_DeInit
 337              	.LVL14:
 157:Core/Src/spi.c **** 
 158:Core/Src/spi.c ****     HAL_GPIO_DeInit(GPIOB, GPIO_PIN_4|GPIO_PIN_5);
 338              		.loc 1 158 0
 339 0022 3021     		movs	r1, #48
 340 0024 0748     		ldr	r0, .L24+12
 341 0026 FFF7FEFF 		bl	HAL_GPIO_DeInit
 342              	.LVL15:
 159:Core/Src/spi.c **** 
 160:Core/Src/spi.c ****     /* SPI3 DMA DeInit */
 161:Core/Src/spi.c ****     HAL_DMA_DeInit(spiHandle->hdmarx);
 343              		.loc 1 161 0
 344 002a A06D     		ldr	r0, [r4, #88]
 345 002c FFF7FEFF 		bl	HAL_DMA_DeInit
 346              	.LVL16:
 162:Core/Src/spi.c ****     HAL_DMA_DeInit(spiHandle->hdmatx);
 347              		.loc 1 162 0
 348 0030 606D     		ldr	r0, [r4, #84]
 349 0032 FFF7FEFF 		bl	HAL_DMA_DeInit
 350              	.LVL17:
 163:Core/Src/spi.c ****   /* USER CODE BEGIN SPI3_MspDeInit 1 */
 164:Core/Src/spi.c **** 
 165:Core/Src/spi.c ****   /* USER CODE END SPI3_MspDeInit 1 */
 166:Core/Src/spi.c ****   }
 167:Core/Src/spi.c **** }
 351              		.loc 1 167 0
 352 0036 10BD     		pop	{r4, pc}
 353              	.LVL18:
 354              	.L25:
 355              		.align	2
 356              	.L24:
 357 0038 003C0040 		.word	1073757184
 358 003c 00100240 		.word	1073876992
 359 0040 00080048 		.word	1207961600
 360 0044 00040048 		.word	1207960576
 361              		.cfi_endproc
 362              	.LFE331:
 364              		.comm	hdma_spi3_tx,96,4
 365              		.comm	hdma_spi3_rx,96,4
 366              		.comm	hspi3,100,4
 367              		.text
 368              	.Letext0:
 369              		.file 2 "/usr/include/newlib/machine/_default_types.h"
 370              		.file 3 "/usr/include/newlib/sys/_stdint.h"
ARM GAS  /tmp/cci89IhS.s 			page 11


 371              		.file 4 "Drivers/CMSIS/Include/core_cm4.h"
 372              		.file 5 "Drivers/CMSIS/Device/ST/STM32G4xx/Include/system_stm32g4xx.h"
 373              		.file 6 "Drivers/CMSIS/Device/ST/STM32G4xx/Include/stm32g484xx.h"
 374              		.file 7 "Drivers/STM32G4xx_HAL_Driver/Inc/stm32g4xx_hal_def.h"
 375              		.file 8 "Drivers/STM32G4xx_HAL_Driver/Inc/stm32g4xx_hal_gpio.h"
 376              		.file 9 "Drivers/STM32G4xx_HAL_Driver/Inc/stm32g4xx_hal_dma.h"
 377              		.file 10 "Drivers/STM32G4xx_HAL_Driver/Inc/stm32g4xx_hal_flash.h"
 378              		.file 11 "Drivers/STM32G4xx_HAL_Driver/Inc/stm32g4xx_hal_spi.h"
 379              		.file 12 "Drivers/STM32G4xx_HAL_Driver/Inc/stm32g4xx_hal_uart.h"
 380              		.file 13 "Drivers/STM32G4xx_HAL_Driver/Inc/stm32g4xx_hal.h"
 381              		.file 14 "Core/Inc/spi.h"
 382              		.file 15 "Core/Inc/main.h"
ARM GAS  /tmp/cci89IhS.s 			page 12

