ARM GAS  /tmp/ccyh7qbe.s 			page 1


   1              		.cpu cortex-m4
   2              		.eabi_attribute 27, 1
   3              		.eabi_attribute 28, 1
   4              		.eabi_attribute 20, 1
   5              		.eabi_attribute 21, 1
   6              		.eabi_attribute 23, 3
   7              		.eabi_attribute 24, 1
   8              		.eabi_attribute 25, 1
   9              		.eabi_attribute 26, 1
  10              		.eabi_attribute 30, 1
  11              		.eabi_attribute 34, 1
  12              		.eabi_attribute 18, 4
  13              		.file	"ssd1306_tests.c"
  14              		.text
  15              	.Ltext0:
  16              		.cfi_sections	.debug_frame
  17              		.section	.text.ssd1306_TestBorder,"ax",%progbits
  18              		.align	1
  19              		.global	ssd1306_TestBorder
  20              		.syntax unified
  21              		.thumb
  22              		.thumb_func
  23              		.fpu fpv4-sp-d16
  25              	ssd1306_TestBorder:
  26              	.LFB332:
  27              		.file 1 "Drivers/ssd1306/ssd1306_tests.c"
   1:Drivers/ssd1306/ssd1306_tests.c **** #include <string.h>
   2:Drivers/ssd1306/ssd1306_tests.c **** #include <stdio.h>
   3:Drivers/ssd1306/ssd1306_tests.c **** #include "ssd1306.h"
   4:Drivers/ssd1306/ssd1306_tests.c **** #include "ssd1306_tests.h"
   5:Drivers/ssd1306/ssd1306_tests.c **** 
   6:Drivers/ssd1306/ssd1306_tests.c **** void ssd1306_TestBorder() {
  28              		.loc 1 6 0
  29              		.cfi_startproc
  30              		@ args = 0, pretend = 0, frame = 0
  31              		@ frame_needed = 0, uses_anonymous_args = 0
  32 0000 70B5     		push	{r4, r5, r6, lr}
  33              	.LCFI0:
  34              		.cfi_def_cfa_offset 16
  35              		.cfi_offset 4, -16
  36              		.cfi_offset 5, -12
  37              		.cfi_offset 6, -8
  38              		.cfi_offset 14, -4
   7:Drivers/ssd1306/ssd1306_tests.c ****     ssd1306_Fill(Black);
  39              		.loc 1 7 0
  40 0002 0020     		movs	r0, #0
  41 0004 FFF7FEFF 		bl	ssd1306_Fill
  42              	.LVL0:
   8:Drivers/ssd1306/ssd1306_tests.c ****    
   9:Drivers/ssd1306/ssd1306_tests.c ****     uint32_t start = HAL_GetTick();
  43              		.loc 1 9 0
  44 0008 FFF7FEFF 		bl	HAL_GetTick
  45              	.LVL1:
  46 000c 0646     		mov	r6, r0
  47              	.LVL2:
  10:Drivers/ssd1306/ssd1306_tests.c ****     uint32_t end = start;
  11:Drivers/ssd1306/ssd1306_tests.c ****     uint8_t x = 0;
ARM GAS  /tmp/ccyh7qbe.s 			page 2


  12:Drivers/ssd1306/ssd1306_tests.c ****     uint8_t y = 0;
  48              		.loc 1 12 0
  49 000e 0024     		movs	r4, #0
  11:Drivers/ssd1306/ssd1306_tests.c ****     uint8_t y = 0;
  50              		.loc 1 11 0
  51 0010 2546     		mov	r5, r4
  52 0012 15E0     		b	.L6
  53              	.LVL3:
  54              	.L2:
  13:Drivers/ssd1306/ssd1306_tests.c ****     do {
  14:Drivers/ssd1306/ssd1306_tests.c ****         ssd1306_DrawPixel(x, y, Black);
  15:Drivers/ssd1306/ssd1306_tests.c **** 
  16:Drivers/ssd1306/ssd1306_tests.c ****         if((y == 0) && (x < 127))
  17:Drivers/ssd1306/ssd1306_tests.c ****             x++;
  18:Drivers/ssd1306/ssd1306_tests.c ****         else if((x == 127) && (y < (SSD1306_HEIGHT-1)))
  55              		.loc 1 18 0
  56 0014 7F2D     		cmp	r5, #127
  57 0016 1FD0     		beq	.L8
  58              	.L4:
  19:Drivers/ssd1306/ssd1306_tests.c ****             y++;
  20:Drivers/ssd1306/ssd1306_tests.c ****         else if((y == (SSD1306_HEIGHT-1)) && (x > 0)) 
  59              		.loc 1 20 0
  60 0018 1F2C     		cmp	r4, #31
  61 001a 22D0     		beq	.L9
  62              	.L5:
  21:Drivers/ssd1306/ssd1306_tests.c ****             x--;
  22:Drivers/ssd1306/ssd1306_tests.c ****         else
  23:Drivers/ssd1306/ssd1306_tests.c ****             y--;
  63              		.loc 1 23 0
  64 001c 013C     		subs	r4, r4, #1
  65              	.LVL4:
  66 001e E4B2     		uxtb	r4, r4
  67              	.LVL5:
  68              	.L3:
  24:Drivers/ssd1306/ssd1306_tests.c **** 
  25:Drivers/ssd1306/ssd1306_tests.c ****         ssd1306_DrawPixel(x, y, White);
  69              		.loc 1 25 0
  70 0020 0122     		movs	r2, #1
  71 0022 2146     		mov	r1, r4
  72 0024 2846     		mov	r0, r5
  73 0026 FFF7FEFF 		bl	ssd1306_DrawPixel
  74              	.LVL6:
  26:Drivers/ssd1306/ssd1306_tests.c ****         ssd1306_UpdateScreen();
  75              		.loc 1 26 0
  76 002a FFF7FEFF 		bl	ssd1306_UpdateScreen
  77              	.LVL7:
  27:Drivers/ssd1306/ssd1306_tests.c ****     
  28:Drivers/ssd1306/ssd1306_tests.c ****         HAL_Delay(5);
  78              		.loc 1 28 0
  79 002e 0520     		movs	r0, #5
  80 0030 FFF7FEFF 		bl	HAL_Delay
  81              	.LVL8:
  29:Drivers/ssd1306/ssd1306_tests.c ****         end = HAL_GetTick();
  82              		.loc 1 29 0
  83 0034 FFF7FEFF 		bl	HAL_GetTick
  84              	.LVL9:
  30:Drivers/ssd1306/ssd1306_tests.c ****     } while((end - start) < 8000);
ARM GAS  /tmp/ccyh7qbe.s 			page 3


  85              		.loc 1 30 0
  86 0038 801B     		subs	r0, r0, r6
  87              	.LVL10:
  88 003a B0F5FA5F 		cmp	r0, #8000
  89 003e 15D2     		bcs	.L10
  90              	.LVL11:
  91              	.L6:
  14:Drivers/ssd1306/ssd1306_tests.c **** 
  92              		.loc 1 14 0
  93 0040 0022     		movs	r2, #0
  94 0042 2146     		mov	r1, r4
  95 0044 2846     		mov	r0, r5
  96 0046 FFF7FEFF 		bl	ssd1306_DrawPixel
  97              	.LVL12:
  16:Drivers/ssd1306/ssd1306_tests.c ****             x++;
  98              		.loc 1 16 0
  99 004a 002C     		cmp	r4, #0
 100 004c E2D1     		bne	.L2
  16:Drivers/ssd1306/ssd1306_tests.c ****             x++;
 101              		.loc 1 16 0 is_stmt 0 discriminator 1
 102 004e 7E2D     		cmp	r5, #126
 103 0050 E0D8     		bhi	.L2
  17:Drivers/ssd1306/ssd1306_tests.c ****         else if((x == 127) && (y < (SSD1306_HEIGHT-1)))
 104              		.loc 1 17 0 is_stmt 1
 105 0052 0135     		adds	r5, r5, #1
 106              	.LVL13:
 107 0054 EDB2     		uxtb	r5, r5
 108              	.LVL14:
 109 0056 E3E7     		b	.L3
 110              	.L8:
  18:Drivers/ssd1306/ssd1306_tests.c ****             y++;
 111              		.loc 1 18 0 discriminator 1
 112 0058 1E2C     		cmp	r4, #30
 113 005a DDD8     		bhi	.L4
  19:Drivers/ssd1306/ssd1306_tests.c ****         else if((y == (SSD1306_HEIGHT-1)) && (x > 0)) 
 114              		.loc 1 19 0
 115 005c 0134     		adds	r4, r4, #1
 116              	.LVL15:
 117 005e E4B2     		uxtb	r4, r4
 118              	.LVL16:
 119 0060 DEE7     		b	.L3
 120              	.L9:
  20:Drivers/ssd1306/ssd1306_tests.c ****             x--;
 121              		.loc 1 20 0 discriminator 1
 122 0062 002D     		cmp	r5, #0
 123 0064 DAD0     		beq	.L5
  21:Drivers/ssd1306/ssd1306_tests.c ****         else
 124              		.loc 1 21 0
 125 0066 013D     		subs	r5, r5, #1
 126              	.LVL17:
 127 0068 EDB2     		uxtb	r5, r5
 128              	.LVL18:
 129 006a D9E7     		b	.L3
 130              	.L10:
  31:Drivers/ssd1306/ssd1306_tests.c ****    
  32:Drivers/ssd1306/ssd1306_tests.c ****     HAL_Delay(1000);
 131              		.loc 1 32 0
ARM GAS  /tmp/ccyh7qbe.s 			page 4


 132 006c 4FF47A70 		mov	r0, #1000
 133 0070 FFF7FEFF 		bl	HAL_Delay
 134              	.LVL19:
  33:Drivers/ssd1306/ssd1306_tests.c **** }
 135              		.loc 1 33 0
 136 0074 70BD     		pop	{r4, r5, r6, pc}
 137              		.cfi_endproc
 138              	.LFE332:
 140              		.section	.text.ssd1306_TestFonts,"ax",%progbits
 141              		.align	1
 142              		.global	ssd1306_TestFonts
 143              		.syntax unified
 144              		.thumb
 145              		.thumb_func
 146              		.fpu fpv4-sp-d16
 148              	ssd1306_TestFonts:
 149              	.LFB333:
  34:Drivers/ssd1306/ssd1306_tests.c **** 
  35:Drivers/ssd1306/ssd1306_tests.c **** void ssd1306_TestFonts() {
 150              		.loc 1 35 0
 151              		.cfi_startproc
 152              		@ args = 0, pretend = 0, frame = 0
 153              		@ frame_needed = 0, uses_anonymous_args = 0
 154 0000 08B5     		push	{r3, lr}
 155              	.LCFI1:
 156              		.cfi_def_cfa_offset 8
 157              		.cfi_offset 3, -8
 158              		.cfi_offset 14, -4
  36:Drivers/ssd1306/ssd1306_tests.c ****     ssd1306_Fill(Black);
 159              		.loc 1 36 0
 160 0002 0020     		movs	r0, #0
 161 0004 FFF7FEFF 		bl	ssd1306_Fill
 162              	.LVL20:
  37:Drivers/ssd1306/ssd1306_tests.c ****     ssd1306_SetCursor(2, 0);
 163              		.loc 1 37 0
 164 0008 0021     		movs	r1, #0
 165 000a 0220     		movs	r0, #2
 166 000c FFF7FEFF 		bl	ssd1306_SetCursor
 167              	.LVL21:
  38:Drivers/ssd1306/ssd1306_tests.c ****     ssd1306_WriteString("Font 16x26", Font_16x26, White);
 168              		.loc 1 38 0
 169 0010 134A     		ldr	r2, .L13
 170 0012 0123     		movs	r3, #1
 171 0014 06CA     		ldm	r2, {r1, r2}
 172 0016 1348     		ldr	r0, .L13+4
 173 0018 FFF7FEFF 		bl	ssd1306_WriteString
 174              	.LVL22:
  39:Drivers/ssd1306/ssd1306_tests.c ****     ssd1306_SetCursor(2, 26);
 175              		.loc 1 39 0
 176 001c 1A21     		movs	r1, #26
 177 001e 0220     		movs	r0, #2
 178 0020 FFF7FEFF 		bl	ssd1306_SetCursor
 179              	.LVL23:
  40:Drivers/ssd1306/ssd1306_tests.c ****     ssd1306_WriteString("Font 11x18", Font_11x18, White);
 180              		.loc 1 40 0
 181 0024 104A     		ldr	r2, .L13+8
 182 0026 0123     		movs	r3, #1
ARM GAS  /tmp/ccyh7qbe.s 			page 5


 183 0028 06CA     		ldm	r2, {r1, r2}
 184 002a 1048     		ldr	r0, .L13+12
 185 002c FFF7FEFF 		bl	ssd1306_WriteString
 186              	.LVL24:
  41:Drivers/ssd1306/ssd1306_tests.c ****     ssd1306_SetCursor(2, 26+18);
 187              		.loc 1 41 0
 188 0030 2C21     		movs	r1, #44
 189 0032 0220     		movs	r0, #2
 190 0034 FFF7FEFF 		bl	ssd1306_SetCursor
 191              	.LVL25:
  42:Drivers/ssd1306/ssd1306_tests.c ****     ssd1306_WriteString("Font 7x10", Font_7x10, White);
 192              		.loc 1 42 0
 193 0038 0D4A     		ldr	r2, .L13+16
 194 003a 0123     		movs	r3, #1
 195 003c 06CA     		ldm	r2, {r1, r2}
 196 003e 0D48     		ldr	r0, .L13+20
 197 0040 FFF7FEFF 		bl	ssd1306_WriteString
 198              	.LVL26:
  43:Drivers/ssd1306/ssd1306_tests.c ****     ssd1306_SetCursor(2, 26+18+10);
 199              		.loc 1 43 0
 200 0044 3621     		movs	r1, #54
 201 0046 0220     		movs	r0, #2
 202 0048 FFF7FEFF 		bl	ssd1306_SetCursor
 203              	.LVL27:
  44:Drivers/ssd1306/ssd1306_tests.c ****     ssd1306_WriteString("Font 6x8", Font_6x8, White);
 204              		.loc 1 44 0
 205 004c 0A4A     		ldr	r2, .L13+24
 206 004e 0123     		movs	r3, #1
 207 0050 06CA     		ldm	r2, {r1, r2}
 208 0052 0A48     		ldr	r0, .L13+28
 209 0054 FFF7FEFF 		bl	ssd1306_WriteString
 210              	.LVL28:
  45:Drivers/ssd1306/ssd1306_tests.c ****     ssd1306_UpdateScreen();
 211              		.loc 1 45 0
 212 0058 FFF7FEFF 		bl	ssd1306_UpdateScreen
 213              	.LVL29:
  46:Drivers/ssd1306/ssd1306_tests.c **** }
 214              		.loc 1 46 0
 215 005c 08BD     		pop	{r3, pc}
 216              	.L14:
 217 005e 00BF     		.align	2
 218              	.L13:
 219 0060 00000000 		.word	Font_16x26
 220 0064 00000000 		.word	.LC1
 221 0068 00000000 		.word	Font_11x18
 222 006c 0C000000 		.word	.LC2
 223 0070 00000000 		.word	Font_7x10
 224 0074 18000000 		.word	.LC3
 225 0078 00000000 		.word	Font_6x8
 226 007c 24000000 		.word	.LC4
 227              		.cfi_endproc
 228              	.LFE333:
 230              		.global	__aeabi_f2d
 231              		.global	__aeabi_ui2d
 232              		.global	__aeabi_ddiv
 233              		.global	__aeabi_d2iz
 234              		.section	.text.ssd1306_TestFPS,"ax",%progbits
ARM GAS  /tmp/ccyh7qbe.s 			page 6


 235              		.align	1
 236              		.global	ssd1306_TestFPS
 237              		.syntax unified
 238              		.thumb
 239              		.thumb_func
 240              		.fpu fpv4-sp-d16
 242              	ssd1306_TestFPS:
 243              	.LFB334:
  47:Drivers/ssd1306/ssd1306_tests.c **** 
  48:Drivers/ssd1306/ssd1306_tests.c **** void ssd1306_TestFPS() {
 244              		.loc 1 48 0
 245              		.cfi_startproc
 246              		@ args = 0, pretend = 0, frame = 80
 247              		@ frame_needed = 0, uses_anonymous_args = 0
 248 0000 F0B5     		push	{r4, r5, r6, r7, lr}
 249              	.LCFI2:
 250              		.cfi_def_cfa_offset 20
 251              		.cfi_offset 4, -20
 252              		.cfi_offset 5, -16
 253              		.cfi_offset 6, -12
 254              		.cfi_offset 7, -8
 255              		.cfi_offset 14, -4
 256 0002 95B0     		sub	sp, sp, #84
 257              	.LCFI3:
 258              		.cfi_def_cfa_offset 104
  49:Drivers/ssd1306/ssd1306_tests.c ****     ssd1306_Fill(White);
 259              		.loc 1 49 0
 260 0004 0120     		movs	r0, #1
 261 0006 FFF7FEFF 		bl	ssd1306_Fill
 262              	.LVL30:
  50:Drivers/ssd1306/ssd1306_tests.c ****    
  51:Drivers/ssd1306/ssd1306_tests.c ****     uint32_t start = HAL_GetTick();
 263              		.loc 1 51 0
 264 000a FFF7FEFF 		bl	HAL_GetTick
 265              	.LVL31:
 266 000e 0646     		mov	r6, r0
 267              	.LVL32:
  52:Drivers/ssd1306/ssd1306_tests.c ****     uint32_t end = start;
  53:Drivers/ssd1306/ssd1306_tests.c ****     int fps = 0;
  54:Drivers/ssd1306/ssd1306_tests.c ****     char message[] = "ABCDEFGHIJK";
 268              		.loc 1 54 0
 269 0010 314B     		ldr	r3, .L18
 270 0012 93E80700 		ldm	r3, {r0, r1, r2}
 271              	.LVL33:
 272 0016 14AB     		add	r3, sp, #80
 273 0018 03E90700 		stmdb	r3, {r0, r1, r2}
  55:Drivers/ssd1306/ssd1306_tests.c ****    
  56:Drivers/ssd1306/ssd1306_tests.c ****     ssd1306_SetCursor(2,0);
 274              		.loc 1 56 0
 275 001c 0021     		movs	r1, #0
 276 001e 0220     		movs	r0, #2
 277 0020 FFF7FEFF 		bl	ssd1306_SetCursor
 278              	.LVL34:
  57:Drivers/ssd1306/ssd1306_tests.c ****     ssd1306_WriteString("Testing...", Font_11x18, Black);
 279              		.loc 1 57 0
 280 0024 2D4A     		ldr	r2, .L18+4
 281 0026 0023     		movs	r3, #0
ARM GAS  /tmp/ccyh7qbe.s 			page 7


 282 0028 06CA     		ldm	r2, {r1, r2}
 283 002a 2D48     		ldr	r0, .L18+8
 284 002c FFF7FEFF 		bl	ssd1306_WriteString
 285              	.LVL35:
  53:Drivers/ssd1306/ssd1306_tests.c ****     char message[] = "ABCDEFGHIJK";
 286              		.loc 1 53 0
 287 0030 0024     		movs	r4, #0
 288              	.LVL36:
 289              	.L16:
 290              	.LBB2:
  58:Drivers/ssd1306/ssd1306_tests.c ****    
  59:Drivers/ssd1306/ssd1306_tests.c ****     do {
  60:Drivers/ssd1306/ssd1306_tests.c ****         ssd1306_SetCursor(2, 18);
 291              		.loc 1 60 0 discriminator 1
 292 0032 1221     		movs	r1, #18
 293 0034 0220     		movs	r0, #2
 294 0036 FFF7FEFF 		bl	ssd1306_SetCursor
 295              	.LVL37:
  61:Drivers/ssd1306/ssd1306_tests.c ****         ssd1306_WriteString(message, Font_11x18, Black);
 296              		.loc 1 61 0 discriminator 1
 297 003a 284A     		ldr	r2, .L18+4
 298 003c 0023     		movs	r3, #0
 299 003e 06CA     		ldm	r2, {r1, r2}
 300 0040 11A8     		add	r0, sp, #68
 301 0042 FFF7FEFF 		bl	ssd1306_WriteString
 302              	.LVL38:
  62:Drivers/ssd1306/ssd1306_tests.c ****         ssd1306_UpdateScreen();
 303              		.loc 1 62 0 discriminator 1
 304 0046 FFF7FEFF 		bl	ssd1306_UpdateScreen
 305              	.LVL39:
  63:Drivers/ssd1306/ssd1306_tests.c ****        
  64:Drivers/ssd1306/ssd1306_tests.c ****         char ch = message[0];
 306              		.loc 1 64 0 discriminator 1
 307 004a 9DF84450 		ldrb	r5, [sp, #68]	@ zero_extendqisi2
 308              	.LVL40:
  65:Drivers/ssd1306/ssd1306_tests.c ****         memmove(message, message+1, sizeof(message)-2);
 309              		.loc 1 65 0 discriminator 1
 310 004e 0A22     		movs	r2, #10
 311 0050 0DF14501 		add	r1, sp, #69
 312 0054 11A8     		add	r0, sp, #68
 313 0056 FFF7FEFF 		bl	memmove
 314              	.LVL41:
  66:Drivers/ssd1306/ssd1306_tests.c ****         message[sizeof(message)-2] = ch;
 315              		.loc 1 66 0 discriminator 1
 316 005a 8DF84E50 		strb	r5, [sp, #78]
  67:Drivers/ssd1306/ssd1306_tests.c **** 
  68:Drivers/ssd1306/ssd1306_tests.c ****         fps++;
 317              		.loc 1 68 0 discriminator 1
 318 005e 0134     		adds	r4, r4, #1
 319              	.LVL42:
  69:Drivers/ssd1306/ssd1306_tests.c ****         end = HAL_GetTick();
 320              		.loc 1 69 0 discriminator 1
 321 0060 FFF7FEFF 		bl	HAL_GetTick
 322              	.LVL43:
 323              	.LBE2:
  70:Drivers/ssd1306/ssd1306_tests.c ****     } while((end - start) < 5000);
 324              		.loc 1 70 0 discriminator 1
ARM GAS  /tmp/ccyh7qbe.s 			page 8


 325 0064 851B     		subs	r5, r0, r6
 326              	.LVL44:
 327 0066 41F28733 		movw	r3, #4999
 328 006a 9D42     		cmp	r5, r3
 329 006c E1D9     		bls	.L16
  71:Drivers/ssd1306/ssd1306_tests.c ****    
  72:Drivers/ssd1306/ssd1306_tests.c ****     HAL_Delay(1000);
 330              		.loc 1 72 0
 331 006e 4FF47A70 		mov	r0, #1000
 332              	.LVL45:
 333 0072 FFF7FEFF 		bl	HAL_Delay
 334              	.LVL46:
  73:Drivers/ssd1306/ssd1306_tests.c **** 
  74:Drivers/ssd1306/ssd1306_tests.c ****     char buff[64];
  75:Drivers/ssd1306/ssd1306_tests.c ****     fps = (float)fps / ((end - start) / 1000.0);
 335              		.loc 1 75 0
 336 0076 07EE904A 		vmov	s15, r4	@ int
 337 007a F8EEE77A 		vcvt.f32.s32	s15, s15
 338 007e 17EE900A 		vmov	r0, s15
 339 0082 FFF7FEFF 		bl	__aeabi_f2d
 340              	.LVL47:
 341 0086 0646     		mov	r6, r0
 342              	.LVL48:
 343 0088 0F46     		mov	r7, r1
 344 008a 2846     		mov	r0, r5
 345 008c FFF7FEFF 		bl	__aeabi_ui2d
 346              	.LVL49:
 347 0090 0022     		movs	r2, #0
 348 0092 144B     		ldr	r3, .L18+12
 349 0094 FFF7FEFF 		bl	__aeabi_ddiv
 350              	.LVL50:
 351 0098 0246     		mov	r2, r0
 352 009a 0B46     		mov	r3, r1
 353 009c 3046     		mov	r0, r6
 354 009e 3946     		mov	r1, r7
 355 00a0 FFF7FEFF 		bl	__aeabi_ddiv
 356              	.LVL51:
 357 00a4 FFF7FEFF 		bl	__aeabi_d2iz
 358              	.LVL52:
  76:Drivers/ssd1306/ssd1306_tests.c ****     snprintf(buff, sizeof(buff), "~%d FPS", fps);
 359              		.loc 1 76 0
 360 00a8 0346     		mov	r3, r0
 361 00aa 0F4A     		ldr	r2, .L18+16
 362 00ac 4021     		movs	r1, #64
 363 00ae 01A8     		add	r0, sp, #4
 364              	.LVL53:
 365 00b0 FFF7FEFF 		bl	snprintf
 366              	.LVL54:
  77:Drivers/ssd1306/ssd1306_tests.c ****    
  78:Drivers/ssd1306/ssd1306_tests.c ****     ssd1306_Fill(White);
 367              		.loc 1 78 0
 368 00b4 0120     		movs	r0, #1
 369 00b6 FFF7FEFF 		bl	ssd1306_Fill
 370              	.LVL55:
  79:Drivers/ssd1306/ssd1306_tests.c ****     ssd1306_SetCursor(2, 2);
 371              		.loc 1 79 0
 372 00ba 0221     		movs	r1, #2
ARM GAS  /tmp/ccyh7qbe.s 			page 9


 373 00bc 0846     		mov	r0, r1
 374 00be FFF7FEFF 		bl	ssd1306_SetCursor
 375              	.LVL56:
  80:Drivers/ssd1306/ssd1306_tests.c ****     ssd1306_WriteString(buff, Font_11x18, Black);
 376              		.loc 1 80 0
 377 00c2 064A     		ldr	r2, .L18+4
 378 00c4 0023     		movs	r3, #0
 379 00c6 06CA     		ldm	r2, {r1, r2}
 380 00c8 01A8     		add	r0, sp, #4
 381 00ca FFF7FEFF 		bl	ssd1306_WriteString
 382              	.LVL57:
  81:Drivers/ssd1306/ssd1306_tests.c ****     ssd1306_UpdateScreen();
 383              		.loc 1 81 0
 384 00ce FFF7FEFF 		bl	ssd1306_UpdateScreen
 385              	.LVL58:
  82:Drivers/ssd1306/ssd1306_tests.c **** }
 386              		.loc 1 82 0
 387 00d2 15B0     		add	sp, sp, #84
 388              	.LCFI4:
 389              		.cfi_def_cfa_offset 20
 390              		@ sp needed
 391 00d4 F0BD     		pop	{r4, r5, r6, r7, pc}
 392              	.L19:
 393 00d6 00BF     		.align	2
 394              	.L18:
 395 00d8 14000000 		.word	.LC5
 396 00dc 00000000 		.word	Font_11x18
 397 00e0 00000000 		.word	.LC6
 398 00e4 00408F40 		.word	1083129856
 399 00e8 0C000000 		.word	.LC7
 400              		.cfi_endproc
 401              	.LFE334:
 403              		.section	.text.ssd1306_TestLine,"ax",%progbits
 404              		.align	1
 405              		.global	ssd1306_TestLine
 406              		.syntax unified
 407              		.thumb
 408              		.thumb_func
 409              		.fpu fpv4-sp-d16
 411              	ssd1306_TestLine:
 412              	.LFB335:
  83:Drivers/ssd1306/ssd1306_tests.c **** 
  84:Drivers/ssd1306/ssd1306_tests.c **** void ssd1306_TestLine() {
 413              		.loc 1 84 0
 414              		.cfi_startproc
 415              		@ args = 0, pretend = 0, frame = 0
 416              		@ frame_needed = 0, uses_anonymous_args = 0
 417 0000 10B5     		push	{r4, lr}
 418              	.LCFI5:
 419              		.cfi_def_cfa_offset 8
 420              		.cfi_offset 4, -8
 421              		.cfi_offset 14, -4
 422 0002 82B0     		sub	sp, sp, #8
 423              	.LCFI6:
 424              		.cfi_def_cfa_offset 16
  85:Drivers/ssd1306/ssd1306_tests.c **** 
  86:Drivers/ssd1306/ssd1306_tests.c ****   ssd1306_Line(1,1,SSD1306_WIDTH - 1,SSD1306_HEIGHT - 1,White);
ARM GAS  /tmp/ccyh7qbe.s 			page 10


 425              		.loc 1 86 0
 426 0004 0124     		movs	r4, #1
 427 0006 0094     		str	r4, [sp]
 428 0008 1F23     		movs	r3, #31
 429 000a 7F22     		movs	r2, #127
 430 000c 2146     		mov	r1, r4
 431 000e 2046     		mov	r0, r4
 432 0010 FFF7FEFF 		bl	ssd1306_Line
 433              	.LVL59:
  87:Drivers/ssd1306/ssd1306_tests.c ****   ssd1306_Line(SSD1306_WIDTH - 1,1,1,SSD1306_HEIGHT - 1,White);
 434              		.loc 1 87 0
 435 0014 0094     		str	r4, [sp]
 436 0016 1F23     		movs	r3, #31
 437 0018 2246     		mov	r2, r4
 438 001a 2146     		mov	r1, r4
 439 001c 7F20     		movs	r0, #127
 440 001e FFF7FEFF 		bl	ssd1306_Line
 441              	.LVL60:
  88:Drivers/ssd1306/ssd1306_tests.c ****   ssd1306_UpdateScreen();
 442              		.loc 1 88 0
 443 0022 FFF7FEFF 		bl	ssd1306_UpdateScreen
 444              	.LVL61:
  89:Drivers/ssd1306/ssd1306_tests.c ****   return;
  90:Drivers/ssd1306/ssd1306_tests.c **** }
 445              		.loc 1 90 0
 446 0026 02B0     		add	sp, sp, #8
 447              	.LCFI7:
 448              		.cfi_def_cfa_offset 8
 449              		@ sp needed
 450 0028 10BD     		pop	{r4, pc}
 451              		.cfi_endproc
 452              	.LFE335:
 454              		.section	.text.ssd1306_TestRectangle,"ax",%progbits
 455              		.align	1
 456              		.global	ssd1306_TestRectangle
 457              		.syntax unified
 458              		.thumb
 459              		.thumb_func
 460              		.fpu fpv4-sp-d16
 462              	ssd1306_TestRectangle:
 463              	.LFB336:
  91:Drivers/ssd1306/ssd1306_tests.c **** 
  92:Drivers/ssd1306/ssd1306_tests.c **** void ssd1306_TestRectangle() {
 464              		.loc 1 92 0
 465              		.cfi_startproc
 466              		@ args = 0, pretend = 0, frame = 0
 467              		@ frame_needed = 0, uses_anonymous_args = 0
 468 0000 10B5     		push	{r4, lr}
 469              	.LCFI8:
 470              		.cfi_def_cfa_offset 8
 471              		.cfi_offset 4, -8
 472              		.cfi_offset 14, -4
 473 0002 82B0     		sub	sp, sp, #8
 474              	.LCFI9:
 475              		.cfi_def_cfa_offset 16
 476              	.LVL62:
  93:Drivers/ssd1306/ssd1306_tests.c ****   uint32_t delta;
ARM GAS  /tmp/ccyh7qbe.s 			page 11


  94:Drivers/ssd1306/ssd1306_tests.c **** 
  95:Drivers/ssd1306/ssd1306_tests.c ****   for(delta = 0; delta < 5; delta ++) {
 477              		.loc 1 95 0
 478 0004 0024     		movs	r4, #0
 479 0006 10E0     		b	.L23
 480              	.LVL63:
 481              	.L24:
  96:Drivers/ssd1306/ssd1306_tests.c ****     ssd1306_DrawRectangle(1 + (5*delta),1 + (5*delta) ,SSD1306_WIDTH-1 - (5*delta),SSD1306_HEIGHT-1
 482              		.loc 1 96 0 discriminator 3
 483 0008 04EB8402 		add	r2, r4, r4, lsl #2
 484 000c D2B2     		uxtb	r2, r2
 485 000e 501C     		adds	r0, r2, #1
 486 0010 C0B2     		uxtb	r0, r0
 487 0012 C2F11F03 		rsb	r3, r2, #31
 488 0016 C2F17F02 		rsb	r2, r2, #127
 489 001a 0121     		movs	r1, #1
 490 001c 0091     		str	r1, [sp]
 491 001e DBB2     		uxtb	r3, r3
 492 0020 D2B2     		uxtb	r2, r2
 493 0022 0146     		mov	r1, r0
 494 0024 FFF7FEFF 		bl	ssd1306_DrawRectangle
 495              	.LVL64:
  95:Drivers/ssd1306/ssd1306_tests.c ****     ssd1306_DrawRectangle(1 + (5*delta),1 + (5*delta) ,SSD1306_WIDTH-1 - (5*delta),SSD1306_HEIGHT-1
 496              		.loc 1 95 0 discriminator 3
 497 0028 0134     		adds	r4, r4, #1
 498              	.LVL65:
 499              	.L23:
  95:Drivers/ssd1306/ssd1306_tests.c ****     ssd1306_DrawRectangle(1 + (5*delta),1 + (5*delta) ,SSD1306_WIDTH-1 - (5*delta),SSD1306_HEIGHT-1
 500              		.loc 1 95 0 is_stmt 0 discriminator 1
 501 002a 042C     		cmp	r4, #4
 502 002c ECD9     		bls	.L24
  97:Drivers/ssd1306/ssd1306_tests.c ****   }
  98:Drivers/ssd1306/ssd1306_tests.c ****   ssd1306_UpdateScreen();
 503              		.loc 1 98 0 is_stmt 1
 504 002e FFF7FEFF 		bl	ssd1306_UpdateScreen
 505              	.LVL66:
  99:Drivers/ssd1306/ssd1306_tests.c ****   return;
 100:Drivers/ssd1306/ssd1306_tests.c **** }
 506              		.loc 1 100 0
 507 0032 02B0     		add	sp, sp, #8
 508              	.LCFI10:
 509              		.cfi_def_cfa_offset 8
 510              		@ sp needed
 511 0034 10BD     		pop	{r4, pc}
 512              		.cfi_endproc
 513              	.LFE336:
 515              		.section	.text.ssd1306_TestCircle,"ax",%progbits
 516              		.align	1
 517              		.global	ssd1306_TestCircle
 518              		.syntax unified
 519              		.thumb
 520              		.thumb_func
 521              		.fpu fpv4-sp-d16
 523              	ssd1306_TestCircle:
 524              	.LFB337:
 101:Drivers/ssd1306/ssd1306_tests.c **** 
 102:Drivers/ssd1306/ssd1306_tests.c **** void ssd1306_TestCircle() {
ARM GAS  /tmp/ccyh7qbe.s 			page 12


 525              		.loc 1 102 0
 526              		.cfi_startproc
 527              		@ args = 0, pretend = 0, frame = 0
 528              		@ frame_needed = 0, uses_anonymous_args = 0
 529 0000 10B5     		push	{r4, lr}
 530              	.LCFI11:
 531              		.cfi_def_cfa_offset 8
 532              		.cfi_offset 4, -8
 533              		.cfi_offset 14, -4
 534              	.LVL67:
 103:Drivers/ssd1306/ssd1306_tests.c ****   uint32_t delta;
 104:Drivers/ssd1306/ssd1306_tests.c **** 
 105:Drivers/ssd1306/ssd1306_tests.c ****   for(delta = 0; delta < 5; delta ++) {
 535              		.loc 1 105 0
 536 0002 0024     		movs	r4, #0
 537 0004 0BE0     		b	.L27
 538              	.LVL68:
 539              	.L28:
 106:Drivers/ssd1306/ssd1306_tests.c ****     ssd1306_DrawCircle(20* delta+30, 15, 10, White);
 540              		.loc 1 106 0 discriminator 3
 541 0006 04EB8403 		add	r3, r4, r4, lsl #2
 542 000a 9800     		lsls	r0, r3, #2
 543 000c 1E30     		adds	r0, r0, #30
 544 000e 0123     		movs	r3, #1
 545 0010 0A22     		movs	r2, #10
 546 0012 0F21     		movs	r1, #15
 547 0014 00F0FE00 		and	r0, r0, #254
 548 0018 FFF7FEFF 		bl	ssd1306_DrawCircle
 549              	.LVL69:
 105:Drivers/ssd1306/ssd1306_tests.c ****     ssd1306_DrawCircle(20* delta+30, 15, 10, White);
 550              		.loc 1 105 0 discriminator 3
 551 001c 0134     		adds	r4, r4, #1
 552              	.LVL70:
 553              	.L27:
 105:Drivers/ssd1306/ssd1306_tests.c ****     ssd1306_DrawCircle(20* delta+30, 15, 10, White);
 554              		.loc 1 105 0 is_stmt 0 discriminator 1
 555 001e 042C     		cmp	r4, #4
 556 0020 F1D9     		bls	.L28
 107:Drivers/ssd1306/ssd1306_tests.c ****   }
 108:Drivers/ssd1306/ssd1306_tests.c ****   ssd1306_UpdateScreen();
 557              		.loc 1 108 0 is_stmt 1
 558 0022 FFF7FEFF 		bl	ssd1306_UpdateScreen
 559              	.LVL71:
 109:Drivers/ssd1306/ssd1306_tests.c ****   return;
 110:Drivers/ssd1306/ssd1306_tests.c **** }
 560              		.loc 1 110 0
 561 0026 10BD     		pop	{r4, pc}
 562              		.cfi_endproc
 563              	.LFE337:
 565              		.section	.text.ssd1306_TestArc,"ax",%progbits
 566              		.align	1
 567              		.global	ssd1306_TestArc
 568              		.syntax unified
 569              		.thumb
 570              		.thumb_func
 571              		.fpu fpv4-sp-d16
 573              	ssd1306_TestArc:
ARM GAS  /tmp/ccyh7qbe.s 			page 13


 574              	.LFB338:
 111:Drivers/ssd1306/ssd1306_tests.c **** 
 112:Drivers/ssd1306/ssd1306_tests.c **** void ssd1306_TestArc() {
 575              		.loc 1 112 0
 576              		.cfi_startproc
 577              		@ args = 0, pretend = 0, frame = 0
 578              		@ frame_needed = 0, uses_anonymous_args = 0
 579 0000 00B5     		push	{lr}
 580              	.LCFI12:
 581              		.cfi_def_cfa_offset 4
 582              		.cfi_offset 14, -4
 583 0002 83B0     		sub	sp, sp, #12
 584              	.LCFI13:
 585              		.cfi_def_cfa_offset 16
 113:Drivers/ssd1306/ssd1306_tests.c ****   ssd1306_DrawArc(30, 30, 30, 20, 270, White);
 586              		.loc 1 113 0
 587 0004 0123     		movs	r3, #1
 588 0006 0193     		str	r3, [sp, #4]
 589 0008 4FF48773 		mov	r3, #270
 590 000c 0093     		str	r3, [sp]
 591 000e 1423     		movs	r3, #20
 592 0010 1E22     		movs	r2, #30
 593 0012 1146     		mov	r1, r2
 594 0014 1046     		mov	r0, r2
 595 0016 FFF7FEFF 		bl	ssd1306_DrawArc
 596              	.LVL72:
 114:Drivers/ssd1306/ssd1306_tests.c ****   ssd1306_UpdateScreen();
 597              		.loc 1 114 0
 598 001a FFF7FEFF 		bl	ssd1306_UpdateScreen
 599              	.LVL73:
 115:Drivers/ssd1306/ssd1306_tests.c ****   return;
 116:Drivers/ssd1306/ssd1306_tests.c **** }
 600              		.loc 1 116 0
 601 001e 03B0     		add	sp, sp, #12
 602              	.LCFI14:
 603              		.cfi_def_cfa_offset 4
 604              		@ sp needed
 605 0020 5DF804FB 		ldr	pc, [sp], #4
 606              		.cfi_endproc
 607              	.LFE338:
 609              		.section	.text.ssd1306_TestPolyline,"ax",%progbits
 610              		.align	1
 611              		.global	ssd1306_TestPolyline
 612              		.syntax unified
 613              		.thumb
 614              		.thumb_func
 615              		.fpu fpv4-sp-d16
 617              	ssd1306_TestPolyline:
 618              	.LFB339:
 117:Drivers/ssd1306/ssd1306_tests.c **** 
 118:Drivers/ssd1306/ssd1306_tests.c **** void ssd1306_TestPolyline() {
 619              		.loc 1 118 0
 620              		.cfi_startproc
 621              		@ args = 0, pretend = 0, frame = 16
 622              		@ frame_needed = 0, uses_anonymous_args = 0
 623 0000 10B5     		push	{r4, lr}
 624              	.LCFI15:
ARM GAS  /tmp/ccyh7qbe.s 			page 14


 625              		.cfi_def_cfa_offset 8
 626              		.cfi_offset 4, -8
 627              		.cfi_offset 14, -4
 628 0002 84B0     		sub	sp, sp, #16
 629              	.LCFI16:
 630              		.cfi_def_cfa_offset 24
 119:Drivers/ssd1306/ssd1306_tests.c ****   SSD1306_VERTEX loc_vertex[] =
 631              		.loc 1 119 0
 632 0004 064B     		ldr	r3, .L34
 633 0006 6C46     		mov	r4, sp
 634 0008 0FCB     		ldm	r3, {r0, r1, r2, r3}
 635 000a 07C4     		stmia	r4!, {r0, r1, r2}
 636 000c 2380     		strh	r3, [r4]	@ movhi
 120:Drivers/ssd1306/ssd1306_tests.c ****   {
 121:Drivers/ssd1306/ssd1306_tests.c ****       {35,40},
 122:Drivers/ssd1306/ssd1306_tests.c ****       {40,20},
 123:Drivers/ssd1306/ssd1306_tests.c ****       {45,28},
 124:Drivers/ssd1306/ssd1306_tests.c ****       {50,10},
 125:Drivers/ssd1306/ssd1306_tests.c ****       {45,16},
 126:Drivers/ssd1306/ssd1306_tests.c ****       {50,10},
 127:Drivers/ssd1306/ssd1306_tests.c ****       {53,16}
 128:Drivers/ssd1306/ssd1306_tests.c ****   };
 129:Drivers/ssd1306/ssd1306_tests.c **** 
 130:Drivers/ssd1306/ssd1306_tests.c ****   ssd1306_Polyline(loc_vertex,sizeof(loc_vertex)/sizeof(loc_vertex[0]),White);
 637              		.loc 1 130 0
 638 000e 0122     		movs	r2, #1
 639 0010 0721     		movs	r1, #7
 640 0012 6846     		mov	r0, sp
 641 0014 FFF7FEFF 		bl	ssd1306_Polyline
 642              	.LVL74:
 131:Drivers/ssd1306/ssd1306_tests.c ****   ssd1306_UpdateScreen();
 643              		.loc 1 131 0
 644 0018 FFF7FEFF 		bl	ssd1306_UpdateScreen
 645              	.LVL75:
 132:Drivers/ssd1306/ssd1306_tests.c ****   return;
 133:Drivers/ssd1306/ssd1306_tests.c **** }
 646              		.loc 1 133 0
 647 001c 04B0     		add	sp, sp, #16
 648              	.LCFI17:
 649              		.cfi_def_cfa_offset 8
 650              		@ sp needed
 651 001e 10BD     		pop	{r4, pc}
 652              	.L35:
 653              		.align	2
 654              	.L34:
 655 0020 00000000 		.word	.LANCHOR0
 656              		.cfi_endproc
 657              	.LFE339:
 659              		.section	.text.ssd1306_TestAll,"ax",%progbits
 660              		.align	1
 661              		.global	ssd1306_TestAll
 662              		.syntax unified
 663              		.thumb
 664              		.thumb_func
 665              		.fpu fpv4-sp-d16
 667              	ssd1306_TestAll:
 668              	.LFB340:
ARM GAS  /tmp/ccyh7qbe.s 			page 15


 134:Drivers/ssd1306/ssd1306_tests.c **** 
 135:Drivers/ssd1306/ssd1306_tests.c **** void ssd1306_TestAll() {
 669              		.loc 1 135 0
 670              		.cfi_startproc
 671              		@ args = 0, pretend = 0, frame = 0
 672              		@ frame_needed = 0, uses_anonymous_args = 0
 673 0000 08B5     		push	{r3, lr}
 674              	.LCFI18:
 675              		.cfi_def_cfa_offset 8
 676              		.cfi_offset 3, -8
 677              		.cfi_offset 14, -4
 136:Drivers/ssd1306/ssd1306_tests.c ****     ssd1306_Init();
 678              		.loc 1 136 0
 679 0002 FFF7FEFF 		bl	ssd1306_Init
 680              	.LVL76:
 137:Drivers/ssd1306/ssd1306_tests.c ****     ssd1306_TestFPS();
 681              		.loc 1 137 0
 682 0006 FFF7FEFF 		bl	ssd1306_TestFPS
 683              	.LVL77:
 138:Drivers/ssd1306/ssd1306_tests.c ****     //HAL_Delay(3000);
 139:Drivers/ssd1306/ssd1306_tests.c ****     //ssd1306_TestBorder();
 140:Drivers/ssd1306/ssd1306_tests.c ****     ssd1306_TestFonts();
 684              		.loc 1 140 0
 685 000a FFF7FEFF 		bl	ssd1306_TestFonts
 686              	.LVL78:
 141:Drivers/ssd1306/ssd1306_tests.c ****     //HAL_Delay(3000);
 142:Drivers/ssd1306/ssd1306_tests.c ****     ssd1306_Fill(Black);
 687              		.loc 1 142 0
 688 000e 0020     		movs	r0, #0
 689 0010 FFF7FEFF 		bl	ssd1306_Fill
 690              	.LVL79:
 143:Drivers/ssd1306/ssd1306_tests.c ****     ssd1306_TestRectangle();
 691              		.loc 1 143 0
 692 0014 FFF7FEFF 		bl	ssd1306_TestRectangle
 693              	.LVL80:
 144:Drivers/ssd1306/ssd1306_tests.c ****     ssd1306_TestLine();
 694              		.loc 1 144 0
 695 0018 FFF7FEFF 		bl	ssd1306_TestLine
 696              	.LVL81:
 145:Drivers/ssd1306/ssd1306_tests.c ****     //HAL_Delay(3000);
 146:Drivers/ssd1306/ssd1306_tests.c ****     ssd1306_Fill(Black);
 697              		.loc 1 146 0
 698 001c 0020     		movs	r0, #0
 699 001e FFF7FEFF 		bl	ssd1306_Fill
 700              	.LVL82:
 147:Drivers/ssd1306/ssd1306_tests.c ****     ssd1306_TestPolyline();
 701              		.loc 1 147 0
 702 0022 FFF7FEFF 		bl	ssd1306_TestPolyline
 703              	.LVL83:
 148:Drivers/ssd1306/ssd1306_tests.c ****     //HAL_Delay(3000);
 149:Drivers/ssd1306/ssd1306_tests.c ****     ssd1306_Fill(Black);
 704              		.loc 1 149 0
 705 0026 0020     		movs	r0, #0
 706 0028 FFF7FEFF 		bl	ssd1306_Fill
 707              	.LVL84:
 150:Drivers/ssd1306/ssd1306_tests.c ****     ssd1306_TestArc();
 708              		.loc 1 150 0
ARM GAS  /tmp/ccyh7qbe.s 			page 16


 709 002c FFF7FEFF 		bl	ssd1306_TestArc
 710              	.LVL85:
 151:Drivers/ssd1306/ssd1306_tests.c ****     //HAL_Delay(3000);
 152:Drivers/ssd1306/ssd1306_tests.c ****     ssd1306_Fill(Black);
 711              		.loc 1 152 0
 712 0030 0020     		movs	r0, #0
 713 0032 FFF7FEFF 		bl	ssd1306_Fill
 714              	.LVL86:
 153:Drivers/ssd1306/ssd1306_tests.c ****     ssd1306_TestCircle();
 715              		.loc 1 153 0
 716 0036 FFF7FEFF 		bl	ssd1306_TestCircle
 717              	.LVL87:
 154:Drivers/ssd1306/ssd1306_tests.c ****     //HAL_Delay(3000);
 155:Drivers/ssd1306/ssd1306_tests.c **** }
 718              		.loc 1 155 0
 719 003a 08BD     		pop	{r3, pc}
 720              		.cfi_endproc
 721              	.LFE340:
 723              		.section	.rodata
 724              		.align	2
 725              		.set	.LANCHOR0,. + 0
 726              	.LC0:
 727 0000 23       		.byte	35
 728 0001 28       		.byte	40
 729 0002 28       		.byte	40
 730 0003 14       		.byte	20
 731 0004 2D       		.byte	45
 732 0005 1C       		.byte	28
 733 0006 32       		.byte	50
 734 0007 0A       		.byte	10
 735 0008 2D       		.byte	45
 736 0009 10       		.byte	16
 737 000a 32       		.byte	50
 738 000b 0A       		.byte	10
 739 000c 35       		.byte	53
 740 000d 10       		.byte	16
 741              		.section	.rodata.ssd1306_TestFPS.str1.4,"aMS",%progbits,1
 742              		.align	2
 743              	.LC6:
 744 0000 54657374 		.ascii	"Testing...\000"
 744      696E672E 
 744      2E2E00
 745 000b 00       		.space	1
 746              	.LC7:
 747 000c 7E256420 		.ascii	"~%d FPS\000"
 747      46505300 
 748              	.LC5:
 749 0014 41424344 		.ascii	"ABCDEFGHIJK\000"
 749      45464748 
 749      494A4B00 
 750              		.section	.rodata.ssd1306_TestFonts.str1.4,"aMS",%progbits,1
 751              		.align	2
 752              	.LC1:
 753 0000 466F6E74 		.ascii	"Font 16x26\000"
 753      20313678 
 753      323600
 754 000b 00       		.space	1
ARM GAS  /tmp/ccyh7qbe.s 			page 17


 755              	.LC2:
 756 000c 466F6E74 		.ascii	"Font 11x18\000"
 756      20313178 
 756      313800
 757 0017 00       		.space	1
 758              	.LC3:
 759 0018 466F6E74 		.ascii	"Font 7x10\000"
 759      20377831 
 759      3000
 760 0022 0000     		.space	2
 761              	.LC4:
 762 0024 466F6E74 		.ascii	"Font 6x8\000"
 762      20367838 
 762      00
 763              		.text
 764              	.Letext0:
 765              		.file 2 "/usr/include/newlib/machine/_default_types.h"
 766              		.file 3 "/usr/include/newlib/sys/lock.h"
 767              		.file 4 "/usr/include/newlib/sys/_types.h"
 768              		.file 5 "/usr/lib/gcc/arm-none-eabi/7.3.1/include/stddef.h"
 769              		.file 6 "/usr/include/newlib/sys/reent.h"
 770              		.file 7 "/usr/include/newlib/sys/_stdint.h"
 771              		.file 8 "Drivers/CMSIS/Include/core_cm4.h"
 772              		.file 9 "Drivers/CMSIS/Device/ST/STM32G4xx/Include/system_stm32g4xx.h"
 773              		.file 10 "Drivers/CMSIS/Device/ST/STM32G4xx/Include/stm32g484xx.h"
 774              		.file 11 "Drivers/STM32G4xx_HAL_Driver/Inc/stm32g4xx_hal_def.h"
 775              		.file 12 "Drivers/STM32G4xx_HAL_Driver/Inc/stm32g4xx_hal_dma.h"
 776              		.file 13 "Drivers/STM32G4xx_HAL_Driver/Inc/stm32g4xx_hal_flash.h"
 777              		.file 14 "Drivers/STM32G4xx_HAL_Driver/Inc/stm32g4xx_hal_i2c.h"
 778              		.file 15 "Drivers/STM32G4xx_HAL_Driver/Inc/stm32g4xx_hal_uart.h"
 779              		.file 16 "Drivers/STM32G4xx_HAL_Driver/Inc/stm32g4xx_hal.h"
 780              		.file 17 "Drivers/ssd1306/ssd1306_fonts.h"
 781              		.file 18 "Drivers/ssd1306/ssd1306.h"
 782              		.file 19 "/usr/include/newlib/string.h"
 783              		.file 20 "/usr/include/newlib/stdio.h"
ARM GAS  /tmp/ccyh7qbe.s 			page 18

