ARM GAS  /tmp/ccaCrYas.s 			page 1


   1              		.cpu cortex-m4
   2              		.eabi_attribute 27, 1
   3              		.eabi_attribute 28, 1
   4              		.eabi_attribute 20, 1
   5              		.eabi_attribute 21, 1
   6              		.eabi_attribute 23, 3
   7              		.eabi_attribute 24, 1
   8              		.eabi_attribute 25, 1
   9              		.eabi_attribute 26, 1
  10              		.eabi_attribute 30, 1
  11              		.eabi_attribute 34, 1
  12              		.eabi_attribute 18, 4
  13              		.file	"stm32g4xx_hal_opamp_ex.c"
  14              		.text
  15              	.Ltext0:
  16              		.cfi_sections	.debug_frame
  17              		.section	.text.HAL_OPAMPEx_SelfCalibrateAll,"ax",%progbits
  18              		.align	1
  19              		.global	HAL_OPAMPEx_SelfCalibrateAll
  20              		.syntax unified
  21              		.thumb
  22              		.thumb_func
  23              		.fpu fpv4-sp-d16
  25              	HAL_OPAMPEx_SelfCalibrateAll:
  26              	.LFB329:
  27              		.file 1 "Drivers/STM32G4xx_HAL_Driver/Src/stm32g4xx_hal_opamp_ex.c"
   1:Drivers/STM32G4xx_HAL_Driver/Src/stm32g4xx_hal_opamp_ex.c **** /**
   2:Drivers/STM32G4xx_HAL_Driver/Src/stm32g4xx_hal_opamp_ex.c ****   ******************************************************************************
   3:Drivers/STM32G4xx_HAL_Driver/Src/stm32g4xx_hal_opamp_ex.c ****   * @file    stm32g4xx_hal_opamp_ex.c
   4:Drivers/STM32G4xx_HAL_Driver/Src/stm32g4xx_hal_opamp_ex.c ****   * @author  MCD Application Team
   5:Drivers/STM32G4xx_HAL_Driver/Src/stm32g4xx_hal_opamp_ex.c ****   * @brief   Extended OPAMP HAL module driver.
   6:Drivers/STM32G4xx_HAL_Driver/Src/stm32g4xx_hal_opamp_ex.c ****   *
   7:Drivers/STM32G4xx_HAL_Driver/Src/stm32g4xx_hal_opamp_ex.c ****   *          This file provides firmware functions to manage the following
   8:Drivers/STM32G4xx_HAL_Driver/Src/stm32g4xx_hal_opamp_ex.c ****   *          functionalities of the operational amplifiers (OPAMP1...OPAMP6)
   9:Drivers/STM32G4xx_HAL_Driver/Src/stm32g4xx_hal_opamp_ex.c ****   *          peripheral:
  10:Drivers/STM32G4xx_HAL_Driver/Src/stm32g4xx_hal_opamp_ex.c ****   *           + Extended Initialization and de-initialization functions
  11:Drivers/STM32G4xx_HAL_Driver/Src/stm32g4xx_hal_opamp_ex.c ****   *           + Extended Peripheral Control functions
  12:Drivers/STM32G4xx_HAL_Driver/Src/stm32g4xx_hal_opamp_ex.c ****   *
  13:Drivers/STM32G4xx_HAL_Driver/Src/stm32g4xx_hal_opamp_ex.c ****   @verbatim
  14:Drivers/STM32G4xx_HAL_Driver/Src/stm32g4xx_hal_opamp_ex.c ****   ******************************************************************************
  15:Drivers/STM32G4xx_HAL_Driver/Src/stm32g4xx_hal_opamp_ex.c ****   * @attention
  16:Drivers/STM32G4xx_HAL_Driver/Src/stm32g4xx_hal_opamp_ex.c ****   *
  17:Drivers/STM32G4xx_HAL_Driver/Src/stm32g4xx_hal_opamp_ex.c ****   * <h2><center>&copy; Copyright (c) 2019 STMicroelectronics.
  18:Drivers/STM32G4xx_HAL_Driver/Src/stm32g4xx_hal_opamp_ex.c ****   * All rights reserved.</center></h2>
  19:Drivers/STM32G4xx_HAL_Driver/Src/stm32g4xx_hal_opamp_ex.c ****   *
  20:Drivers/STM32G4xx_HAL_Driver/Src/stm32g4xx_hal_opamp_ex.c ****   * This software component is licensed by ST under BSD 3-Clause license,
  21:Drivers/STM32G4xx_HAL_Driver/Src/stm32g4xx_hal_opamp_ex.c ****   * the "License"; You may not use this file except in compliance with the
  22:Drivers/STM32G4xx_HAL_Driver/Src/stm32g4xx_hal_opamp_ex.c ****   * License. You may obtain a copy of the License at:
  23:Drivers/STM32G4xx_HAL_Driver/Src/stm32g4xx_hal_opamp_ex.c ****   *                        opensource.org/licenses/BSD-3-Clause
  24:Drivers/STM32G4xx_HAL_Driver/Src/stm32g4xx_hal_opamp_ex.c ****   *
  25:Drivers/STM32G4xx_HAL_Driver/Src/stm32g4xx_hal_opamp_ex.c ****   ******************************************************************************
  26:Drivers/STM32G4xx_HAL_Driver/Src/stm32g4xx_hal_opamp_ex.c ****   */
  27:Drivers/STM32G4xx_HAL_Driver/Src/stm32g4xx_hal_opamp_ex.c **** 
  28:Drivers/STM32G4xx_HAL_Driver/Src/stm32g4xx_hal_opamp_ex.c **** /* Includes ------------------------------------------------------------------*/
  29:Drivers/STM32G4xx_HAL_Driver/Src/stm32g4xx_hal_opamp_ex.c **** #include "stm32g4xx_hal.h"
  30:Drivers/STM32G4xx_HAL_Driver/Src/stm32g4xx_hal_opamp_ex.c **** 
  31:Drivers/STM32G4xx_HAL_Driver/Src/stm32g4xx_hal_opamp_ex.c **** /** @addtogroup STM32G4xx_HAL_Driver
ARM GAS  /tmp/ccaCrYas.s 			page 2


  32:Drivers/STM32G4xx_HAL_Driver/Src/stm32g4xx_hal_opamp_ex.c ****   * @{
  33:Drivers/STM32G4xx_HAL_Driver/Src/stm32g4xx_hal_opamp_ex.c ****   */
  34:Drivers/STM32G4xx_HAL_Driver/Src/stm32g4xx_hal_opamp_ex.c **** 
  35:Drivers/STM32G4xx_HAL_Driver/Src/stm32g4xx_hal_opamp_ex.c **** #ifdef HAL_OPAMP_MODULE_ENABLED
  36:Drivers/STM32G4xx_HAL_Driver/Src/stm32g4xx_hal_opamp_ex.c **** 
  37:Drivers/STM32G4xx_HAL_Driver/Src/stm32g4xx_hal_opamp_ex.c **** /** @defgroup OPAMPEx OPAMPEx
  38:Drivers/STM32G4xx_HAL_Driver/Src/stm32g4xx_hal_opamp_ex.c ****   * @brief OPAMP Extended HAL module driver
  39:Drivers/STM32G4xx_HAL_Driver/Src/stm32g4xx_hal_opamp_ex.c ****   * @{
  40:Drivers/STM32G4xx_HAL_Driver/Src/stm32g4xx_hal_opamp_ex.c ****   */
  41:Drivers/STM32G4xx_HAL_Driver/Src/stm32g4xx_hal_opamp_ex.c **** 
  42:Drivers/STM32G4xx_HAL_Driver/Src/stm32g4xx_hal_opamp_ex.c **** 
  43:Drivers/STM32G4xx_HAL_Driver/Src/stm32g4xx_hal_opamp_ex.c **** /* Private typedef -----------------------------------------------------------*/
  44:Drivers/STM32G4xx_HAL_Driver/Src/stm32g4xx_hal_opamp_ex.c **** /* Private define ------------------------------------------------------------*/
  45:Drivers/STM32G4xx_HAL_Driver/Src/stm32g4xx_hal_opamp_ex.c **** /* Private macro -------------------------------------------------------------*/
  46:Drivers/STM32G4xx_HAL_Driver/Src/stm32g4xx_hal_opamp_ex.c **** /* Private variables ---------------------------------------------------------*/
  47:Drivers/STM32G4xx_HAL_Driver/Src/stm32g4xx_hal_opamp_ex.c **** /* Private function prototypes -----------------------------------------------*/
  48:Drivers/STM32G4xx_HAL_Driver/Src/stm32g4xx_hal_opamp_ex.c **** /* Exported functions --------------------------------------------------------*/
  49:Drivers/STM32G4xx_HAL_Driver/Src/stm32g4xx_hal_opamp_ex.c **** 
  50:Drivers/STM32G4xx_HAL_Driver/Src/stm32g4xx_hal_opamp_ex.c **** /** @defgroup OPAMPEx_Exported_Functions OPAMP Extended Exported Functions
  51:Drivers/STM32G4xx_HAL_Driver/Src/stm32g4xx_hal_opamp_ex.c ****   * @{
  52:Drivers/STM32G4xx_HAL_Driver/Src/stm32g4xx_hal_opamp_ex.c ****   */
  53:Drivers/STM32G4xx_HAL_Driver/Src/stm32g4xx_hal_opamp_ex.c **** 
  54:Drivers/STM32G4xx_HAL_Driver/Src/stm32g4xx_hal_opamp_ex.c **** 
  55:Drivers/STM32G4xx_HAL_Driver/Src/stm32g4xx_hal_opamp_ex.c **** /** @defgroup OPAMPEx_Exported_Functions_Group1 Extended Input and Output operation functions
  56:Drivers/STM32G4xx_HAL_Driver/Src/stm32g4xx_hal_opamp_ex.c ****   * @brief    Extended Self calibration functions
  57:Drivers/STM32G4xx_HAL_Driver/Src/stm32g4xx_hal_opamp_ex.c ****   *
  58:Drivers/STM32G4xx_HAL_Driver/Src/stm32g4xx_hal_opamp_ex.c **** @verbatim
  59:Drivers/STM32G4xx_HAL_Driver/Src/stm32g4xx_hal_opamp_ex.c ****  ===============================================================================
  60:Drivers/STM32G4xx_HAL_Driver/Src/stm32g4xx_hal_opamp_ex.c ****               ##### Extended IO operation functions #####
  61:Drivers/STM32G4xx_HAL_Driver/Src/stm32g4xx_hal_opamp_ex.c ****  ===============================================================================
  62:Drivers/STM32G4xx_HAL_Driver/Src/stm32g4xx_hal_opamp_ex.c ****   [..]
  63:Drivers/STM32G4xx_HAL_Driver/Src/stm32g4xx_hal_opamp_ex.c ****       (+) OPAMP Self calibration.
  64:Drivers/STM32G4xx_HAL_Driver/Src/stm32g4xx_hal_opamp_ex.c **** 
  65:Drivers/STM32G4xx_HAL_Driver/Src/stm32g4xx_hal_opamp_ex.c **** @endverbatim
  66:Drivers/STM32G4xx_HAL_Driver/Src/stm32g4xx_hal_opamp_ex.c ****   * @{
  67:Drivers/STM32G4xx_HAL_Driver/Src/stm32g4xx_hal_opamp_ex.c ****   */
  68:Drivers/STM32G4xx_HAL_Driver/Src/stm32g4xx_hal_opamp_ex.c **** 
  69:Drivers/STM32G4xx_HAL_Driver/Src/stm32g4xx_hal_opamp_ex.c **** /**
  70:Drivers/STM32G4xx_HAL_Driver/Src/stm32g4xx_hal_opamp_ex.c ****   * @brief  Run the self calibration of up to 6 OPAMPs in parallel.
  71:Drivers/STM32G4xx_HAL_Driver/Src/stm32g4xx_hal_opamp_ex.c ****   * @note   Calibration is performed in the mode specified in OPAMP init
  72:Drivers/STM32G4xx_HAL_Driver/Src/stm32g4xx_hal_opamp_ex.c ****   *         structure (mode normal or high-speed).
  73:Drivers/STM32G4xx_HAL_Driver/Src/stm32g4xx_hal_opamp_ex.c ****   * @param  hopamp1 handle
  74:Drivers/STM32G4xx_HAL_Driver/Src/stm32g4xx_hal_opamp_ex.c ****   * @param  hopamp2 handle
  75:Drivers/STM32G4xx_HAL_Driver/Src/stm32g4xx_hal_opamp_ex.c ****   * @param  hopamp3 handle
  76:Drivers/STM32G4xx_HAL_Driver/Src/stm32g4xx_hal_opamp_ex.c ****   * @param  hopamp4 handle  (1)
  77:Drivers/STM32G4xx_HAL_Driver/Src/stm32g4xx_hal_opamp_ex.c ****   * @param  hopamp5 handle  (1)
  78:Drivers/STM32G4xx_HAL_Driver/Src/stm32g4xx_hal_opamp_ex.c ****   * @param  hopamp6 handle  (1)
  79:Drivers/STM32G4xx_HAL_Driver/Src/stm32g4xx_hal_opamp_ex.c ****   *         (1) Parameter not present on STM32GBK1CB/STM32G431xx/STM32G441xx/STM32G471xx devices.
  80:Drivers/STM32G4xx_HAL_Driver/Src/stm32g4xx_hal_opamp_ex.c ****   * @retval HAL status
  81:Drivers/STM32G4xx_HAL_Driver/Src/stm32g4xx_hal_opamp_ex.c ****   * @note   Updated offset trimming values (PMOS & NMOS), user trimming is enabled
  82:Drivers/STM32G4xx_HAL_Driver/Src/stm32g4xx_hal_opamp_ex.c ****   * @note   Calibration runs about 25 ms.
  83:Drivers/STM32G4xx_HAL_Driver/Src/stm32g4xx_hal_opamp_ex.c ****   */
  84:Drivers/STM32G4xx_HAL_Driver/Src/stm32g4xx_hal_opamp_ex.c **** 
  85:Drivers/STM32G4xx_HAL_Driver/Src/stm32g4xx_hal_opamp_ex.c **** #if defined(STM32G473xx) || defined(STM32G474xx) || defined(STM32G483xx) || defined(STM32G484xx)
  86:Drivers/STM32G4xx_HAL_Driver/Src/stm32g4xx_hal_opamp_ex.c **** HAL_StatusTypeDef HAL_OPAMPEx_SelfCalibrateAll(OPAMP_HandleTypeDef *hopamp1, OPAMP_HandleTypeDef *h
  87:Drivers/STM32G4xx_HAL_Driver/Src/stm32g4xx_hal_opamp_ex.c ****                                                OPAMP_HandleTypeDef *hopamp3, OPAMP_HandleTypeDef *h
  88:Drivers/STM32G4xx_HAL_Driver/Src/stm32g4xx_hal_opamp_ex.c **** #elif defined(STM32GBK1CB) || defined(STM32G431xx) || defined(STM32G441xx) || defined(STM32G471xx)
ARM GAS  /tmp/ccaCrYas.s 			page 3


  89:Drivers/STM32G4xx_HAL_Driver/Src/stm32g4xx_hal_opamp_ex.c **** HAL_StatusTypeDef HAL_OPAMPEx_SelfCalibrateAll(OPAMP_HandleTypeDef *hopamp1, OPAMP_HandleTypeDef *h
  90:Drivers/STM32G4xx_HAL_Driver/Src/stm32g4xx_hal_opamp_ex.c ****                                                OPAMP_HandleTypeDef *hopamp3)
  91:Drivers/STM32G4xx_HAL_Driver/Src/stm32g4xx_hal_opamp_ex.c **** #elif defined(STM32G491xx) || defined(STM32G4A1xx)
  92:Drivers/STM32G4xx_HAL_Driver/Src/stm32g4xx_hal_opamp_ex.c **** HAL_StatusTypeDef HAL_OPAMPEx_SelfCalibrateAll(OPAMP_HandleTypeDef *hopamp1, OPAMP_HandleTypeDef *h
  93:Drivers/STM32G4xx_HAL_Driver/Src/stm32g4xx_hal_opamp_ex.c ****                                                OPAMP_HandleTypeDef *hopamp3, OPAMP_HandleTypeDef *h
  94:Drivers/STM32G4xx_HAL_Driver/Src/stm32g4xx_hal_opamp_ex.c **** #endif
  95:Drivers/STM32G4xx_HAL_Driver/Src/stm32g4xx_hal_opamp_ex.c **** {
  28              		.loc 1 95 0
  29              		.cfi_startproc
  30              		@ args = 8, pretend = 0, frame = 8
  31              		@ frame_needed = 0, uses_anonymous_args = 0
  32              	.LVL0:
  96:Drivers/STM32G4xx_HAL_Driver/Src/stm32g4xx_hal_opamp_ex.c ****   uint32_t trimmingvaluen1;
  97:Drivers/STM32G4xx_HAL_Driver/Src/stm32g4xx_hal_opamp_ex.c ****   uint32_t trimmingvaluep1;
  98:Drivers/STM32G4xx_HAL_Driver/Src/stm32g4xx_hal_opamp_ex.c ****   uint32_t trimmingvaluen2;
  99:Drivers/STM32G4xx_HAL_Driver/Src/stm32g4xx_hal_opamp_ex.c ****   uint32_t trimmingvaluep2;
 100:Drivers/STM32G4xx_HAL_Driver/Src/stm32g4xx_hal_opamp_ex.c ****   uint32_t trimmingvaluen3;
 101:Drivers/STM32G4xx_HAL_Driver/Src/stm32g4xx_hal_opamp_ex.c ****   uint32_t trimmingvaluep3;
 102:Drivers/STM32G4xx_HAL_Driver/Src/stm32g4xx_hal_opamp_ex.c **** #if defined(STM32G473xx) || defined(STM32G474xx) || defined(STM32G483xx) || defined(STM32G483xx)
 103:Drivers/STM32G4xx_HAL_Driver/Src/stm32g4xx_hal_opamp_ex.c ****   uint32_t trimmingvaluen4;
 104:Drivers/STM32G4xx_HAL_Driver/Src/stm32g4xx_hal_opamp_ex.c ****   uint32_t trimmingvaluep4;
 105:Drivers/STM32G4xx_HAL_Driver/Src/stm32g4xx_hal_opamp_ex.c ****   uint32_t trimmingvaluen5;
 106:Drivers/STM32G4xx_HAL_Driver/Src/stm32g4xx_hal_opamp_ex.c ****   uint32_t trimmingvaluep5;
 107:Drivers/STM32G4xx_HAL_Driver/Src/stm32g4xx_hal_opamp_ex.c ****   uint32_t trimmingvaluen6;
 108:Drivers/STM32G4xx_HAL_Driver/Src/stm32g4xx_hal_opamp_ex.c ****   uint32_t trimmingvaluep6;
 109:Drivers/STM32G4xx_HAL_Driver/Src/stm32g4xx_hal_opamp_ex.c **** #elif defined(STM32G491xx) || defined(STM32G4A1xx)
 110:Drivers/STM32G4xx_HAL_Driver/Src/stm32g4xx_hal_opamp_ex.c ****   uint32_t trimmingvaluen6;
 111:Drivers/STM32G4xx_HAL_Driver/Src/stm32g4xx_hal_opamp_ex.c ****   uint32_t trimmingvaluep6;
 112:Drivers/STM32G4xx_HAL_Driver/Src/stm32g4xx_hal_opamp_ex.c **** #endif
 113:Drivers/STM32G4xx_HAL_Driver/Src/stm32g4xx_hal_opamp_ex.c **** 
 114:Drivers/STM32G4xx_HAL_Driver/Src/stm32g4xx_hal_opamp_ex.c ****   uint32_t delta;
 115:Drivers/STM32G4xx_HAL_Driver/Src/stm32g4xx_hal_opamp_ex.c **** 
 116:Drivers/STM32G4xx_HAL_Driver/Src/stm32g4xx_hal_opamp_ex.c ****   if ((hopamp1 == NULL) || (hopamp2 == NULL) || (hopamp3 == NULL)
  33              		.loc 1 116 0
  34 0000 0028     		cmp	r0, #0
  35 0002 00F0EE81 		beq	.L25
  95:Drivers/STM32G4xx_HAL_Driver/Src/stm32g4xx_hal_opamp_ex.c ****   uint32_t trimmingvaluen1;
  36              		.loc 1 95 0 discriminator 1
  37 0006 2DE9F04F 		push	{r4, r5, r6, r7, r8, r9, r10, fp, lr}
  38              	.LCFI0:
  39              		.cfi_def_cfa_offset 36
  40              		.cfi_offset 4, -36
  41              		.cfi_offset 5, -32
  42              		.cfi_offset 6, -28
  43              		.cfi_offset 7, -24
  44              		.cfi_offset 8, -20
  45              		.cfi_offset 9, -16
  46              		.cfi_offset 10, -12
  47              		.cfi_offset 11, -8
  48              		.cfi_offset 14, -4
  49 000a 83B0     		sub	sp, sp, #12
  50              	.LCFI1:
  51              		.cfi_def_cfa_offset 48
  52 000c 0646     		mov	r6, r0
  53              		.loc 1 116 0 discriminator 1
  54 000e 0029     		cmp	r1, #0
  55 0010 00F0E981 		beq	.L26
ARM GAS  /tmp/ccaCrYas.s 			page 4


  56              		.loc 1 116 0 is_stmt 0 discriminator 2
  57 0014 002A     		cmp	r2, #0
  58 0016 00F0E881 		beq	.L27
 117:Drivers/STM32G4xx_HAL_Driver/Src/stm32g4xx_hal_opamp_ex.c **** #if defined(STM32G473xx) || defined(STM32G474xx) || defined(STM32G483xx) || defined(STM32G483xx)
 118:Drivers/STM32G4xx_HAL_Driver/Src/stm32g4xx_hal_opamp_ex.c ****       || (hopamp4 == NULL) || (hopamp5 == NULL) || (hopamp6 == NULL)
 119:Drivers/STM32G4xx_HAL_Driver/Src/stm32g4xx_hal_opamp_ex.c **** #elif defined(STM32G491xx) || defined(STM32G4A1xx)
 120:Drivers/STM32G4xx_HAL_Driver/Src/stm32g4xx_hal_opamp_ex.c ****       || (hopamp6 == NULL)
 121:Drivers/STM32G4xx_HAL_Driver/Src/stm32g4xx_hal_opamp_ex.c **** #endif
 122:Drivers/STM32G4xx_HAL_Driver/Src/stm32g4xx_hal_opamp_ex.c ****      )
 123:Drivers/STM32G4xx_HAL_Driver/Src/stm32g4xx_hal_opamp_ex.c ****   {
 124:Drivers/STM32G4xx_HAL_Driver/Src/stm32g4xx_hal_opamp_ex.c ****     return HAL_ERROR;
 125:Drivers/STM32G4xx_HAL_Driver/Src/stm32g4xx_hal_opamp_ex.c ****   }
 126:Drivers/STM32G4xx_HAL_Driver/Src/stm32g4xx_hal_opamp_ex.c ****   else if (hopamp1->State != HAL_OPAMP_STATE_READY)
  59              		.loc 1 126 0 is_stmt 1
  60 001a 90F83A30 		ldrb	r3, [r0, #58]	@ zero_extendqisi2
  61              	.LVL1:
  62 001e DBB2     		uxtb	r3, r3
  63 0020 012B     		cmp	r3, #1
  64 0022 03D0     		beq	.L35
 127:Drivers/STM32G4xx_HAL_Driver/Src/stm32g4xx_hal_opamp_ex.c ****   {
 128:Drivers/STM32G4xx_HAL_Driver/Src/stm32g4xx_hal_opamp_ex.c ****     return HAL_ERROR;
  65              		.loc 1 128 0
  66 0024 0120     		movs	r0, #1
  67              	.LVL2:
  68              	.L2:
 129:Drivers/STM32G4xx_HAL_Driver/Src/stm32g4xx_hal_opamp_ex.c ****   }
 130:Drivers/STM32G4xx_HAL_Driver/Src/stm32g4xx_hal_opamp_ex.c ****   else if (hopamp2->State != HAL_OPAMP_STATE_READY)
 131:Drivers/STM32G4xx_HAL_Driver/Src/stm32g4xx_hal_opamp_ex.c ****   {
 132:Drivers/STM32G4xx_HAL_Driver/Src/stm32g4xx_hal_opamp_ex.c ****     return HAL_ERROR;
 133:Drivers/STM32G4xx_HAL_Driver/Src/stm32g4xx_hal_opamp_ex.c ****   }
 134:Drivers/STM32G4xx_HAL_Driver/Src/stm32g4xx_hal_opamp_ex.c ****   else if (hopamp3->State != HAL_OPAMP_STATE_READY)
 135:Drivers/STM32G4xx_HAL_Driver/Src/stm32g4xx_hal_opamp_ex.c ****   {
 136:Drivers/STM32G4xx_HAL_Driver/Src/stm32g4xx_hal_opamp_ex.c ****     return HAL_ERROR;
 137:Drivers/STM32G4xx_HAL_Driver/Src/stm32g4xx_hal_opamp_ex.c ****   }
 138:Drivers/STM32G4xx_HAL_Driver/Src/stm32g4xx_hal_opamp_ex.c **** #if defined(STM32G473xx) || defined(STM32G474xx) || defined(STM32G483xx) || defined(STM32G483xx)
 139:Drivers/STM32G4xx_HAL_Driver/Src/stm32g4xx_hal_opamp_ex.c ****   else if (hopamp4->State != HAL_OPAMP_STATE_READY)
 140:Drivers/STM32G4xx_HAL_Driver/Src/stm32g4xx_hal_opamp_ex.c ****   {
 141:Drivers/STM32G4xx_HAL_Driver/Src/stm32g4xx_hal_opamp_ex.c ****     return HAL_ERROR;
 142:Drivers/STM32G4xx_HAL_Driver/Src/stm32g4xx_hal_opamp_ex.c ****   }
 143:Drivers/STM32G4xx_HAL_Driver/Src/stm32g4xx_hal_opamp_ex.c ****   else if (hopamp5->State != HAL_OPAMP_STATE_READY)
 144:Drivers/STM32G4xx_HAL_Driver/Src/stm32g4xx_hal_opamp_ex.c ****   {
 145:Drivers/STM32G4xx_HAL_Driver/Src/stm32g4xx_hal_opamp_ex.c ****     return HAL_ERROR;
 146:Drivers/STM32G4xx_HAL_Driver/Src/stm32g4xx_hal_opamp_ex.c ****   }
 147:Drivers/STM32G4xx_HAL_Driver/Src/stm32g4xx_hal_opamp_ex.c ****   else if (hopamp6->State != HAL_OPAMP_STATE_READY)
 148:Drivers/STM32G4xx_HAL_Driver/Src/stm32g4xx_hal_opamp_ex.c ****   {
 149:Drivers/STM32G4xx_HAL_Driver/Src/stm32g4xx_hal_opamp_ex.c ****     return HAL_ERROR;
 150:Drivers/STM32G4xx_HAL_Driver/Src/stm32g4xx_hal_opamp_ex.c ****   }
 151:Drivers/STM32G4xx_HAL_Driver/Src/stm32g4xx_hal_opamp_ex.c **** #elif defined(STM32G491xx) || defined(STM32G4A1xx)
 152:Drivers/STM32G4xx_HAL_Driver/Src/stm32g4xx_hal_opamp_ex.c ****   else if (hopamp6->State != HAL_OPAMP_STATE_READY)
 153:Drivers/STM32G4xx_HAL_Driver/Src/stm32g4xx_hal_opamp_ex.c ****   {
 154:Drivers/STM32G4xx_HAL_Driver/Src/stm32g4xx_hal_opamp_ex.c ****     return HAL_ERROR;
 155:Drivers/STM32G4xx_HAL_Driver/Src/stm32g4xx_hal_opamp_ex.c ****   }
 156:Drivers/STM32G4xx_HAL_Driver/Src/stm32g4xx_hal_opamp_ex.c **** #endif
 157:Drivers/STM32G4xx_HAL_Driver/Src/stm32g4xx_hal_opamp_ex.c ****   else
 158:Drivers/STM32G4xx_HAL_Driver/Src/stm32g4xx_hal_opamp_ex.c ****   {
 159:Drivers/STM32G4xx_HAL_Driver/Src/stm32g4xx_hal_opamp_ex.c **** 
 160:Drivers/STM32G4xx_HAL_Driver/Src/stm32g4xx_hal_opamp_ex.c ****     /* Check the parameter */
ARM GAS  /tmp/ccaCrYas.s 			page 5


 161:Drivers/STM32G4xx_HAL_Driver/Src/stm32g4xx_hal_opamp_ex.c ****     assert_param(IS_OPAMP_ALL_INSTANCE(hopamp1->Instance));
 162:Drivers/STM32G4xx_HAL_Driver/Src/stm32g4xx_hal_opamp_ex.c ****     assert_param(IS_OPAMP_ALL_INSTANCE(hopamp2->Instance));
 163:Drivers/STM32G4xx_HAL_Driver/Src/stm32g4xx_hal_opamp_ex.c ****     assert_param(IS_OPAMP_ALL_INSTANCE(hopamp3->Instance));
 164:Drivers/STM32G4xx_HAL_Driver/Src/stm32g4xx_hal_opamp_ex.c **** #if defined(STM32G473xx) || defined(STM32G474xx) || defined(STM32G483xx) || defined(STM32G483xx)
 165:Drivers/STM32G4xx_HAL_Driver/Src/stm32g4xx_hal_opamp_ex.c ****     assert_param(IS_OPAMP_ALL_INSTANCE(hopamp4->Instance));
 166:Drivers/STM32G4xx_HAL_Driver/Src/stm32g4xx_hal_opamp_ex.c ****     assert_param(IS_OPAMP_ALL_INSTANCE(hopamp5->Instance));
 167:Drivers/STM32G4xx_HAL_Driver/Src/stm32g4xx_hal_opamp_ex.c ****     assert_param(IS_OPAMP_ALL_INSTANCE(hopamp6->Instance));
 168:Drivers/STM32G4xx_HAL_Driver/Src/stm32g4xx_hal_opamp_ex.c **** #elif defined(STM32G491xx) || defined(STM32G4A1xx)
 169:Drivers/STM32G4xx_HAL_Driver/Src/stm32g4xx_hal_opamp_ex.c ****     assert_param(IS_OPAMP_ALL_INSTANCE(hopamp6->Instance));
 170:Drivers/STM32G4xx_HAL_Driver/Src/stm32g4xx_hal_opamp_ex.c **** #endif
 171:Drivers/STM32G4xx_HAL_Driver/Src/stm32g4xx_hal_opamp_ex.c **** 
 172:Drivers/STM32G4xx_HAL_Driver/Src/stm32g4xx_hal_opamp_ex.c ****     /* Set Calibration mode */
 173:Drivers/STM32G4xx_HAL_Driver/Src/stm32g4xx_hal_opamp_ex.c ****     /* Non-inverting input connected to calibration reference voltage. */
 174:Drivers/STM32G4xx_HAL_Driver/Src/stm32g4xx_hal_opamp_ex.c ****     SET_BIT(hopamp1->Instance->CSR, OPAMP_CSR_FORCEVP);
 175:Drivers/STM32G4xx_HAL_Driver/Src/stm32g4xx_hal_opamp_ex.c ****     SET_BIT(hopamp2->Instance->CSR, OPAMP_CSR_FORCEVP);
 176:Drivers/STM32G4xx_HAL_Driver/Src/stm32g4xx_hal_opamp_ex.c ****     SET_BIT(hopamp3->Instance->CSR, OPAMP_CSR_FORCEVP);
 177:Drivers/STM32G4xx_HAL_Driver/Src/stm32g4xx_hal_opamp_ex.c **** #if defined(STM32G473xx) || defined(STM32G474xx) || defined(STM32G483xx) || defined(STM32G483xx)
 178:Drivers/STM32G4xx_HAL_Driver/Src/stm32g4xx_hal_opamp_ex.c ****     SET_BIT(hopamp4->Instance->CSR, OPAMP_CSR_FORCEVP);
 179:Drivers/STM32G4xx_HAL_Driver/Src/stm32g4xx_hal_opamp_ex.c ****     SET_BIT(hopamp5->Instance->CSR, OPAMP_CSR_FORCEVP);
 180:Drivers/STM32G4xx_HAL_Driver/Src/stm32g4xx_hal_opamp_ex.c ****     SET_BIT(hopamp6->Instance->CSR, OPAMP_CSR_FORCEVP);
 181:Drivers/STM32G4xx_HAL_Driver/Src/stm32g4xx_hal_opamp_ex.c **** #elif defined(STM32G491xx) || defined(STM32G4A1xx)
 182:Drivers/STM32G4xx_HAL_Driver/Src/stm32g4xx_hal_opamp_ex.c ****     SET_BIT(hopamp6->Instance->CSR, OPAMP_CSR_FORCEVP);
 183:Drivers/STM32G4xx_HAL_Driver/Src/stm32g4xx_hal_opamp_ex.c **** #endif
 184:Drivers/STM32G4xx_HAL_Driver/Src/stm32g4xx_hal_opamp_ex.c **** 
 185:Drivers/STM32G4xx_HAL_Driver/Src/stm32g4xx_hal_opamp_ex.c ****     /*  user trimming values are used for offset calibration */
 186:Drivers/STM32G4xx_HAL_Driver/Src/stm32g4xx_hal_opamp_ex.c ****     SET_BIT(hopamp1->Instance->CSR, OPAMP_CSR_USERTRIM);
 187:Drivers/STM32G4xx_HAL_Driver/Src/stm32g4xx_hal_opamp_ex.c ****     SET_BIT(hopamp2->Instance->CSR, OPAMP_CSR_USERTRIM);
 188:Drivers/STM32G4xx_HAL_Driver/Src/stm32g4xx_hal_opamp_ex.c ****     SET_BIT(hopamp3->Instance->CSR, OPAMP_CSR_USERTRIM);
 189:Drivers/STM32G4xx_HAL_Driver/Src/stm32g4xx_hal_opamp_ex.c **** #if defined(STM32G473xx) || defined(STM32G474xx) || defined(STM32G483xx) || defined(STM32G483xx)
 190:Drivers/STM32G4xx_HAL_Driver/Src/stm32g4xx_hal_opamp_ex.c ****     SET_BIT(hopamp4->Instance->CSR, OPAMP_CSR_USERTRIM);
 191:Drivers/STM32G4xx_HAL_Driver/Src/stm32g4xx_hal_opamp_ex.c ****     SET_BIT(hopamp5->Instance->CSR, OPAMP_CSR_USERTRIM);
 192:Drivers/STM32G4xx_HAL_Driver/Src/stm32g4xx_hal_opamp_ex.c ****     SET_BIT(hopamp6->Instance->CSR, OPAMP_CSR_USERTRIM);
 193:Drivers/STM32G4xx_HAL_Driver/Src/stm32g4xx_hal_opamp_ex.c **** #elif defined(STM32G491xx) || defined(STM32G4A1xx)
 194:Drivers/STM32G4xx_HAL_Driver/Src/stm32g4xx_hal_opamp_ex.c ****     SET_BIT(hopamp6->Instance->CSR, OPAMP_CSR_USERTRIM);
 195:Drivers/STM32G4xx_HAL_Driver/Src/stm32g4xx_hal_opamp_ex.c **** #endif
 196:Drivers/STM32G4xx_HAL_Driver/Src/stm32g4xx_hal_opamp_ex.c **** 
 197:Drivers/STM32G4xx_HAL_Driver/Src/stm32g4xx_hal_opamp_ex.c ****     /* Enable calibration */
 198:Drivers/STM32G4xx_HAL_Driver/Src/stm32g4xx_hal_opamp_ex.c ****     SET_BIT(hopamp1->Instance->CSR, OPAMP_CSR_CALON);
 199:Drivers/STM32G4xx_HAL_Driver/Src/stm32g4xx_hal_opamp_ex.c ****     SET_BIT(hopamp2->Instance->CSR, OPAMP_CSR_CALON);
 200:Drivers/STM32G4xx_HAL_Driver/Src/stm32g4xx_hal_opamp_ex.c ****     SET_BIT(hopamp3->Instance->CSR, OPAMP_CSR_CALON);
 201:Drivers/STM32G4xx_HAL_Driver/Src/stm32g4xx_hal_opamp_ex.c **** #if defined(STM32G473xx) || defined(STM32G474xx) || defined(STM32G483xx) || defined(STM32G483xx)
 202:Drivers/STM32G4xx_HAL_Driver/Src/stm32g4xx_hal_opamp_ex.c ****     SET_BIT(hopamp4->Instance->CSR, OPAMP_CSR_CALON);
 203:Drivers/STM32G4xx_HAL_Driver/Src/stm32g4xx_hal_opamp_ex.c ****     SET_BIT(hopamp5->Instance->CSR, OPAMP_CSR_CALON);
 204:Drivers/STM32G4xx_HAL_Driver/Src/stm32g4xx_hal_opamp_ex.c ****     SET_BIT(hopamp6->Instance->CSR, OPAMP_CSR_CALON);
 205:Drivers/STM32G4xx_HAL_Driver/Src/stm32g4xx_hal_opamp_ex.c **** #elif defined(STM32G491xx) || defined(STM32G4A1xx)
 206:Drivers/STM32G4xx_HAL_Driver/Src/stm32g4xx_hal_opamp_ex.c ****     SET_BIT(hopamp6->Instance->CSR, OPAMP_CSR_CALON);
 207:Drivers/STM32G4xx_HAL_Driver/Src/stm32g4xx_hal_opamp_ex.c **** #endif
 208:Drivers/STM32G4xx_HAL_Driver/Src/stm32g4xx_hal_opamp_ex.c **** 
 209:Drivers/STM32G4xx_HAL_Driver/Src/stm32g4xx_hal_opamp_ex.c ****     /* 1st calibration - N */
 210:Drivers/STM32G4xx_HAL_Driver/Src/stm32g4xx_hal_opamp_ex.c ****     /* Select 90% VREF */
 211:Drivers/STM32G4xx_HAL_Driver/Src/stm32g4xx_hal_opamp_ex.c ****     MODIFY_REG(hopamp1->Instance->CSR, OPAMP_CSR_CALSEL, OPAMP_VREF_90VDDA);
 212:Drivers/STM32G4xx_HAL_Driver/Src/stm32g4xx_hal_opamp_ex.c ****     MODIFY_REG(hopamp2->Instance->CSR, OPAMP_CSR_CALSEL, OPAMP_VREF_90VDDA);
 213:Drivers/STM32G4xx_HAL_Driver/Src/stm32g4xx_hal_opamp_ex.c ****     MODIFY_REG(hopamp3->Instance->CSR, OPAMP_CSR_CALSEL, OPAMP_VREF_90VDDA);
 214:Drivers/STM32G4xx_HAL_Driver/Src/stm32g4xx_hal_opamp_ex.c **** #if defined(STM32G473xx) || defined(STM32G474xx) || defined(STM32G483xx) || defined(STM32G483xx)
 215:Drivers/STM32G4xx_HAL_Driver/Src/stm32g4xx_hal_opamp_ex.c ****     MODIFY_REG(hopamp4->Instance->CSR, OPAMP_CSR_CALSEL, OPAMP_VREF_90VDDA);
 216:Drivers/STM32G4xx_HAL_Driver/Src/stm32g4xx_hal_opamp_ex.c ****     MODIFY_REG(hopamp5->Instance->CSR, OPAMP_CSR_CALSEL, OPAMP_VREF_90VDDA);
 217:Drivers/STM32G4xx_HAL_Driver/Src/stm32g4xx_hal_opamp_ex.c ****     MODIFY_REG(hopamp6->Instance->CSR, OPAMP_CSR_CALSEL, OPAMP_VREF_90VDDA);
ARM GAS  /tmp/ccaCrYas.s 			page 6


 218:Drivers/STM32G4xx_HAL_Driver/Src/stm32g4xx_hal_opamp_ex.c **** #elif defined(STM32G491xx) || defined(STM32G4A1xx)
 219:Drivers/STM32G4xx_HAL_Driver/Src/stm32g4xx_hal_opamp_ex.c ****     MODIFY_REG(hopamp6->Instance->CSR, OPAMP_CSR_CALSEL, OPAMP_VREF_90VDDA);
 220:Drivers/STM32G4xx_HAL_Driver/Src/stm32g4xx_hal_opamp_ex.c **** #endif
 221:Drivers/STM32G4xx_HAL_Driver/Src/stm32g4xx_hal_opamp_ex.c **** 
 222:Drivers/STM32G4xx_HAL_Driver/Src/stm32g4xx_hal_opamp_ex.c ****     /* Enable the opamps */
 223:Drivers/STM32G4xx_HAL_Driver/Src/stm32g4xx_hal_opamp_ex.c ****     SET_BIT(hopamp1->Instance->CSR, OPAMP_CSR_OPAMPxEN);
 224:Drivers/STM32G4xx_HAL_Driver/Src/stm32g4xx_hal_opamp_ex.c ****     SET_BIT(hopamp2->Instance->CSR, OPAMP_CSR_OPAMPxEN);
 225:Drivers/STM32G4xx_HAL_Driver/Src/stm32g4xx_hal_opamp_ex.c ****     SET_BIT(hopamp3->Instance->CSR, OPAMP_CSR_OPAMPxEN);
 226:Drivers/STM32G4xx_HAL_Driver/Src/stm32g4xx_hal_opamp_ex.c **** #if defined(STM32G473xx) || defined(STM32G474xx) || defined(STM32G483xx) || defined(STM32G483xx)
 227:Drivers/STM32G4xx_HAL_Driver/Src/stm32g4xx_hal_opamp_ex.c ****     SET_BIT(hopamp4->Instance->CSR, OPAMP_CSR_OPAMPxEN);
 228:Drivers/STM32G4xx_HAL_Driver/Src/stm32g4xx_hal_opamp_ex.c ****     SET_BIT(hopamp5->Instance->CSR, OPAMP_CSR_OPAMPxEN);
 229:Drivers/STM32G4xx_HAL_Driver/Src/stm32g4xx_hal_opamp_ex.c ****     SET_BIT(hopamp6->Instance->CSR, OPAMP_CSR_OPAMPxEN);
 230:Drivers/STM32G4xx_HAL_Driver/Src/stm32g4xx_hal_opamp_ex.c **** #elif defined(STM32G491xx) || defined(STM32G4A1xx)
 231:Drivers/STM32G4xx_HAL_Driver/Src/stm32g4xx_hal_opamp_ex.c ****     SET_BIT(hopamp6->Instance->CSR, OPAMP_CSR_OPAMPxEN);
 232:Drivers/STM32G4xx_HAL_Driver/Src/stm32g4xx_hal_opamp_ex.c **** #endif
 233:Drivers/STM32G4xx_HAL_Driver/Src/stm32g4xx_hal_opamp_ex.c **** 
 234:Drivers/STM32G4xx_HAL_Driver/Src/stm32g4xx_hal_opamp_ex.c ****     /* Init trimming counter */
 235:Drivers/STM32G4xx_HAL_Driver/Src/stm32g4xx_hal_opamp_ex.c ****     /* Medium value */
 236:Drivers/STM32G4xx_HAL_Driver/Src/stm32g4xx_hal_opamp_ex.c ****     trimmingvaluen1 = 16UL;
 237:Drivers/STM32G4xx_HAL_Driver/Src/stm32g4xx_hal_opamp_ex.c ****     trimmingvaluen2 = 16UL;
 238:Drivers/STM32G4xx_HAL_Driver/Src/stm32g4xx_hal_opamp_ex.c ****     trimmingvaluen3 = 16UL;
 239:Drivers/STM32G4xx_HAL_Driver/Src/stm32g4xx_hal_opamp_ex.c **** #if defined(STM32G473xx) || defined(STM32G474xx) || defined(STM32G483xx) || defined(STM32G483xx)
 240:Drivers/STM32G4xx_HAL_Driver/Src/stm32g4xx_hal_opamp_ex.c ****     trimmingvaluen4 = 16UL;
 241:Drivers/STM32G4xx_HAL_Driver/Src/stm32g4xx_hal_opamp_ex.c ****     trimmingvaluen5 = 16UL;
 242:Drivers/STM32G4xx_HAL_Driver/Src/stm32g4xx_hal_opamp_ex.c ****     trimmingvaluen6 = 16UL;
 243:Drivers/STM32G4xx_HAL_Driver/Src/stm32g4xx_hal_opamp_ex.c **** #elif defined(STM32G491xx) || defined(STM32G4A1xx)
 244:Drivers/STM32G4xx_HAL_Driver/Src/stm32g4xx_hal_opamp_ex.c ****     trimmingvaluen6 = 16UL;
 245:Drivers/STM32G4xx_HAL_Driver/Src/stm32g4xx_hal_opamp_ex.c **** #endif
 246:Drivers/STM32G4xx_HAL_Driver/Src/stm32g4xx_hal_opamp_ex.c ****     delta = 8UL;
 247:Drivers/STM32G4xx_HAL_Driver/Src/stm32g4xx_hal_opamp_ex.c **** 
 248:Drivers/STM32G4xx_HAL_Driver/Src/stm32g4xx_hal_opamp_ex.c ****     while (delta != 0UL)
 249:Drivers/STM32G4xx_HAL_Driver/Src/stm32g4xx_hal_opamp_ex.c ****     {
 250:Drivers/STM32G4xx_HAL_Driver/Src/stm32g4xx_hal_opamp_ex.c ****       /* Set candidate trimming */
 251:Drivers/STM32G4xx_HAL_Driver/Src/stm32g4xx_hal_opamp_ex.c ****       MODIFY_REG(hopamp1->Instance->CSR, OPAMP_CSR_TRIMOFFSETN, trimmingvaluen1 << OPAMP_INPUT_INVE
 252:Drivers/STM32G4xx_HAL_Driver/Src/stm32g4xx_hal_opamp_ex.c ****       MODIFY_REG(hopamp2->Instance->CSR, OPAMP_CSR_TRIMOFFSETN, trimmingvaluen2 << OPAMP_INPUT_INVE
 253:Drivers/STM32G4xx_HAL_Driver/Src/stm32g4xx_hal_opamp_ex.c ****       MODIFY_REG(hopamp3->Instance->CSR, OPAMP_CSR_TRIMOFFSETN, trimmingvaluen3 << OPAMP_INPUT_INVE
 254:Drivers/STM32G4xx_HAL_Driver/Src/stm32g4xx_hal_opamp_ex.c **** #if defined(STM32G473xx) || defined(STM32G474xx) || defined(STM32G483xx) || defined(STM32G483xx)
 255:Drivers/STM32G4xx_HAL_Driver/Src/stm32g4xx_hal_opamp_ex.c ****       MODIFY_REG(hopamp4->Instance->CSR, OPAMP_CSR_TRIMOFFSETN, trimmingvaluen4 << OPAMP_INPUT_INVE
 256:Drivers/STM32G4xx_HAL_Driver/Src/stm32g4xx_hal_opamp_ex.c ****       MODIFY_REG(hopamp5->Instance->CSR, OPAMP_CSR_TRIMOFFSETN, trimmingvaluen5 << OPAMP_INPUT_INVE
 257:Drivers/STM32G4xx_HAL_Driver/Src/stm32g4xx_hal_opamp_ex.c ****       MODIFY_REG(hopamp6->Instance->CSR, OPAMP_CSR_TRIMOFFSETN, trimmingvaluen6 << OPAMP_INPUT_INVE
 258:Drivers/STM32G4xx_HAL_Driver/Src/stm32g4xx_hal_opamp_ex.c **** #elif defined(STM32G491xx) || defined(STM32G4A1xx)
 259:Drivers/STM32G4xx_HAL_Driver/Src/stm32g4xx_hal_opamp_ex.c ****       MODIFY_REG(hopamp6->Instance->CSR, OPAMP_CSR_TRIMOFFSETN, trimmingvaluen6 << OPAMP_INPUT_INVE
 260:Drivers/STM32G4xx_HAL_Driver/Src/stm32g4xx_hal_opamp_ex.c **** #endif
 261:Drivers/STM32G4xx_HAL_Driver/Src/stm32g4xx_hal_opamp_ex.c **** 
 262:Drivers/STM32G4xx_HAL_Driver/Src/stm32g4xx_hal_opamp_ex.c ****       /* OFFTRIMmax delay 2 ms as per datasheet (electrical characteristics */
 263:Drivers/STM32G4xx_HAL_Driver/Src/stm32g4xx_hal_opamp_ex.c ****       /* Offset trim time: during calibration, minimum time needed between */
 264:Drivers/STM32G4xx_HAL_Driver/Src/stm32g4xx_hal_opamp_ex.c ****       /* two steps to have 1 mV accuracy */
 265:Drivers/STM32G4xx_HAL_Driver/Src/stm32g4xx_hal_opamp_ex.c ****       HAL_Delay(2);
 266:Drivers/STM32G4xx_HAL_Driver/Src/stm32g4xx_hal_opamp_ex.c **** 
 267:Drivers/STM32G4xx_HAL_Driver/Src/stm32g4xx_hal_opamp_ex.c ****       if ((hopamp1->Instance->CSR & OPAMP_CSR_OUTCAL) != 0UL)
 268:Drivers/STM32G4xx_HAL_Driver/Src/stm32g4xx_hal_opamp_ex.c ****       {
 269:Drivers/STM32G4xx_HAL_Driver/Src/stm32g4xx_hal_opamp_ex.c ****         /* OPAMP_CSR_OUTCAL is HIGH try higher trimming */
 270:Drivers/STM32G4xx_HAL_Driver/Src/stm32g4xx_hal_opamp_ex.c ****         trimmingvaluen1 += delta;
 271:Drivers/STM32G4xx_HAL_Driver/Src/stm32g4xx_hal_opamp_ex.c ****       }
 272:Drivers/STM32G4xx_HAL_Driver/Src/stm32g4xx_hal_opamp_ex.c ****       else
 273:Drivers/STM32G4xx_HAL_Driver/Src/stm32g4xx_hal_opamp_ex.c ****       {
 274:Drivers/STM32G4xx_HAL_Driver/Src/stm32g4xx_hal_opamp_ex.c ****         /* OPAMP_CSR_OUTCAL is LOW try lower trimming */
ARM GAS  /tmp/ccaCrYas.s 			page 7


 275:Drivers/STM32G4xx_HAL_Driver/Src/stm32g4xx_hal_opamp_ex.c ****         trimmingvaluen1 -= delta;
 276:Drivers/STM32G4xx_HAL_Driver/Src/stm32g4xx_hal_opamp_ex.c ****       }
 277:Drivers/STM32G4xx_HAL_Driver/Src/stm32g4xx_hal_opamp_ex.c **** 
 278:Drivers/STM32G4xx_HAL_Driver/Src/stm32g4xx_hal_opamp_ex.c ****       if ((hopamp2->Instance->CSR & OPAMP_CSR_OUTCAL) != 0UL)
 279:Drivers/STM32G4xx_HAL_Driver/Src/stm32g4xx_hal_opamp_ex.c ****       {
 280:Drivers/STM32G4xx_HAL_Driver/Src/stm32g4xx_hal_opamp_ex.c ****         /* OPAMP_CSR_OUTCAL is HIGH try higher trimming */
 281:Drivers/STM32G4xx_HAL_Driver/Src/stm32g4xx_hal_opamp_ex.c ****         trimmingvaluen2 += delta;
 282:Drivers/STM32G4xx_HAL_Driver/Src/stm32g4xx_hal_opamp_ex.c ****       }
 283:Drivers/STM32G4xx_HAL_Driver/Src/stm32g4xx_hal_opamp_ex.c ****       else
 284:Drivers/STM32G4xx_HAL_Driver/Src/stm32g4xx_hal_opamp_ex.c ****       {
 285:Drivers/STM32G4xx_HAL_Driver/Src/stm32g4xx_hal_opamp_ex.c ****         /* OPAMP_CSR_OUTCAL is LOW try lower trimming */
 286:Drivers/STM32G4xx_HAL_Driver/Src/stm32g4xx_hal_opamp_ex.c ****         trimmingvaluen2 -= delta;
 287:Drivers/STM32G4xx_HAL_Driver/Src/stm32g4xx_hal_opamp_ex.c ****       }
 288:Drivers/STM32G4xx_HAL_Driver/Src/stm32g4xx_hal_opamp_ex.c **** 
 289:Drivers/STM32G4xx_HAL_Driver/Src/stm32g4xx_hal_opamp_ex.c ****       if ((hopamp3->Instance->CSR & OPAMP_CSR_OUTCAL) != 0UL)
 290:Drivers/STM32G4xx_HAL_Driver/Src/stm32g4xx_hal_opamp_ex.c ****       {
 291:Drivers/STM32G4xx_HAL_Driver/Src/stm32g4xx_hal_opamp_ex.c ****         /* OPAMP_CSR_OUTCAL is HIGH try higher trimming */
 292:Drivers/STM32G4xx_HAL_Driver/Src/stm32g4xx_hal_opamp_ex.c ****         trimmingvaluen3 += delta;
 293:Drivers/STM32G4xx_HAL_Driver/Src/stm32g4xx_hal_opamp_ex.c ****       }
 294:Drivers/STM32G4xx_HAL_Driver/Src/stm32g4xx_hal_opamp_ex.c ****       else
 295:Drivers/STM32G4xx_HAL_Driver/Src/stm32g4xx_hal_opamp_ex.c ****       {
 296:Drivers/STM32G4xx_HAL_Driver/Src/stm32g4xx_hal_opamp_ex.c ****         /* OPAMP_CSR_OUTCAL is LOW try lower trimming */
 297:Drivers/STM32G4xx_HAL_Driver/Src/stm32g4xx_hal_opamp_ex.c ****         trimmingvaluen3 -= delta;
 298:Drivers/STM32G4xx_HAL_Driver/Src/stm32g4xx_hal_opamp_ex.c ****       }
 299:Drivers/STM32G4xx_HAL_Driver/Src/stm32g4xx_hal_opamp_ex.c **** 
 300:Drivers/STM32G4xx_HAL_Driver/Src/stm32g4xx_hal_opamp_ex.c **** #if defined(STM32G473xx) || defined(STM32G474xx) || defined(STM32G483xx) || defined(STM32G483xx)
 301:Drivers/STM32G4xx_HAL_Driver/Src/stm32g4xx_hal_opamp_ex.c ****       if ((hopamp4->Instance->CSR & OPAMP_CSR_OUTCAL) != 0UL)
 302:Drivers/STM32G4xx_HAL_Driver/Src/stm32g4xx_hal_opamp_ex.c ****       {
 303:Drivers/STM32G4xx_HAL_Driver/Src/stm32g4xx_hal_opamp_ex.c ****         /* OPAMP_CSR_OUTCAL is HIGH try higher trimming */
 304:Drivers/STM32G4xx_HAL_Driver/Src/stm32g4xx_hal_opamp_ex.c ****         trimmingvaluen4 += delta;
 305:Drivers/STM32G4xx_HAL_Driver/Src/stm32g4xx_hal_opamp_ex.c ****       }
 306:Drivers/STM32G4xx_HAL_Driver/Src/stm32g4xx_hal_opamp_ex.c ****       else
 307:Drivers/STM32G4xx_HAL_Driver/Src/stm32g4xx_hal_opamp_ex.c ****       {
 308:Drivers/STM32G4xx_HAL_Driver/Src/stm32g4xx_hal_opamp_ex.c ****         /* OPAMP_CSR_OUTCAL is LOW try lower trimming */
 309:Drivers/STM32G4xx_HAL_Driver/Src/stm32g4xx_hal_opamp_ex.c ****         trimmingvaluen4 -= delta;
 310:Drivers/STM32G4xx_HAL_Driver/Src/stm32g4xx_hal_opamp_ex.c ****       }
 311:Drivers/STM32G4xx_HAL_Driver/Src/stm32g4xx_hal_opamp_ex.c **** 
 312:Drivers/STM32G4xx_HAL_Driver/Src/stm32g4xx_hal_opamp_ex.c ****       if ((hopamp5->Instance->CSR & OPAMP_CSR_OUTCAL) != 0UL)
 313:Drivers/STM32G4xx_HAL_Driver/Src/stm32g4xx_hal_opamp_ex.c ****       {
 314:Drivers/STM32G4xx_HAL_Driver/Src/stm32g4xx_hal_opamp_ex.c ****         /* OPAMP_CSR_OUTCAL is HIGH try higher trimming */
 315:Drivers/STM32G4xx_HAL_Driver/Src/stm32g4xx_hal_opamp_ex.c ****         trimmingvaluen5 += delta;
 316:Drivers/STM32G4xx_HAL_Driver/Src/stm32g4xx_hal_opamp_ex.c ****       }
 317:Drivers/STM32G4xx_HAL_Driver/Src/stm32g4xx_hal_opamp_ex.c ****       else
 318:Drivers/STM32G4xx_HAL_Driver/Src/stm32g4xx_hal_opamp_ex.c ****       {
 319:Drivers/STM32G4xx_HAL_Driver/Src/stm32g4xx_hal_opamp_ex.c ****         /* OPAMP_CSR_OUTCAL is LOW try lower trimming */
 320:Drivers/STM32G4xx_HAL_Driver/Src/stm32g4xx_hal_opamp_ex.c ****         trimmingvaluen5 -= delta;
 321:Drivers/STM32G4xx_HAL_Driver/Src/stm32g4xx_hal_opamp_ex.c ****       }
 322:Drivers/STM32G4xx_HAL_Driver/Src/stm32g4xx_hal_opamp_ex.c **** 
 323:Drivers/STM32G4xx_HAL_Driver/Src/stm32g4xx_hal_opamp_ex.c ****       if ((hopamp6->Instance->CSR & OPAMP_CSR_OUTCAL) != 0UL)
 324:Drivers/STM32G4xx_HAL_Driver/Src/stm32g4xx_hal_opamp_ex.c ****       {
 325:Drivers/STM32G4xx_HAL_Driver/Src/stm32g4xx_hal_opamp_ex.c ****         /* OPAMP_CSR_OUTCAL is HIGH try higher trimming */
 326:Drivers/STM32G4xx_HAL_Driver/Src/stm32g4xx_hal_opamp_ex.c ****         trimmingvaluen6 += delta;
 327:Drivers/STM32G4xx_HAL_Driver/Src/stm32g4xx_hal_opamp_ex.c ****       }
 328:Drivers/STM32G4xx_HAL_Driver/Src/stm32g4xx_hal_opamp_ex.c ****       else
 329:Drivers/STM32G4xx_HAL_Driver/Src/stm32g4xx_hal_opamp_ex.c ****       {
 330:Drivers/STM32G4xx_HAL_Driver/Src/stm32g4xx_hal_opamp_ex.c ****         /* OPAMP_CSR_OUTCAL is LOW try lower trimming */
 331:Drivers/STM32G4xx_HAL_Driver/Src/stm32g4xx_hal_opamp_ex.c ****         trimmingvaluen6 -= delta;
ARM GAS  /tmp/ccaCrYas.s 			page 8


 332:Drivers/STM32G4xx_HAL_Driver/Src/stm32g4xx_hal_opamp_ex.c ****       }
 333:Drivers/STM32G4xx_HAL_Driver/Src/stm32g4xx_hal_opamp_ex.c **** 
 334:Drivers/STM32G4xx_HAL_Driver/Src/stm32g4xx_hal_opamp_ex.c **** #elif defined(STM32G491xx) || defined(STM32G4A1xx)
 335:Drivers/STM32G4xx_HAL_Driver/Src/stm32g4xx_hal_opamp_ex.c ****       if ((hopamp6->Instance->CSR & OPAMP_CSR_OUTCAL) != 0UL)
 336:Drivers/STM32G4xx_HAL_Driver/Src/stm32g4xx_hal_opamp_ex.c ****       {
 337:Drivers/STM32G4xx_HAL_Driver/Src/stm32g4xx_hal_opamp_ex.c ****         /* OPAMP_CSR_OUTCAL is HIGH try higher trimming */
 338:Drivers/STM32G4xx_HAL_Driver/Src/stm32g4xx_hal_opamp_ex.c ****         trimmingvaluen6 += delta;
 339:Drivers/STM32G4xx_HAL_Driver/Src/stm32g4xx_hal_opamp_ex.c ****       }
 340:Drivers/STM32G4xx_HAL_Driver/Src/stm32g4xx_hal_opamp_ex.c ****       else
 341:Drivers/STM32G4xx_HAL_Driver/Src/stm32g4xx_hal_opamp_ex.c ****       {
 342:Drivers/STM32G4xx_HAL_Driver/Src/stm32g4xx_hal_opamp_ex.c ****         /* OPAMP_CSR_OUTCAL is LOW try lower trimming */
 343:Drivers/STM32G4xx_HAL_Driver/Src/stm32g4xx_hal_opamp_ex.c ****         trimmingvaluen6 -= delta;
 344:Drivers/STM32G4xx_HAL_Driver/Src/stm32g4xx_hal_opamp_ex.c ****       }
 345:Drivers/STM32G4xx_HAL_Driver/Src/stm32g4xx_hal_opamp_ex.c **** #endif
 346:Drivers/STM32G4xx_HAL_Driver/Src/stm32g4xx_hal_opamp_ex.c **** 
 347:Drivers/STM32G4xx_HAL_Driver/Src/stm32g4xx_hal_opamp_ex.c ****       delta >>= 1;
 348:Drivers/STM32G4xx_HAL_Driver/Src/stm32g4xx_hal_opamp_ex.c ****     }
 349:Drivers/STM32G4xx_HAL_Driver/Src/stm32g4xx_hal_opamp_ex.c **** 
 350:Drivers/STM32G4xx_HAL_Driver/Src/stm32g4xx_hal_opamp_ex.c ****     /* Still need to check if righ calibration is current value or un step below */
 351:Drivers/STM32G4xx_HAL_Driver/Src/stm32g4xx_hal_opamp_ex.c ****     /* Indeed the first value that causes the OUTCAL bit to change from 1 to 0 */
 352:Drivers/STM32G4xx_HAL_Driver/Src/stm32g4xx_hal_opamp_ex.c ****     MODIFY_REG(hopamp1->Instance->CSR, OPAMP_CSR_TRIMOFFSETN, trimmingvaluen1 << OPAMP_INPUT_INVERT
 353:Drivers/STM32G4xx_HAL_Driver/Src/stm32g4xx_hal_opamp_ex.c ****     MODIFY_REG(hopamp2->Instance->CSR, OPAMP_CSR_TRIMOFFSETN, trimmingvaluen2 << OPAMP_INPUT_INVERT
 354:Drivers/STM32G4xx_HAL_Driver/Src/stm32g4xx_hal_opamp_ex.c ****     MODIFY_REG(hopamp3->Instance->CSR, OPAMP_CSR_TRIMOFFSETN, trimmingvaluen3 << OPAMP_INPUT_INVERT
 355:Drivers/STM32G4xx_HAL_Driver/Src/stm32g4xx_hal_opamp_ex.c **** #if defined(STM32G473xx) || defined(STM32G474xx) || defined(STM32G483xx) || defined(STM32G483xx)
 356:Drivers/STM32G4xx_HAL_Driver/Src/stm32g4xx_hal_opamp_ex.c ****     MODIFY_REG(hopamp4->Instance->CSR, OPAMP_CSR_TRIMOFFSETN, trimmingvaluen4 << OPAMP_INPUT_INVERT
 357:Drivers/STM32G4xx_HAL_Driver/Src/stm32g4xx_hal_opamp_ex.c ****     MODIFY_REG(hopamp5->Instance->CSR, OPAMP_CSR_TRIMOFFSETN, trimmingvaluen5 << OPAMP_INPUT_INVERT
 358:Drivers/STM32G4xx_HAL_Driver/Src/stm32g4xx_hal_opamp_ex.c ****     MODIFY_REG(hopamp6->Instance->CSR, OPAMP_CSR_TRIMOFFSETN, trimmingvaluen6 << OPAMP_INPUT_INVERT
 359:Drivers/STM32G4xx_HAL_Driver/Src/stm32g4xx_hal_opamp_ex.c **** #elif defined(STM32G491xx) || defined(STM32G4A1xx)
 360:Drivers/STM32G4xx_HAL_Driver/Src/stm32g4xx_hal_opamp_ex.c ****     MODIFY_REG(hopamp6->Instance->CSR, OPAMP_CSR_TRIMOFFSETN, trimmingvaluen6 << OPAMP_INPUT_INVERT
 361:Drivers/STM32G4xx_HAL_Driver/Src/stm32g4xx_hal_opamp_ex.c **** #endif
 362:Drivers/STM32G4xx_HAL_Driver/Src/stm32g4xx_hal_opamp_ex.c **** 
 363:Drivers/STM32G4xx_HAL_Driver/Src/stm32g4xx_hal_opamp_ex.c ****     /* OFFTRIMmax delay 2 ms as per datasheet (electrical characteristics */
 364:Drivers/STM32G4xx_HAL_Driver/Src/stm32g4xx_hal_opamp_ex.c ****     /* Offset trim time: during calibration, minimum time needed between */
 365:Drivers/STM32G4xx_HAL_Driver/Src/stm32g4xx_hal_opamp_ex.c ****     /* two steps to have 1 mV accuracy */
 366:Drivers/STM32G4xx_HAL_Driver/Src/stm32g4xx_hal_opamp_ex.c ****     HAL_Delay(2);
 367:Drivers/STM32G4xx_HAL_Driver/Src/stm32g4xx_hal_opamp_ex.c **** 
 368:Drivers/STM32G4xx_HAL_Driver/Src/stm32g4xx_hal_opamp_ex.c ****     if ((hopamp1->Instance->CSR & OPAMP_CSR_OUTCAL) != 0UL)
 369:Drivers/STM32G4xx_HAL_Driver/Src/stm32g4xx_hal_opamp_ex.c ****     {
 370:Drivers/STM32G4xx_HAL_Driver/Src/stm32g4xx_hal_opamp_ex.c ****       /* OPAMP_CSR_OUTCAL is actually one value more */
 371:Drivers/STM32G4xx_HAL_Driver/Src/stm32g4xx_hal_opamp_ex.c ****       trimmingvaluen1++;
 372:Drivers/STM32G4xx_HAL_Driver/Src/stm32g4xx_hal_opamp_ex.c ****       /* Set right trimming */
 373:Drivers/STM32G4xx_HAL_Driver/Src/stm32g4xx_hal_opamp_ex.c ****       MODIFY_REG(hopamp1->Instance->CSR, OPAMP_CSR_TRIMOFFSETN, trimmingvaluen1 << OPAMP_INPUT_INVE
 374:Drivers/STM32G4xx_HAL_Driver/Src/stm32g4xx_hal_opamp_ex.c ****     }
 375:Drivers/STM32G4xx_HAL_Driver/Src/stm32g4xx_hal_opamp_ex.c **** 
 376:Drivers/STM32G4xx_HAL_Driver/Src/stm32g4xx_hal_opamp_ex.c ****     if ((hopamp2->Instance->CSR & OPAMP_CSR_OUTCAL) != 0UL)
 377:Drivers/STM32G4xx_HAL_Driver/Src/stm32g4xx_hal_opamp_ex.c ****     {
 378:Drivers/STM32G4xx_HAL_Driver/Src/stm32g4xx_hal_opamp_ex.c ****       /* OPAMP_CSR_OUTCAL is actually one value more */
 379:Drivers/STM32G4xx_HAL_Driver/Src/stm32g4xx_hal_opamp_ex.c ****       trimmingvaluen2++;
 380:Drivers/STM32G4xx_HAL_Driver/Src/stm32g4xx_hal_opamp_ex.c ****       /* Set right trimming */
 381:Drivers/STM32G4xx_HAL_Driver/Src/stm32g4xx_hal_opamp_ex.c ****       MODIFY_REG(hopamp2->Instance->CSR, OPAMP_CSR_TRIMOFFSETN, trimmingvaluen2 << OPAMP_INPUT_INVE
 382:Drivers/STM32G4xx_HAL_Driver/Src/stm32g4xx_hal_opamp_ex.c ****     }
 383:Drivers/STM32G4xx_HAL_Driver/Src/stm32g4xx_hal_opamp_ex.c **** 
 384:Drivers/STM32G4xx_HAL_Driver/Src/stm32g4xx_hal_opamp_ex.c ****     if ((hopamp3->Instance->CSR & OPAMP_CSR_OUTCAL) != 0UL)
 385:Drivers/STM32G4xx_HAL_Driver/Src/stm32g4xx_hal_opamp_ex.c ****     {
 386:Drivers/STM32G4xx_HAL_Driver/Src/stm32g4xx_hal_opamp_ex.c ****       /* OPAMP_CSR_OUTCAL is actually one value more */
 387:Drivers/STM32G4xx_HAL_Driver/Src/stm32g4xx_hal_opamp_ex.c ****       trimmingvaluen3++;
 388:Drivers/STM32G4xx_HAL_Driver/Src/stm32g4xx_hal_opamp_ex.c ****       /* Set right trimming */
ARM GAS  /tmp/ccaCrYas.s 			page 9


 389:Drivers/STM32G4xx_HAL_Driver/Src/stm32g4xx_hal_opamp_ex.c ****       MODIFY_REG(hopamp3->Instance->CSR, OPAMP_CSR_TRIMOFFSETN, trimmingvaluen3 << OPAMP_INPUT_INVE
 390:Drivers/STM32G4xx_HAL_Driver/Src/stm32g4xx_hal_opamp_ex.c ****     }
 391:Drivers/STM32G4xx_HAL_Driver/Src/stm32g4xx_hal_opamp_ex.c **** 
 392:Drivers/STM32G4xx_HAL_Driver/Src/stm32g4xx_hal_opamp_ex.c **** #if defined(STM32G473xx) || defined(STM32G474xx) || defined(STM32G483xx) || defined(STM32G483xx)
 393:Drivers/STM32G4xx_HAL_Driver/Src/stm32g4xx_hal_opamp_ex.c ****     if ((hopamp4->Instance->CSR & OPAMP_CSR_OUTCAL) != 0UL)
 394:Drivers/STM32G4xx_HAL_Driver/Src/stm32g4xx_hal_opamp_ex.c ****     {
 395:Drivers/STM32G4xx_HAL_Driver/Src/stm32g4xx_hal_opamp_ex.c ****       /* OPAMP_CSR_OUTCAL is actually one value more */
 396:Drivers/STM32G4xx_HAL_Driver/Src/stm32g4xx_hal_opamp_ex.c ****       trimmingvaluen4++;
 397:Drivers/STM32G4xx_HAL_Driver/Src/stm32g4xx_hal_opamp_ex.c ****       /* Set right trimming */
 398:Drivers/STM32G4xx_HAL_Driver/Src/stm32g4xx_hal_opamp_ex.c ****       MODIFY_REG(hopamp4->Instance->CSR, OPAMP_CSR_TRIMOFFSETN, trimmingvaluen4 << OPAMP_INPUT_INVE
 399:Drivers/STM32G4xx_HAL_Driver/Src/stm32g4xx_hal_opamp_ex.c ****     }
 400:Drivers/STM32G4xx_HAL_Driver/Src/stm32g4xx_hal_opamp_ex.c **** 
 401:Drivers/STM32G4xx_HAL_Driver/Src/stm32g4xx_hal_opamp_ex.c ****     if ((hopamp5->Instance->CSR & OPAMP_CSR_OUTCAL) != 0UL)
 402:Drivers/STM32G4xx_HAL_Driver/Src/stm32g4xx_hal_opamp_ex.c ****     {
 403:Drivers/STM32G4xx_HAL_Driver/Src/stm32g4xx_hal_opamp_ex.c ****       /* OPAMP_CSR_OUTCAL is actually one value more */
 404:Drivers/STM32G4xx_HAL_Driver/Src/stm32g4xx_hal_opamp_ex.c ****       trimmingvaluen5++;
 405:Drivers/STM32G4xx_HAL_Driver/Src/stm32g4xx_hal_opamp_ex.c ****       /* Set right trimming */
 406:Drivers/STM32G4xx_HAL_Driver/Src/stm32g4xx_hal_opamp_ex.c ****       MODIFY_REG(hopamp5->Instance->CSR, OPAMP_CSR_TRIMOFFSETN, trimmingvaluen5 << OPAMP_INPUT_INVE
 407:Drivers/STM32G4xx_HAL_Driver/Src/stm32g4xx_hal_opamp_ex.c ****     }
 408:Drivers/STM32G4xx_HAL_Driver/Src/stm32g4xx_hal_opamp_ex.c **** 
 409:Drivers/STM32G4xx_HAL_Driver/Src/stm32g4xx_hal_opamp_ex.c ****     if ((hopamp6->Instance->CSR & OPAMP_CSR_OUTCAL) != 0UL)
 410:Drivers/STM32G4xx_HAL_Driver/Src/stm32g4xx_hal_opamp_ex.c ****     {
 411:Drivers/STM32G4xx_HAL_Driver/Src/stm32g4xx_hal_opamp_ex.c ****       /* OPAMP_CSR_OUTCAL is actually one value more */
 412:Drivers/STM32G4xx_HAL_Driver/Src/stm32g4xx_hal_opamp_ex.c ****       trimmingvaluen6++;
 413:Drivers/STM32G4xx_HAL_Driver/Src/stm32g4xx_hal_opamp_ex.c ****       /* Set right trimming */
 414:Drivers/STM32G4xx_HAL_Driver/Src/stm32g4xx_hal_opamp_ex.c ****       MODIFY_REG(hopamp6->Instance->CSR, OPAMP_CSR_TRIMOFFSETN, trimmingvaluen6 << OPAMP_INPUT_INVE
 415:Drivers/STM32G4xx_HAL_Driver/Src/stm32g4xx_hal_opamp_ex.c ****     }
 416:Drivers/STM32G4xx_HAL_Driver/Src/stm32g4xx_hal_opamp_ex.c **** 
 417:Drivers/STM32G4xx_HAL_Driver/Src/stm32g4xx_hal_opamp_ex.c **** #elif defined(STM32G491xx) || defined(STM32G4A1xx)
 418:Drivers/STM32G4xx_HAL_Driver/Src/stm32g4xx_hal_opamp_ex.c ****     if ((hopamp6->Instance->CSR & OPAMP_CSR_OUTCAL) != 0UL)
 419:Drivers/STM32G4xx_HAL_Driver/Src/stm32g4xx_hal_opamp_ex.c ****     {
 420:Drivers/STM32G4xx_HAL_Driver/Src/stm32g4xx_hal_opamp_ex.c ****       /* OPAMP_CSR_OUTCAL is actually one value more */
 421:Drivers/STM32G4xx_HAL_Driver/Src/stm32g4xx_hal_opamp_ex.c ****       trimmingvaluen6++;
 422:Drivers/STM32G4xx_HAL_Driver/Src/stm32g4xx_hal_opamp_ex.c ****       /* Set right trimming */
 423:Drivers/STM32G4xx_HAL_Driver/Src/stm32g4xx_hal_opamp_ex.c ****       MODIFY_REG(hopamp6->Instance->CSR, OPAMP_CSR_TRIMOFFSETN, trimmingvaluen6 << OPAMP_INPUT_INVE
 424:Drivers/STM32G4xx_HAL_Driver/Src/stm32g4xx_hal_opamp_ex.c ****     }
 425:Drivers/STM32G4xx_HAL_Driver/Src/stm32g4xx_hal_opamp_ex.c **** #endif
 426:Drivers/STM32G4xx_HAL_Driver/Src/stm32g4xx_hal_opamp_ex.c **** 
 427:Drivers/STM32G4xx_HAL_Driver/Src/stm32g4xx_hal_opamp_ex.c ****     /* 2nd calibration - P */
 428:Drivers/STM32G4xx_HAL_Driver/Src/stm32g4xx_hal_opamp_ex.c ****     /* Select 10% VREF */
 429:Drivers/STM32G4xx_HAL_Driver/Src/stm32g4xx_hal_opamp_ex.c ****     MODIFY_REG(hopamp1->Instance->CSR, OPAMP_CSR_CALSEL, OPAMP_VREF_10VDDA);
 430:Drivers/STM32G4xx_HAL_Driver/Src/stm32g4xx_hal_opamp_ex.c ****     MODIFY_REG(hopamp2->Instance->CSR, OPAMP_CSR_CALSEL, OPAMP_VREF_10VDDA);
 431:Drivers/STM32G4xx_HAL_Driver/Src/stm32g4xx_hal_opamp_ex.c ****     MODIFY_REG(hopamp3->Instance->CSR, OPAMP_CSR_CALSEL, OPAMP_VREF_10VDDA);
 432:Drivers/STM32G4xx_HAL_Driver/Src/stm32g4xx_hal_opamp_ex.c **** #if defined(STM32G473xx) || defined(STM32G474xx) || defined(STM32G483xx) || defined(STM32G483xx)
 433:Drivers/STM32G4xx_HAL_Driver/Src/stm32g4xx_hal_opamp_ex.c ****     MODIFY_REG(hopamp4->Instance->CSR, OPAMP_CSR_CALSEL, OPAMP_VREF_10VDDA);
 434:Drivers/STM32G4xx_HAL_Driver/Src/stm32g4xx_hal_opamp_ex.c ****     MODIFY_REG(hopamp5->Instance->CSR, OPAMP_CSR_CALSEL, OPAMP_VREF_10VDDA);
 435:Drivers/STM32G4xx_HAL_Driver/Src/stm32g4xx_hal_opamp_ex.c ****     MODIFY_REG(hopamp6->Instance->CSR, OPAMP_CSR_CALSEL, OPAMP_VREF_10VDDA);
 436:Drivers/STM32G4xx_HAL_Driver/Src/stm32g4xx_hal_opamp_ex.c **** #elif defined(STM32G491xx) || defined(STM32G4A1xx)
 437:Drivers/STM32G4xx_HAL_Driver/Src/stm32g4xx_hal_opamp_ex.c ****     MODIFY_REG(hopamp6->Instance->CSR, OPAMP_CSR_CALSEL, OPAMP_VREF_10VDDA);
 438:Drivers/STM32G4xx_HAL_Driver/Src/stm32g4xx_hal_opamp_ex.c **** #endif
 439:Drivers/STM32G4xx_HAL_Driver/Src/stm32g4xx_hal_opamp_ex.c **** 
 440:Drivers/STM32G4xx_HAL_Driver/Src/stm32g4xx_hal_opamp_ex.c ****     /* Init trimming counter */
 441:Drivers/STM32G4xx_HAL_Driver/Src/stm32g4xx_hal_opamp_ex.c ****     /* Medium value */
 442:Drivers/STM32G4xx_HAL_Driver/Src/stm32g4xx_hal_opamp_ex.c ****     trimmingvaluep1 = 16UL;
 443:Drivers/STM32G4xx_HAL_Driver/Src/stm32g4xx_hal_opamp_ex.c ****     trimmingvaluep2 = 16UL;
 444:Drivers/STM32G4xx_HAL_Driver/Src/stm32g4xx_hal_opamp_ex.c ****     trimmingvaluep3 = 16UL;
 445:Drivers/STM32G4xx_HAL_Driver/Src/stm32g4xx_hal_opamp_ex.c **** #if defined(STM32G473xx) || defined(STM32G474xx) || defined(STM32G483xx) || defined(STM32G483xx)
ARM GAS  /tmp/ccaCrYas.s 			page 10


 446:Drivers/STM32G4xx_HAL_Driver/Src/stm32g4xx_hal_opamp_ex.c ****     trimmingvaluep4 = 16UL;
 447:Drivers/STM32G4xx_HAL_Driver/Src/stm32g4xx_hal_opamp_ex.c ****     trimmingvaluep5 = 16UL;
 448:Drivers/STM32G4xx_HAL_Driver/Src/stm32g4xx_hal_opamp_ex.c ****     trimmingvaluep6 = 16UL;
 449:Drivers/STM32G4xx_HAL_Driver/Src/stm32g4xx_hal_opamp_ex.c **** #elif defined(STM32G491xx) || defined(STM32G4A1xx)
 450:Drivers/STM32G4xx_HAL_Driver/Src/stm32g4xx_hal_opamp_ex.c ****     trimmingvaluep6 = 16UL;
 451:Drivers/STM32G4xx_HAL_Driver/Src/stm32g4xx_hal_opamp_ex.c **** #endif
 452:Drivers/STM32G4xx_HAL_Driver/Src/stm32g4xx_hal_opamp_ex.c **** 
 453:Drivers/STM32G4xx_HAL_Driver/Src/stm32g4xx_hal_opamp_ex.c ****     delta = 8UL;
 454:Drivers/STM32G4xx_HAL_Driver/Src/stm32g4xx_hal_opamp_ex.c **** 
 455:Drivers/STM32G4xx_HAL_Driver/Src/stm32g4xx_hal_opamp_ex.c ****     while (delta != 0UL)
 456:Drivers/STM32G4xx_HAL_Driver/Src/stm32g4xx_hal_opamp_ex.c ****     {
 457:Drivers/STM32G4xx_HAL_Driver/Src/stm32g4xx_hal_opamp_ex.c ****       /* Set candidate trimming */
 458:Drivers/STM32G4xx_HAL_Driver/Src/stm32g4xx_hal_opamp_ex.c ****       MODIFY_REG(hopamp1->Instance->CSR, OPAMP_CSR_TRIMOFFSETP, trimmingvaluep1 << OPAMP_INPUT_NONI
 459:Drivers/STM32G4xx_HAL_Driver/Src/stm32g4xx_hal_opamp_ex.c ****       MODIFY_REG(hopamp2->Instance->CSR, OPAMP_CSR_TRIMOFFSETP, trimmingvaluep2 << OPAMP_INPUT_NONI
 460:Drivers/STM32G4xx_HAL_Driver/Src/stm32g4xx_hal_opamp_ex.c ****       MODIFY_REG(hopamp3->Instance->CSR, OPAMP_CSR_TRIMOFFSETP, trimmingvaluep3 << OPAMP_INPUT_NONI
 461:Drivers/STM32G4xx_HAL_Driver/Src/stm32g4xx_hal_opamp_ex.c **** #if defined(STM32G473xx) || defined(STM32G474xx) || defined(STM32G483xx) || defined(STM32G483xx)
 462:Drivers/STM32G4xx_HAL_Driver/Src/stm32g4xx_hal_opamp_ex.c ****       MODIFY_REG(hopamp4->Instance->CSR, OPAMP_CSR_TRIMOFFSETP, trimmingvaluep4 << OPAMP_INPUT_NONI
 463:Drivers/STM32G4xx_HAL_Driver/Src/stm32g4xx_hal_opamp_ex.c ****       MODIFY_REG(hopamp5->Instance->CSR, OPAMP_CSR_TRIMOFFSETP, trimmingvaluep5 << OPAMP_INPUT_NONI
 464:Drivers/STM32G4xx_HAL_Driver/Src/stm32g4xx_hal_opamp_ex.c ****       MODIFY_REG(hopamp6->Instance->CSR, OPAMP_CSR_TRIMOFFSETP, trimmingvaluep6 << OPAMP_INPUT_NONI
 465:Drivers/STM32G4xx_HAL_Driver/Src/stm32g4xx_hal_opamp_ex.c **** #elif defined(STM32G491xx) || defined(STM32G4A1xx)
 466:Drivers/STM32G4xx_HAL_Driver/Src/stm32g4xx_hal_opamp_ex.c ****       MODIFY_REG(hopamp6->Instance->CSR, OPAMP_CSR_TRIMOFFSETP, trimmingvaluep6 << OPAMP_INPUT_NONI
 467:Drivers/STM32G4xx_HAL_Driver/Src/stm32g4xx_hal_opamp_ex.c **** #endif
 468:Drivers/STM32G4xx_HAL_Driver/Src/stm32g4xx_hal_opamp_ex.c **** 
 469:Drivers/STM32G4xx_HAL_Driver/Src/stm32g4xx_hal_opamp_ex.c ****       /* OFFTRIMmax delay 2 ms as per datasheet (electrical characteristics */
 470:Drivers/STM32G4xx_HAL_Driver/Src/stm32g4xx_hal_opamp_ex.c ****       /* Offset trim time: during calibration, minimum time needed between */
 471:Drivers/STM32G4xx_HAL_Driver/Src/stm32g4xx_hal_opamp_ex.c ****       /* two steps to have 1 mV accuracy */
 472:Drivers/STM32G4xx_HAL_Driver/Src/stm32g4xx_hal_opamp_ex.c ****       HAL_Delay(2);
 473:Drivers/STM32G4xx_HAL_Driver/Src/stm32g4xx_hal_opamp_ex.c **** 
 474:Drivers/STM32G4xx_HAL_Driver/Src/stm32g4xx_hal_opamp_ex.c ****       if ((hopamp1->Instance->CSR & OPAMP_CSR_OUTCAL) != 0UL)
 475:Drivers/STM32G4xx_HAL_Driver/Src/stm32g4xx_hal_opamp_ex.c ****       {
 476:Drivers/STM32G4xx_HAL_Driver/Src/stm32g4xx_hal_opamp_ex.c ****         /* OPAMP_CSR_OUTCAL is HIGH try higher trimming */
 477:Drivers/STM32G4xx_HAL_Driver/Src/stm32g4xx_hal_opamp_ex.c ****         trimmingvaluep1 += delta;
 478:Drivers/STM32G4xx_HAL_Driver/Src/stm32g4xx_hal_opamp_ex.c ****       }
 479:Drivers/STM32G4xx_HAL_Driver/Src/stm32g4xx_hal_opamp_ex.c ****       else
 480:Drivers/STM32G4xx_HAL_Driver/Src/stm32g4xx_hal_opamp_ex.c ****       {
 481:Drivers/STM32G4xx_HAL_Driver/Src/stm32g4xx_hal_opamp_ex.c ****         trimmingvaluep1 -= delta;
 482:Drivers/STM32G4xx_HAL_Driver/Src/stm32g4xx_hal_opamp_ex.c ****       }
 483:Drivers/STM32G4xx_HAL_Driver/Src/stm32g4xx_hal_opamp_ex.c **** 
 484:Drivers/STM32G4xx_HAL_Driver/Src/stm32g4xx_hal_opamp_ex.c ****       if ((hopamp2->Instance->CSR & OPAMP_CSR_OUTCAL) != 0UL)
 485:Drivers/STM32G4xx_HAL_Driver/Src/stm32g4xx_hal_opamp_ex.c ****       {
 486:Drivers/STM32G4xx_HAL_Driver/Src/stm32g4xx_hal_opamp_ex.c ****         /* OPAMP_CSR_OUTCAL is HIGH try higher trimming */
 487:Drivers/STM32G4xx_HAL_Driver/Src/stm32g4xx_hal_opamp_ex.c ****         trimmingvaluep2 += delta;
 488:Drivers/STM32G4xx_HAL_Driver/Src/stm32g4xx_hal_opamp_ex.c ****       }
 489:Drivers/STM32G4xx_HAL_Driver/Src/stm32g4xx_hal_opamp_ex.c ****       else
 490:Drivers/STM32G4xx_HAL_Driver/Src/stm32g4xx_hal_opamp_ex.c ****       {
 491:Drivers/STM32G4xx_HAL_Driver/Src/stm32g4xx_hal_opamp_ex.c ****         trimmingvaluep2 -= delta;
 492:Drivers/STM32G4xx_HAL_Driver/Src/stm32g4xx_hal_opamp_ex.c ****       }
 493:Drivers/STM32G4xx_HAL_Driver/Src/stm32g4xx_hal_opamp_ex.c **** 
 494:Drivers/STM32G4xx_HAL_Driver/Src/stm32g4xx_hal_opamp_ex.c ****       if ((hopamp3->Instance->CSR & OPAMP_CSR_OUTCAL) != 0UL)
 495:Drivers/STM32G4xx_HAL_Driver/Src/stm32g4xx_hal_opamp_ex.c ****       {
 496:Drivers/STM32G4xx_HAL_Driver/Src/stm32g4xx_hal_opamp_ex.c ****         /* OPAMP_CSR_OUTCAL is HIGH try higher trimming */
 497:Drivers/STM32G4xx_HAL_Driver/Src/stm32g4xx_hal_opamp_ex.c ****         trimmingvaluep3 += delta;
 498:Drivers/STM32G4xx_HAL_Driver/Src/stm32g4xx_hal_opamp_ex.c ****       }
 499:Drivers/STM32G4xx_HAL_Driver/Src/stm32g4xx_hal_opamp_ex.c ****       else
 500:Drivers/STM32G4xx_HAL_Driver/Src/stm32g4xx_hal_opamp_ex.c ****       {
 501:Drivers/STM32G4xx_HAL_Driver/Src/stm32g4xx_hal_opamp_ex.c ****         trimmingvaluep3 -= delta;
 502:Drivers/STM32G4xx_HAL_Driver/Src/stm32g4xx_hal_opamp_ex.c ****       }
ARM GAS  /tmp/ccaCrYas.s 			page 11


 503:Drivers/STM32G4xx_HAL_Driver/Src/stm32g4xx_hal_opamp_ex.c **** 
 504:Drivers/STM32G4xx_HAL_Driver/Src/stm32g4xx_hal_opamp_ex.c **** #if defined(STM32G473xx) || defined(STM32G474xx) || defined(STM32G483xx) || defined(STM32G483xx)
 505:Drivers/STM32G4xx_HAL_Driver/Src/stm32g4xx_hal_opamp_ex.c ****       if ((hopamp4->Instance->CSR & OPAMP_CSR_OUTCAL) != 0UL)
 506:Drivers/STM32G4xx_HAL_Driver/Src/stm32g4xx_hal_opamp_ex.c ****       {
 507:Drivers/STM32G4xx_HAL_Driver/Src/stm32g4xx_hal_opamp_ex.c ****         /* OPAMP_CSR_OUTCAL is HIGH try higher trimming */
 508:Drivers/STM32G4xx_HAL_Driver/Src/stm32g4xx_hal_opamp_ex.c ****         trimmingvaluep4 += delta;
 509:Drivers/STM32G4xx_HAL_Driver/Src/stm32g4xx_hal_opamp_ex.c ****       }
 510:Drivers/STM32G4xx_HAL_Driver/Src/stm32g4xx_hal_opamp_ex.c ****       else
 511:Drivers/STM32G4xx_HAL_Driver/Src/stm32g4xx_hal_opamp_ex.c ****       {
 512:Drivers/STM32G4xx_HAL_Driver/Src/stm32g4xx_hal_opamp_ex.c ****         trimmingvaluep4 -= delta;
 513:Drivers/STM32G4xx_HAL_Driver/Src/stm32g4xx_hal_opamp_ex.c ****       }
 514:Drivers/STM32G4xx_HAL_Driver/Src/stm32g4xx_hal_opamp_ex.c **** 
 515:Drivers/STM32G4xx_HAL_Driver/Src/stm32g4xx_hal_opamp_ex.c ****       if ((hopamp5->Instance->CSR & OPAMP_CSR_OUTCAL) != 0UL)
 516:Drivers/STM32G4xx_HAL_Driver/Src/stm32g4xx_hal_opamp_ex.c ****       {
 517:Drivers/STM32G4xx_HAL_Driver/Src/stm32g4xx_hal_opamp_ex.c ****         /* OPAMP_CSR_OUTCAL is HIGH try higher trimming */
 518:Drivers/STM32G4xx_HAL_Driver/Src/stm32g4xx_hal_opamp_ex.c ****         trimmingvaluep5 += delta;
 519:Drivers/STM32G4xx_HAL_Driver/Src/stm32g4xx_hal_opamp_ex.c ****       }
 520:Drivers/STM32G4xx_HAL_Driver/Src/stm32g4xx_hal_opamp_ex.c ****       else
 521:Drivers/STM32G4xx_HAL_Driver/Src/stm32g4xx_hal_opamp_ex.c ****       {
 522:Drivers/STM32G4xx_HAL_Driver/Src/stm32g4xx_hal_opamp_ex.c ****         trimmingvaluep5 -= delta;
 523:Drivers/STM32G4xx_HAL_Driver/Src/stm32g4xx_hal_opamp_ex.c ****       }
 524:Drivers/STM32G4xx_HAL_Driver/Src/stm32g4xx_hal_opamp_ex.c **** 
 525:Drivers/STM32G4xx_HAL_Driver/Src/stm32g4xx_hal_opamp_ex.c ****       if ((hopamp6->Instance->CSR & OPAMP_CSR_OUTCAL) != 0UL)
 526:Drivers/STM32G4xx_HAL_Driver/Src/stm32g4xx_hal_opamp_ex.c ****       {
 527:Drivers/STM32G4xx_HAL_Driver/Src/stm32g4xx_hal_opamp_ex.c ****         /* OPAMP_CSR_OUTCAL is HIGH try higher trimming */
 528:Drivers/STM32G4xx_HAL_Driver/Src/stm32g4xx_hal_opamp_ex.c ****         trimmingvaluep6 += delta;
 529:Drivers/STM32G4xx_HAL_Driver/Src/stm32g4xx_hal_opamp_ex.c ****       }
 530:Drivers/STM32G4xx_HAL_Driver/Src/stm32g4xx_hal_opamp_ex.c ****       else
 531:Drivers/STM32G4xx_HAL_Driver/Src/stm32g4xx_hal_opamp_ex.c ****       {
 532:Drivers/STM32G4xx_HAL_Driver/Src/stm32g4xx_hal_opamp_ex.c ****         trimmingvaluep6 -= delta;
 533:Drivers/STM32G4xx_HAL_Driver/Src/stm32g4xx_hal_opamp_ex.c ****       }
 534:Drivers/STM32G4xx_HAL_Driver/Src/stm32g4xx_hal_opamp_ex.c **** 
 535:Drivers/STM32G4xx_HAL_Driver/Src/stm32g4xx_hal_opamp_ex.c **** #elif defined(STM32G491xx) || defined(STM32G4A1xx)
 536:Drivers/STM32G4xx_HAL_Driver/Src/stm32g4xx_hal_opamp_ex.c ****       if ((hopamp6->Instance->CSR & OPAMP_CSR_OUTCAL) != 0UL)
 537:Drivers/STM32G4xx_HAL_Driver/Src/stm32g4xx_hal_opamp_ex.c ****       {
 538:Drivers/STM32G4xx_HAL_Driver/Src/stm32g4xx_hal_opamp_ex.c ****         /* OPAMP_CSR_OUTCAL is HIGH try higher trimming */
 539:Drivers/STM32G4xx_HAL_Driver/Src/stm32g4xx_hal_opamp_ex.c ****         trimmingvaluep6 += delta;
 540:Drivers/STM32G4xx_HAL_Driver/Src/stm32g4xx_hal_opamp_ex.c ****       }
 541:Drivers/STM32G4xx_HAL_Driver/Src/stm32g4xx_hal_opamp_ex.c ****       else
 542:Drivers/STM32G4xx_HAL_Driver/Src/stm32g4xx_hal_opamp_ex.c ****       {
 543:Drivers/STM32G4xx_HAL_Driver/Src/stm32g4xx_hal_opamp_ex.c ****         trimmingvaluep6 -= delta;
 544:Drivers/STM32G4xx_HAL_Driver/Src/stm32g4xx_hal_opamp_ex.c ****       }
 545:Drivers/STM32G4xx_HAL_Driver/Src/stm32g4xx_hal_opamp_ex.c **** #endif
 546:Drivers/STM32G4xx_HAL_Driver/Src/stm32g4xx_hal_opamp_ex.c **** 
 547:Drivers/STM32G4xx_HAL_Driver/Src/stm32g4xx_hal_opamp_ex.c ****       delta >>= 1;
 548:Drivers/STM32G4xx_HAL_Driver/Src/stm32g4xx_hal_opamp_ex.c ****     }
 549:Drivers/STM32G4xx_HAL_Driver/Src/stm32g4xx_hal_opamp_ex.c **** 
 550:Drivers/STM32G4xx_HAL_Driver/Src/stm32g4xx_hal_opamp_ex.c ****     /* Still need to check if righ calibration is current value or un step below */
 551:Drivers/STM32G4xx_HAL_Driver/Src/stm32g4xx_hal_opamp_ex.c ****     /* Indeed the first value that causes the OUTCAL bit to change from 1 to 0 */
 552:Drivers/STM32G4xx_HAL_Driver/Src/stm32g4xx_hal_opamp_ex.c ****     /* Set candidate trimming */
 553:Drivers/STM32G4xx_HAL_Driver/Src/stm32g4xx_hal_opamp_ex.c ****     MODIFY_REG(hopamp1->Instance->CSR, OPAMP_CSR_TRIMOFFSETP, trimmingvaluep1 << OPAMP_INPUT_NONINV
 554:Drivers/STM32G4xx_HAL_Driver/Src/stm32g4xx_hal_opamp_ex.c ****     MODIFY_REG(hopamp2->Instance->CSR, OPAMP_CSR_TRIMOFFSETP, trimmingvaluep2 << OPAMP_INPUT_NONINV
 555:Drivers/STM32G4xx_HAL_Driver/Src/stm32g4xx_hal_opamp_ex.c ****     MODIFY_REG(hopamp3->Instance->CSR, OPAMP_CSR_TRIMOFFSETP, trimmingvaluep3 << OPAMP_INPUT_NONINV
 556:Drivers/STM32G4xx_HAL_Driver/Src/stm32g4xx_hal_opamp_ex.c **** #if defined(STM32G473xx) || defined(STM32G474xx) || defined(STM32G483xx) || defined(STM32G483xx)
 557:Drivers/STM32G4xx_HAL_Driver/Src/stm32g4xx_hal_opamp_ex.c ****     MODIFY_REG(hopamp4->Instance->CSR, OPAMP_CSR_TRIMOFFSETP, trimmingvaluep4 << OPAMP_INPUT_NONINV
 558:Drivers/STM32G4xx_HAL_Driver/Src/stm32g4xx_hal_opamp_ex.c ****     MODIFY_REG(hopamp5->Instance->CSR, OPAMP_CSR_TRIMOFFSETP, trimmingvaluep5 << OPAMP_INPUT_NONINV
 559:Drivers/STM32G4xx_HAL_Driver/Src/stm32g4xx_hal_opamp_ex.c ****     MODIFY_REG(hopamp6->Instance->CSR, OPAMP_CSR_TRIMOFFSETP, trimmingvaluep6 << OPAMP_INPUT_NONINV
ARM GAS  /tmp/ccaCrYas.s 			page 12


 560:Drivers/STM32G4xx_HAL_Driver/Src/stm32g4xx_hal_opamp_ex.c **** #elif defined(STM32G491xx) || defined(STM32G4A1xx)
 561:Drivers/STM32G4xx_HAL_Driver/Src/stm32g4xx_hal_opamp_ex.c ****     MODIFY_REG(hopamp6->Instance->CSR, OPAMP_CSR_TRIMOFFSETP, trimmingvaluep6 << OPAMP_INPUT_NONINV
 562:Drivers/STM32G4xx_HAL_Driver/Src/stm32g4xx_hal_opamp_ex.c **** #endif
 563:Drivers/STM32G4xx_HAL_Driver/Src/stm32g4xx_hal_opamp_ex.c **** 
 564:Drivers/STM32G4xx_HAL_Driver/Src/stm32g4xx_hal_opamp_ex.c ****     /* OFFTRIMmax delay 2 ms as per datasheet (electrical characteristics */
 565:Drivers/STM32G4xx_HAL_Driver/Src/stm32g4xx_hal_opamp_ex.c ****     /* Offset trim time: during calibration, minimum time needed between */
 566:Drivers/STM32G4xx_HAL_Driver/Src/stm32g4xx_hal_opamp_ex.c ****     /* two steps to have 1 mV accuracy */
 567:Drivers/STM32G4xx_HAL_Driver/Src/stm32g4xx_hal_opamp_ex.c ****     HAL_Delay(2);
 568:Drivers/STM32G4xx_HAL_Driver/Src/stm32g4xx_hal_opamp_ex.c **** 
 569:Drivers/STM32G4xx_HAL_Driver/Src/stm32g4xx_hal_opamp_ex.c ****     if ((hopamp1->Instance->CSR & OPAMP_CSR_OUTCAL) != 0UL)
 570:Drivers/STM32G4xx_HAL_Driver/Src/stm32g4xx_hal_opamp_ex.c ****     {
 571:Drivers/STM32G4xx_HAL_Driver/Src/stm32g4xx_hal_opamp_ex.c ****       /* Trimming value is actually one value more */
 572:Drivers/STM32G4xx_HAL_Driver/Src/stm32g4xx_hal_opamp_ex.c ****       trimmingvaluep1++;
 573:Drivers/STM32G4xx_HAL_Driver/Src/stm32g4xx_hal_opamp_ex.c ****       /* Set right trimming */
 574:Drivers/STM32G4xx_HAL_Driver/Src/stm32g4xx_hal_opamp_ex.c ****       MODIFY_REG(hopamp1->Instance->CSR, OPAMP_CSR_TRIMOFFSETP, trimmingvaluep1 << OPAMP_INPUT_NONI
 575:Drivers/STM32G4xx_HAL_Driver/Src/stm32g4xx_hal_opamp_ex.c ****     }
 576:Drivers/STM32G4xx_HAL_Driver/Src/stm32g4xx_hal_opamp_ex.c **** 
 577:Drivers/STM32G4xx_HAL_Driver/Src/stm32g4xx_hal_opamp_ex.c ****     if ((hopamp2->Instance->CSR & OPAMP_CSR_OUTCAL) != 0UL)
 578:Drivers/STM32G4xx_HAL_Driver/Src/stm32g4xx_hal_opamp_ex.c ****     {
 579:Drivers/STM32G4xx_HAL_Driver/Src/stm32g4xx_hal_opamp_ex.c ****       /* Trimming value is actually one value more */
 580:Drivers/STM32G4xx_HAL_Driver/Src/stm32g4xx_hal_opamp_ex.c ****       trimmingvaluep2++;
 581:Drivers/STM32G4xx_HAL_Driver/Src/stm32g4xx_hal_opamp_ex.c ****       /* Set right trimming */
 582:Drivers/STM32G4xx_HAL_Driver/Src/stm32g4xx_hal_opamp_ex.c ****       MODIFY_REG(hopamp2->Instance->CSR, OPAMP_CSR_TRIMOFFSETP, trimmingvaluep2 << OPAMP_INPUT_NONI
 583:Drivers/STM32G4xx_HAL_Driver/Src/stm32g4xx_hal_opamp_ex.c ****     }
 584:Drivers/STM32G4xx_HAL_Driver/Src/stm32g4xx_hal_opamp_ex.c **** 
 585:Drivers/STM32G4xx_HAL_Driver/Src/stm32g4xx_hal_opamp_ex.c ****     if ((hopamp3->Instance->CSR & OPAMP_CSR_OUTCAL) != 0UL)
 586:Drivers/STM32G4xx_HAL_Driver/Src/stm32g4xx_hal_opamp_ex.c ****     {
 587:Drivers/STM32G4xx_HAL_Driver/Src/stm32g4xx_hal_opamp_ex.c ****       /* Trimming value is actually one value more */
 588:Drivers/STM32G4xx_HAL_Driver/Src/stm32g4xx_hal_opamp_ex.c ****       trimmingvaluep3++;
 589:Drivers/STM32G4xx_HAL_Driver/Src/stm32g4xx_hal_opamp_ex.c ****       /* Set right trimming */
 590:Drivers/STM32G4xx_HAL_Driver/Src/stm32g4xx_hal_opamp_ex.c ****       MODIFY_REG(hopamp3->Instance->CSR, OPAMP_CSR_TRIMOFFSETP, trimmingvaluep3 << OPAMP_INPUT_NONI
 591:Drivers/STM32G4xx_HAL_Driver/Src/stm32g4xx_hal_opamp_ex.c ****     }
 592:Drivers/STM32G4xx_HAL_Driver/Src/stm32g4xx_hal_opamp_ex.c **** 
 593:Drivers/STM32G4xx_HAL_Driver/Src/stm32g4xx_hal_opamp_ex.c **** #if defined(STM32G473xx) || defined(STM32G474xx) || defined(STM32G483xx) || defined(STM32G483xx)
 594:Drivers/STM32G4xx_HAL_Driver/Src/stm32g4xx_hal_opamp_ex.c ****     if ((hopamp4->Instance->CSR & OPAMP_CSR_OUTCAL) != 0UL)
 595:Drivers/STM32G4xx_HAL_Driver/Src/stm32g4xx_hal_opamp_ex.c ****     {
 596:Drivers/STM32G4xx_HAL_Driver/Src/stm32g4xx_hal_opamp_ex.c ****       /* Trimming value is actually one value more */
 597:Drivers/STM32G4xx_HAL_Driver/Src/stm32g4xx_hal_opamp_ex.c ****       trimmingvaluep4++;
 598:Drivers/STM32G4xx_HAL_Driver/Src/stm32g4xx_hal_opamp_ex.c ****       /* Set right trimming */
 599:Drivers/STM32G4xx_HAL_Driver/Src/stm32g4xx_hal_opamp_ex.c ****       MODIFY_REG(hopamp4->Instance->CSR, OPAMP_CSR_TRIMOFFSETP, trimmingvaluep4 << OPAMP_INPUT_NONI
 600:Drivers/STM32G4xx_HAL_Driver/Src/stm32g4xx_hal_opamp_ex.c ****     }
 601:Drivers/STM32G4xx_HAL_Driver/Src/stm32g4xx_hal_opamp_ex.c **** 
 602:Drivers/STM32G4xx_HAL_Driver/Src/stm32g4xx_hal_opamp_ex.c ****     if ((hopamp5->Instance->CSR & OPAMP_CSR_OUTCAL) != 0UL)
 603:Drivers/STM32G4xx_HAL_Driver/Src/stm32g4xx_hal_opamp_ex.c ****     {
 604:Drivers/STM32G4xx_HAL_Driver/Src/stm32g4xx_hal_opamp_ex.c ****       /* Trimming value is actually one value more */
 605:Drivers/STM32G4xx_HAL_Driver/Src/stm32g4xx_hal_opamp_ex.c ****       trimmingvaluep5++;
 606:Drivers/STM32G4xx_HAL_Driver/Src/stm32g4xx_hal_opamp_ex.c ****       /* Set right trimming */
 607:Drivers/STM32G4xx_HAL_Driver/Src/stm32g4xx_hal_opamp_ex.c ****       MODIFY_REG(hopamp5->Instance->CSR, OPAMP_CSR_TRIMOFFSETP, trimmingvaluep5 << OPAMP_INPUT_NONI
 608:Drivers/STM32G4xx_HAL_Driver/Src/stm32g4xx_hal_opamp_ex.c ****     }
 609:Drivers/STM32G4xx_HAL_Driver/Src/stm32g4xx_hal_opamp_ex.c **** 
 610:Drivers/STM32G4xx_HAL_Driver/Src/stm32g4xx_hal_opamp_ex.c ****     if ((hopamp6->Instance->CSR & OPAMP_CSR_OUTCAL) != 0UL)
 611:Drivers/STM32G4xx_HAL_Driver/Src/stm32g4xx_hal_opamp_ex.c ****     {
 612:Drivers/STM32G4xx_HAL_Driver/Src/stm32g4xx_hal_opamp_ex.c ****       /* Trimming value is actually one value more */
 613:Drivers/STM32G4xx_HAL_Driver/Src/stm32g4xx_hal_opamp_ex.c ****       trimmingvaluep6++;
 614:Drivers/STM32G4xx_HAL_Driver/Src/stm32g4xx_hal_opamp_ex.c ****       /* Set right trimming */
 615:Drivers/STM32G4xx_HAL_Driver/Src/stm32g4xx_hal_opamp_ex.c ****       MODIFY_REG(hopamp6->Instance->CSR, OPAMP_CSR_TRIMOFFSETP, trimmingvaluep6 << OPAMP_INPUT_NONI
 616:Drivers/STM32G4xx_HAL_Driver/Src/stm32g4xx_hal_opamp_ex.c ****     }
ARM GAS  /tmp/ccaCrYas.s 			page 13


 617:Drivers/STM32G4xx_HAL_Driver/Src/stm32g4xx_hal_opamp_ex.c **** 
 618:Drivers/STM32G4xx_HAL_Driver/Src/stm32g4xx_hal_opamp_ex.c **** #elif defined(STM32G491xx) || defined(STM32G4A1xx)
 619:Drivers/STM32G4xx_HAL_Driver/Src/stm32g4xx_hal_opamp_ex.c ****     if ((hopamp6->Instance->CSR & OPAMP_CSR_OUTCAL) != 0UL)
 620:Drivers/STM32G4xx_HAL_Driver/Src/stm32g4xx_hal_opamp_ex.c ****     {
 621:Drivers/STM32G4xx_HAL_Driver/Src/stm32g4xx_hal_opamp_ex.c ****       /* Trimming value is actually one value more */
 622:Drivers/STM32G4xx_HAL_Driver/Src/stm32g4xx_hal_opamp_ex.c ****       trimmingvaluep6++;
 623:Drivers/STM32G4xx_HAL_Driver/Src/stm32g4xx_hal_opamp_ex.c ****       /* Set right trimming */
 624:Drivers/STM32G4xx_HAL_Driver/Src/stm32g4xx_hal_opamp_ex.c ****       MODIFY_REG(hopamp6->Instance->CSR, OPAMP_CSR_TRIMOFFSETP, trimmingvaluep6 << OPAMP_INPUT_NONI
 625:Drivers/STM32G4xx_HAL_Driver/Src/stm32g4xx_hal_opamp_ex.c ****     }
 626:Drivers/STM32G4xx_HAL_Driver/Src/stm32g4xx_hal_opamp_ex.c **** #endif
 627:Drivers/STM32G4xx_HAL_Driver/Src/stm32g4xx_hal_opamp_ex.c **** 
 628:Drivers/STM32G4xx_HAL_Driver/Src/stm32g4xx_hal_opamp_ex.c ****     /* Disable calibration */
 629:Drivers/STM32G4xx_HAL_Driver/Src/stm32g4xx_hal_opamp_ex.c ****     CLEAR_BIT(hopamp1->Instance->CSR, OPAMP_CSR_CALON);
 630:Drivers/STM32G4xx_HAL_Driver/Src/stm32g4xx_hal_opamp_ex.c ****     CLEAR_BIT(hopamp2->Instance->CSR, OPAMP_CSR_CALON);
 631:Drivers/STM32G4xx_HAL_Driver/Src/stm32g4xx_hal_opamp_ex.c ****     CLEAR_BIT(hopamp3->Instance->CSR, OPAMP_CSR_CALON);
 632:Drivers/STM32G4xx_HAL_Driver/Src/stm32g4xx_hal_opamp_ex.c **** #if defined(STM32G473xx) || defined(STM32G474xx) || defined(STM32G483xx) || defined(STM32G483xx)
 633:Drivers/STM32G4xx_HAL_Driver/Src/stm32g4xx_hal_opamp_ex.c ****     CLEAR_BIT(hopamp4->Instance->CSR, OPAMP_CSR_CALON);
 634:Drivers/STM32G4xx_HAL_Driver/Src/stm32g4xx_hal_opamp_ex.c ****     CLEAR_BIT(hopamp5->Instance->CSR, OPAMP_CSR_CALON);
 635:Drivers/STM32G4xx_HAL_Driver/Src/stm32g4xx_hal_opamp_ex.c ****     CLEAR_BIT(hopamp6->Instance->CSR, OPAMP_CSR_CALON);
 636:Drivers/STM32G4xx_HAL_Driver/Src/stm32g4xx_hal_opamp_ex.c **** #elif defined(STM32G491xx) || defined(STM32G4A1xx)
 637:Drivers/STM32G4xx_HAL_Driver/Src/stm32g4xx_hal_opamp_ex.c ****     CLEAR_BIT(hopamp6->Instance->CSR, OPAMP_CSR_CALON);
 638:Drivers/STM32G4xx_HAL_Driver/Src/stm32g4xx_hal_opamp_ex.c **** #endif
 639:Drivers/STM32G4xx_HAL_Driver/Src/stm32g4xx_hal_opamp_ex.c **** 
 640:Drivers/STM32G4xx_HAL_Driver/Src/stm32g4xx_hal_opamp_ex.c ****     /* Disable the OPAMPs */
 641:Drivers/STM32G4xx_HAL_Driver/Src/stm32g4xx_hal_opamp_ex.c ****     CLEAR_BIT(hopamp1->Instance->CSR, OPAMP_CSR_OPAMPxEN);
 642:Drivers/STM32G4xx_HAL_Driver/Src/stm32g4xx_hal_opamp_ex.c ****     CLEAR_BIT(hopamp2->Instance->CSR, OPAMP_CSR_OPAMPxEN);
 643:Drivers/STM32G4xx_HAL_Driver/Src/stm32g4xx_hal_opamp_ex.c ****     CLEAR_BIT(hopamp3->Instance->CSR, OPAMP_CSR_OPAMPxEN);
 644:Drivers/STM32G4xx_HAL_Driver/Src/stm32g4xx_hal_opamp_ex.c **** #if defined(STM32G473xx) || defined(STM32G474xx) || defined(STM32G483xx) || defined(STM32G483xx)
 645:Drivers/STM32G4xx_HAL_Driver/Src/stm32g4xx_hal_opamp_ex.c ****     CLEAR_BIT(hopamp4->Instance->CSR, OPAMP_CSR_OPAMPxEN);
 646:Drivers/STM32G4xx_HAL_Driver/Src/stm32g4xx_hal_opamp_ex.c ****     CLEAR_BIT(hopamp5->Instance->CSR, OPAMP_CSR_OPAMPxEN);
 647:Drivers/STM32G4xx_HAL_Driver/Src/stm32g4xx_hal_opamp_ex.c ****     CLEAR_BIT(hopamp6->Instance->CSR, OPAMP_CSR_OPAMPxEN);
 648:Drivers/STM32G4xx_HAL_Driver/Src/stm32g4xx_hal_opamp_ex.c **** #elif defined(STM32G491xx) || defined(STM32G4A1xx)
 649:Drivers/STM32G4xx_HAL_Driver/Src/stm32g4xx_hal_opamp_ex.c ****     CLEAR_BIT(hopamp6->Instance->CSR, OPAMP_CSR_OPAMPxEN);
 650:Drivers/STM32G4xx_HAL_Driver/Src/stm32g4xx_hal_opamp_ex.c **** #endif
 651:Drivers/STM32G4xx_HAL_Driver/Src/stm32g4xx_hal_opamp_ex.c **** 
 652:Drivers/STM32G4xx_HAL_Driver/Src/stm32g4xx_hal_opamp_ex.c ****     /* Set normal operating mode back */
 653:Drivers/STM32G4xx_HAL_Driver/Src/stm32g4xx_hal_opamp_ex.c ****     CLEAR_BIT(hopamp1->Instance->CSR, OPAMP_CSR_FORCEVP);
 654:Drivers/STM32G4xx_HAL_Driver/Src/stm32g4xx_hal_opamp_ex.c ****     CLEAR_BIT(hopamp2->Instance->CSR, OPAMP_CSR_FORCEVP);
 655:Drivers/STM32G4xx_HAL_Driver/Src/stm32g4xx_hal_opamp_ex.c ****     CLEAR_BIT(hopamp3->Instance->CSR, OPAMP_CSR_FORCEVP);
 656:Drivers/STM32G4xx_HAL_Driver/Src/stm32g4xx_hal_opamp_ex.c **** #if defined(STM32G473xx) || defined(STM32G474xx) || defined(STM32G483xx) || defined(STM32G483xx)
 657:Drivers/STM32G4xx_HAL_Driver/Src/stm32g4xx_hal_opamp_ex.c ****     CLEAR_BIT(hopamp4->Instance->CSR, OPAMP_CSR_FORCEVP);
 658:Drivers/STM32G4xx_HAL_Driver/Src/stm32g4xx_hal_opamp_ex.c ****     CLEAR_BIT(hopamp5->Instance->CSR, OPAMP_CSR_FORCEVP);
 659:Drivers/STM32G4xx_HAL_Driver/Src/stm32g4xx_hal_opamp_ex.c ****     CLEAR_BIT(hopamp6->Instance->CSR, OPAMP_CSR_FORCEVP);
 660:Drivers/STM32G4xx_HAL_Driver/Src/stm32g4xx_hal_opamp_ex.c **** #elif defined(STM32G491xx) || defined(STM32G4A1xx)
 661:Drivers/STM32G4xx_HAL_Driver/Src/stm32g4xx_hal_opamp_ex.c ****     CLEAR_BIT(hopamp6->Instance->CSR, OPAMP_CSR_FORCEVP);
 662:Drivers/STM32G4xx_HAL_Driver/Src/stm32g4xx_hal_opamp_ex.c **** #endif
 663:Drivers/STM32G4xx_HAL_Driver/Src/stm32g4xx_hal_opamp_ex.c **** 
 664:Drivers/STM32G4xx_HAL_Driver/Src/stm32g4xx_hal_opamp_ex.c ****     /* Self calibration is successful  */
 665:Drivers/STM32G4xx_HAL_Driver/Src/stm32g4xx_hal_opamp_ex.c ****     /* Store calibration(user timing) results in init structure. */
 666:Drivers/STM32G4xx_HAL_Driver/Src/stm32g4xx_hal_opamp_ex.c ****     /* Select user timing mode */
 667:Drivers/STM32G4xx_HAL_Driver/Src/stm32g4xx_hal_opamp_ex.c **** 
 668:Drivers/STM32G4xx_HAL_Driver/Src/stm32g4xx_hal_opamp_ex.c ****     /* Write calibration result N */
 669:Drivers/STM32G4xx_HAL_Driver/Src/stm32g4xx_hal_opamp_ex.c ****     hopamp1->Init.TrimmingValueN = trimmingvaluen1;
 670:Drivers/STM32G4xx_HAL_Driver/Src/stm32g4xx_hal_opamp_ex.c ****     hopamp2->Init.TrimmingValueN = trimmingvaluen2;
 671:Drivers/STM32G4xx_HAL_Driver/Src/stm32g4xx_hal_opamp_ex.c ****     hopamp3->Init.TrimmingValueN = trimmingvaluen3;
 672:Drivers/STM32G4xx_HAL_Driver/Src/stm32g4xx_hal_opamp_ex.c **** #if defined(STM32G473xx) || defined(STM32G474xx) || defined(STM32G483xx) || defined(STM32G483xx)
 673:Drivers/STM32G4xx_HAL_Driver/Src/stm32g4xx_hal_opamp_ex.c ****     hopamp4->Init.TrimmingValueN = trimmingvaluen4;
ARM GAS  /tmp/ccaCrYas.s 			page 14


 674:Drivers/STM32G4xx_HAL_Driver/Src/stm32g4xx_hal_opamp_ex.c ****     hopamp5->Init.TrimmingValueN = trimmingvaluen5;
 675:Drivers/STM32G4xx_HAL_Driver/Src/stm32g4xx_hal_opamp_ex.c ****     hopamp6->Init.TrimmingValueN = trimmingvaluen6;
 676:Drivers/STM32G4xx_HAL_Driver/Src/stm32g4xx_hal_opamp_ex.c **** #elif defined(STM32G491xx) || defined(STM32G4A1xx)
 677:Drivers/STM32G4xx_HAL_Driver/Src/stm32g4xx_hal_opamp_ex.c ****     hopamp6->Init.TrimmingValueN = trimmingvaluen6;
 678:Drivers/STM32G4xx_HAL_Driver/Src/stm32g4xx_hal_opamp_ex.c **** #endif
 679:Drivers/STM32G4xx_HAL_Driver/Src/stm32g4xx_hal_opamp_ex.c **** 
 680:Drivers/STM32G4xx_HAL_Driver/Src/stm32g4xx_hal_opamp_ex.c ****     /* Write calibration result P */
 681:Drivers/STM32G4xx_HAL_Driver/Src/stm32g4xx_hal_opamp_ex.c ****     hopamp1->Init.TrimmingValueP = trimmingvaluep1;
 682:Drivers/STM32G4xx_HAL_Driver/Src/stm32g4xx_hal_opamp_ex.c ****     hopamp2->Init.TrimmingValueP = trimmingvaluep2;
 683:Drivers/STM32G4xx_HAL_Driver/Src/stm32g4xx_hal_opamp_ex.c ****     hopamp3->Init.TrimmingValueP = trimmingvaluep3;
 684:Drivers/STM32G4xx_HAL_Driver/Src/stm32g4xx_hal_opamp_ex.c **** #if defined(STM32G473xx) || defined(STM32G474xx) || defined(STM32G483xx) || defined(STM32G483xx)
 685:Drivers/STM32G4xx_HAL_Driver/Src/stm32g4xx_hal_opamp_ex.c ****     hopamp4->Init.TrimmingValueP = trimmingvaluep4;
 686:Drivers/STM32G4xx_HAL_Driver/Src/stm32g4xx_hal_opamp_ex.c ****     hopamp5->Init.TrimmingValueP = trimmingvaluep5;
 687:Drivers/STM32G4xx_HAL_Driver/Src/stm32g4xx_hal_opamp_ex.c ****     hopamp6->Init.TrimmingValueP = trimmingvaluep6;
 688:Drivers/STM32G4xx_HAL_Driver/Src/stm32g4xx_hal_opamp_ex.c **** #elif defined(STM32G491xx) || defined(STM32G4A1xx)
 689:Drivers/STM32G4xx_HAL_Driver/Src/stm32g4xx_hal_opamp_ex.c ****     hopamp6->Init.TrimmingValueP = trimmingvaluep6;
 690:Drivers/STM32G4xx_HAL_Driver/Src/stm32g4xx_hal_opamp_ex.c **** #endif
 691:Drivers/STM32G4xx_HAL_Driver/Src/stm32g4xx_hal_opamp_ex.c **** 
 692:Drivers/STM32G4xx_HAL_Driver/Src/stm32g4xx_hal_opamp_ex.c ****     /* Select user timing mode */
 693:Drivers/STM32G4xx_HAL_Driver/Src/stm32g4xx_hal_opamp_ex.c ****     /* And updated with calibrated settings */
 694:Drivers/STM32G4xx_HAL_Driver/Src/stm32g4xx_hal_opamp_ex.c ****     hopamp1->Init.UserTrimming = OPAMP_TRIMMING_USER;
 695:Drivers/STM32G4xx_HAL_Driver/Src/stm32g4xx_hal_opamp_ex.c ****     hopamp2->Init.UserTrimming = OPAMP_TRIMMING_USER;
 696:Drivers/STM32G4xx_HAL_Driver/Src/stm32g4xx_hal_opamp_ex.c ****     hopamp3->Init.UserTrimming = OPAMP_TRIMMING_USER;
 697:Drivers/STM32G4xx_HAL_Driver/Src/stm32g4xx_hal_opamp_ex.c **** #if defined(STM32G473xx) || defined(STM32G474xx) || defined(STM32G483xx) || defined(STM32G483xx)
 698:Drivers/STM32G4xx_HAL_Driver/Src/stm32g4xx_hal_opamp_ex.c ****     hopamp4->Init.UserTrimming = OPAMP_TRIMMING_USER;
 699:Drivers/STM32G4xx_HAL_Driver/Src/stm32g4xx_hal_opamp_ex.c ****     hopamp5->Init.UserTrimming = OPAMP_TRIMMING_USER;
 700:Drivers/STM32G4xx_HAL_Driver/Src/stm32g4xx_hal_opamp_ex.c ****     hopamp6->Init.UserTrimming = OPAMP_TRIMMING_USER;
 701:Drivers/STM32G4xx_HAL_Driver/Src/stm32g4xx_hal_opamp_ex.c **** #elif defined(STM32G491xx) || defined(STM32G4A1xx)
 702:Drivers/STM32G4xx_HAL_Driver/Src/stm32g4xx_hal_opamp_ex.c ****     hopamp6->Init.UserTrimming = OPAMP_TRIMMING_USER;
 703:Drivers/STM32G4xx_HAL_Driver/Src/stm32g4xx_hal_opamp_ex.c **** #endif
 704:Drivers/STM32G4xx_HAL_Driver/Src/stm32g4xx_hal_opamp_ex.c **** 
 705:Drivers/STM32G4xx_HAL_Driver/Src/stm32g4xx_hal_opamp_ex.c ****     MODIFY_REG(hopamp1->Instance->CSR, OPAMP_CSR_TRIMOFFSETN, trimmingvaluen1 << OPAMP_INPUT_INVERT
 706:Drivers/STM32G4xx_HAL_Driver/Src/stm32g4xx_hal_opamp_ex.c ****     MODIFY_REG(hopamp2->Instance->CSR, OPAMP_CSR_TRIMOFFSETN, trimmingvaluen2 << OPAMP_INPUT_INVERT
 707:Drivers/STM32G4xx_HAL_Driver/Src/stm32g4xx_hal_opamp_ex.c ****     MODIFY_REG(hopamp3->Instance->CSR, OPAMP_CSR_TRIMOFFSETN, trimmingvaluen3 << OPAMP_INPUT_INVERT
 708:Drivers/STM32G4xx_HAL_Driver/Src/stm32g4xx_hal_opamp_ex.c **** #if defined(STM32G473xx) || defined(STM32G474xx) || defined(STM32G483xx) || defined(STM32G483xx)
 709:Drivers/STM32G4xx_HAL_Driver/Src/stm32g4xx_hal_opamp_ex.c ****     MODIFY_REG(hopamp4->Instance->CSR, OPAMP_CSR_TRIMOFFSETN, trimmingvaluen4 << OPAMP_INPUT_INVERT
 710:Drivers/STM32G4xx_HAL_Driver/Src/stm32g4xx_hal_opamp_ex.c ****     MODIFY_REG(hopamp5->Instance->CSR, OPAMP_CSR_TRIMOFFSETN, trimmingvaluen5 << OPAMP_INPUT_INVERT
 711:Drivers/STM32G4xx_HAL_Driver/Src/stm32g4xx_hal_opamp_ex.c ****     MODIFY_REG(hopamp6->Instance->CSR, OPAMP_CSR_TRIMOFFSETN, trimmingvaluen6 << OPAMP_INPUT_INVERT
 712:Drivers/STM32G4xx_HAL_Driver/Src/stm32g4xx_hal_opamp_ex.c **** #elif defined(STM32G491xx) || defined(STM32G4A1xx)
 713:Drivers/STM32G4xx_HAL_Driver/Src/stm32g4xx_hal_opamp_ex.c ****     MODIFY_REG(hopamp6->Instance->CSR, OPAMP_CSR_TRIMOFFSETN, trimmingvaluen6 << OPAMP_INPUT_INVERT
 714:Drivers/STM32G4xx_HAL_Driver/Src/stm32g4xx_hal_opamp_ex.c **** #endif
 715:Drivers/STM32G4xx_HAL_Driver/Src/stm32g4xx_hal_opamp_ex.c **** 
 716:Drivers/STM32G4xx_HAL_Driver/Src/stm32g4xx_hal_opamp_ex.c ****     MODIFY_REG(hopamp1->Instance->CSR, OPAMP_CSR_TRIMOFFSETP, trimmingvaluep1 << OPAMP_INPUT_NONINV
 717:Drivers/STM32G4xx_HAL_Driver/Src/stm32g4xx_hal_opamp_ex.c ****     MODIFY_REG(hopamp2->Instance->CSR, OPAMP_CSR_TRIMOFFSETP, trimmingvaluep2 << OPAMP_INPUT_NONINV
 718:Drivers/STM32G4xx_HAL_Driver/Src/stm32g4xx_hal_opamp_ex.c ****     MODIFY_REG(hopamp3->Instance->CSR, OPAMP_CSR_TRIMOFFSETP, trimmingvaluep3 << OPAMP_INPUT_NONINV
 719:Drivers/STM32G4xx_HAL_Driver/Src/stm32g4xx_hal_opamp_ex.c **** #if defined(STM32G473xx) || defined(STM32G474xx) || defined(STM32G483xx) || defined(STM32G483xx)
 720:Drivers/STM32G4xx_HAL_Driver/Src/stm32g4xx_hal_opamp_ex.c ****     MODIFY_REG(hopamp4->Instance->CSR, OPAMP_CSR_TRIMOFFSETP, trimmingvaluep4 << OPAMP_INPUT_NONINV
 721:Drivers/STM32G4xx_HAL_Driver/Src/stm32g4xx_hal_opamp_ex.c ****     MODIFY_REG(hopamp5->Instance->CSR, OPAMP_CSR_TRIMOFFSETP, trimmingvaluep5 << OPAMP_INPUT_NONINV
 722:Drivers/STM32G4xx_HAL_Driver/Src/stm32g4xx_hal_opamp_ex.c ****     MODIFY_REG(hopamp6->Instance->CSR, OPAMP_CSR_TRIMOFFSETP, trimmingvaluep6 << OPAMP_INPUT_NONINV
 723:Drivers/STM32G4xx_HAL_Driver/Src/stm32g4xx_hal_opamp_ex.c **** #elif defined(STM32G491xx) || defined(STM32G4A1xx)
 724:Drivers/STM32G4xx_HAL_Driver/Src/stm32g4xx_hal_opamp_ex.c ****     MODIFY_REG(hopamp6->Instance->CSR, OPAMP_CSR_TRIMOFFSETP, trimmingvaluep6 << OPAMP_INPUT_NONINV
 725:Drivers/STM32G4xx_HAL_Driver/Src/stm32g4xx_hal_opamp_ex.c **** #endif
 726:Drivers/STM32G4xx_HAL_Driver/Src/stm32g4xx_hal_opamp_ex.c **** 
 727:Drivers/STM32G4xx_HAL_Driver/Src/stm32g4xx_hal_opamp_ex.c ****   }
 728:Drivers/STM32G4xx_HAL_Driver/Src/stm32g4xx_hal_opamp_ex.c **** 
 729:Drivers/STM32G4xx_HAL_Driver/Src/stm32g4xx_hal_opamp_ex.c ****   return HAL_OK;
 730:Drivers/STM32G4xx_HAL_Driver/Src/stm32g4xx_hal_opamp_ex.c **** }
ARM GAS  /tmp/ccaCrYas.s 			page 15


  69              		.loc 1 730 0
  70 0026 03B0     		add	sp, sp, #12
  71              	.LCFI2:
  72              		.cfi_remember_state
  73              		.cfi_def_cfa_offset 36
  74              		@ sp needed
  75 0028 BDE8F08F 		pop	{r4, r5, r6, r7, r8, r9, r10, fp, pc}
  76              	.LVL3:
  77              	.L35:
  78              	.LCFI3:
  79              		.cfi_restore_state
 130:Drivers/STM32G4xx_HAL_Driver/Src/stm32g4xx_hal_opamp_ex.c ****   {
  80              		.loc 1 130 0
  81 002c 91F83A30 		ldrb	r3, [r1, #58]	@ zero_extendqisi2
  82 0030 DBB2     		uxtb	r3, r3
  83 0032 012B     		cmp	r3, #1
  84 0034 01D0     		beq	.L36
 132:Drivers/STM32G4xx_HAL_Driver/Src/stm32g4xx_hal_opamp_ex.c ****   }
  85              		.loc 1 132 0
  86 0036 0120     		movs	r0, #1
  87              	.LVL4:
  88 0038 F5E7     		b	.L2
  89              	.LVL5:
  90              	.L36:
 134:Drivers/STM32G4xx_HAL_Driver/Src/stm32g4xx_hal_opamp_ex.c ****   {
  91              		.loc 1 134 0
  92 003a 92F83A30 		ldrb	r3, [r2, #58]	@ zero_extendqisi2
  93 003e DBB2     		uxtb	r3, r3
  94 0040 012B     		cmp	r3, #1
  95 0042 01D0     		beq	.L37
 136:Drivers/STM32G4xx_HAL_Driver/Src/stm32g4xx_hal_opamp_ex.c ****   }
  96              		.loc 1 136 0
  97 0044 0120     		movs	r0, #1
  98              	.LVL6:
  99 0046 EEE7     		b	.L2
 100              	.LVL7:
 101              	.L37:
 102 0048 1546     		mov	r5, r2
 103 004a 0C46     		mov	r4, r1
 174:Drivers/STM32G4xx_HAL_Driver/Src/stm32g4xx_hal_opamp_ex.c ****     SET_BIT(hopamp2->Instance->CSR, OPAMP_CSR_FORCEVP);
 104              		.loc 1 174 0
 105 004c 0268     		ldr	r2, [r0]
 106              	.LVL8:
 107 004e 1368     		ldr	r3, [r2]
 108 0050 43F00203 		orr	r3, r3, #2
 109 0054 1360     		str	r3, [r2]
 175:Drivers/STM32G4xx_HAL_Driver/Src/stm32g4xx_hal_opamp_ex.c ****     SET_BIT(hopamp3->Instance->CSR, OPAMP_CSR_FORCEVP);
 110              		.loc 1 175 0
 111 0056 0A68     		ldr	r2, [r1]
 112 0058 1368     		ldr	r3, [r2]
 113 005a 43F00203 		orr	r3, r3, #2
 114 005e 1360     		str	r3, [r2]
 176:Drivers/STM32G4xx_HAL_Driver/Src/stm32g4xx_hal_opamp_ex.c **** #if defined(STM32G473xx) || defined(STM32G474xx) || defined(STM32G483xx) || defined(STM32G483xx)
 115              		.loc 1 176 0
 116 0060 2A68     		ldr	r2, [r5]
 117 0062 1368     		ldr	r3, [r2]
 118 0064 43F00203 		orr	r3, r3, #2
ARM GAS  /tmp/ccaCrYas.s 			page 16


 119 0068 1360     		str	r3, [r2]
 186:Drivers/STM32G4xx_HAL_Driver/Src/stm32g4xx_hal_opamp_ex.c ****     SET_BIT(hopamp2->Instance->CSR, OPAMP_CSR_USERTRIM);
 120              		.loc 1 186 0
 121 006a 0268     		ldr	r2, [r0]
 122 006c 1368     		ldr	r3, [r2]
 123 006e 43F01003 		orr	r3, r3, #16
 124 0072 1360     		str	r3, [r2]
 187:Drivers/STM32G4xx_HAL_Driver/Src/stm32g4xx_hal_opamp_ex.c ****     SET_BIT(hopamp3->Instance->CSR, OPAMP_CSR_USERTRIM);
 125              		.loc 1 187 0
 126 0074 0A68     		ldr	r2, [r1]
 127 0076 1368     		ldr	r3, [r2]
 128 0078 43F01003 		orr	r3, r3, #16
 129 007c 1360     		str	r3, [r2]
 188:Drivers/STM32G4xx_HAL_Driver/Src/stm32g4xx_hal_opamp_ex.c **** #if defined(STM32G473xx) || defined(STM32G474xx) || defined(STM32G483xx) || defined(STM32G483xx)
 130              		.loc 1 188 0
 131 007e 2A68     		ldr	r2, [r5]
 132 0080 1368     		ldr	r3, [r2]
 133 0082 43F01003 		orr	r3, r3, #16
 134 0086 1360     		str	r3, [r2]
 198:Drivers/STM32G4xx_HAL_Driver/Src/stm32g4xx_hal_opamp_ex.c ****     SET_BIT(hopamp2->Instance->CSR, OPAMP_CSR_CALON);
 135              		.loc 1 198 0
 136 0088 0268     		ldr	r2, [r0]
 137 008a 1368     		ldr	r3, [r2]
 138 008c 43F40063 		orr	r3, r3, #2048
 139 0090 1360     		str	r3, [r2]
 199:Drivers/STM32G4xx_HAL_Driver/Src/stm32g4xx_hal_opamp_ex.c ****     SET_BIT(hopamp3->Instance->CSR, OPAMP_CSR_CALON);
 140              		.loc 1 199 0
 141 0092 0A68     		ldr	r2, [r1]
 142 0094 1368     		ldr	r3, [r2]
 143 0096 43F40063 		orr	r3, r3, #2048
 144 009a 1360     		str	r3, [r2]
 200:Drivers/STM32G4xx_HAL_Driver/Src/stm32g4xx_hal_opamp_ex.c **** #if defined(STM32G473xx) || defined(STM32G474xx) || defined(STM32G483xx) || defined(STM32G483xx)
 145              		.loc 1 200 0
 146 009c 2A68     		ldr	r2, [r5]
 147 009e 1368     		ldr	r3, [r2]
 148 00a0 43F40063 		orr	r3, r3, #2048
 149 00a4 1360     		str	r3, [r2]
 211:Drivers/STM32G4xx_HAL_Driver/Src/stm32g4xx_hal_opamp_ex.c ****     MODIFY_REG(hopamp2->Instance->CSR, OPAMP_CSR_CALSEL, OPAMP_VREF_90VDDA);
 150              		.loc 1 211 0
 151 00a6 0268     		ldr	r2, [r0]
 152 00a8 1368     		ldr	r3, [r2]
 153 00aa 43F44053 		orr	r3, r3, #12288
 154 00ae 1360     		str	r3, [r2]
 212:Drivers/STM32G4xx_HAL_Driver/Src/stm32g4xx_hal_opamp_ex.c ****     MODIFY_REG(hopamp3->Instance->CSR, OPAMP_CSR_CALSEL, OPAMP_VREF_90VDDA);
 155              		.loc 1 212 0
 156 00b0 0A68     		ldr	r2, [r1]
 157 00b2 1368     		ldr	r3, [r2]
 158 00b4 43F44053 		orr	r3, r3, #12288
 159 00b8 1360     		str	r3, [r2]
 213:Drivers/STM32G4xx_HAL_Driver/Src/stm32g4xx_hal_opamp_ex.c **** #if defined(STM32G473xx) || defined(STM32G474xx) || defined(STM32G483xx) || defined(STM32G483xx)
 160              		.loc 1 213 0
 161 00ba 2A68     		ldr	r2, [r5]
 162 00bc 1368     		ldr	r3, [r2]
 163 00be 43F44053 		orr	r3, r3, #12288
 164 00c2 1360     		str	r3, [r2]
 223:Drivers/STM32G4xx_HAL_Driver/Src/stm32g4xx_hal_opamp_ex.c ****     SET_BIT(hopamp2->Instance->CSR, OPAMP_CSR_OPAMPxEN);
 165              		.loc 1 223 0
ARM GAS  /tmp/ccaCrYas.s 			page 17


 166 00c4 0268     		ldr	r2, [r0]
 167 00c6 1368     		ldr	r3, [r2]
 168 00c8 43F00103 		orr	r3, r3, #1
 169 00cc 1360     		str	r3, [r2]
 224:Drivers/STM32G4xx_HAL_Driver/Src/stm32g4xx_hal_opamp_ex.c ****     SET_BIT(hopamp3->Instance->CSR, OPAMP_CSR_OPAMPxEN);
 170              		.loc 1 224 0
 171 00ce 0A68     		ldr	r2, [r1]
 172 00d0 1368     		ldr	r3, [r2]
 173 00d2 43F00103 		orr	r3, r3, #1
 174 00d6 1360     		str	r3, [r2]
 225:Drivers/STM32G4xx_HAL_Driver/Src/stm32g4xx_hal_opamp_ex.c **** #if defined(STM32G473xx) || defined(STM32G474xx) || defined(STM32G483xx) || defined(STM32G483xx)
 175              		.loc 1 225 0
 176 00d8 2A68     		ldr	r2, [r5]
 177 00da 1368     		ldr	r3, [r2]
 178 00dc 43F00103 		orr	r3, r3, #1
 179 00e0 1360     		str	r3, [r2]
 180              	.LVL9:
 246:Drivers/STM32G4xx_HAL_Driver/Src/stm32g4xx_hal_opamp_ex.c **** 
 181              		.loc 1 246 0
 182 00e2 0827     		movs	r7, #8
 238:Drivers/STM32G4xx_HAL_Driver/Src/stm32g4xx_hal_opamp_ex.c **** #if defined(STM32G473xx) || defined(STM32G474xx) || defined(STM32G483xx) || defined(STM32G483xx)
 183              		.loc 1 238 0
 184 00e4 4FF01009 		mov	r9, #16
 237:Drivers/STM32G4xx_HAL_Driver/Src/stm32g4xx_hal_opamp_ex.c ****     trimmingvaluen3 = 16UL;
 185              		.loc 1 237 0
 186 00e8 CA46     		mov	r10, r9
 236:Drivers/STM32G4xx_HAL_Driver/Src/stm32g4xx_hal_opamp_ex.c ****     trimmingvaluen2 = 16UL;
 187              		.loc 1 236 0
 188 00ea CB46     		mov	fp, r9
 248:Drivers/STM32G4xx_HAL_Driver/Src/stm32g4xx_hal_opamp_ex.c ****     {
 189              		.loc 1 248 0
 190 00ec 08E0     		b	.L3
 191              	.LVL10:
 192              	.L4:
 275:Drivers/STM32G4xx_HAL_Driver/Src/stm32g4xx_hal_opamp_ex.c ****       }
 193              		.loc 1 275 0
 194 00ee ABEB070B 		sub	fp, fp, r7
 195              	.LVL11:
 196 00f2 24E0     		b	.L5
 197              	.L6:
 286:Drivers/STM32G4xx_HAL_Driver/Src/stm32g4xx_hal_opamp_ex.c ****       }
 198              		.loc 1 286 0
 199 00f4 AAEB070A 		sub	r10, r10, r7
 200              	.LVL12:
 201 00f8 27E0     		b	.L7
 202              	.L8:
 297:Drivers/STM32G4xx_HAL_Driver/Src/stm32g4xx_hal_opamp_ex.c ****       }
 203              		.loc 1 297 0
 204 00fa A9EB0709 		sub	r9, r9, r7
 205              	.LVL13:
 206              	.L9:
 347:Drivers/STM32G4xx_HAL_Driver/Src/stm32g4xx_hal_opamp_ex.c ****     }
 207              		.loc 1 347 0
 208 00fe 7F08     		lsrs	r7, r7, #1
 209              	.LVL14:
 210              	.L3:
 248:Drivers/STM32G4xx_HAL_Driver/Src/stm32g4xx_hal_opamp_ex.c ****     {
ARM GAS  /tmp/ccaCrYas.s 			page 18


 211              		.loc 1 248 0
 212 0100 57B3     		cbz	r7, .L38
 251:Drivers/STM32G4xx_HAL_Driver/Src/stm32g4xx_hal_opamp_ex.c ****       MODIFY_REG(hopamp2->Instance->CSR, OPAMP_CSR_TRIMOFFSETN, trimmingvaluen2 << OPAMP_INPUT_INVE
 213              		.loc 1 251 0
 214 0102 3268     		ldr	r2, [r6]
 215 0104 1368     		ldr	r3, [r2]
 216 0106 23F0F853 		bic	r3, r3, #520093696
 217 010a 43EA0B63 		orr	r3, r3, fp, lsl #24
 218 010e 1360     		str	r3, [r2]
 252:Drivers/STM32G4xx_HAL_Driver/Src/stm32g4xx_hal_opamp_ex.c ****       MODIFY_REG(hopamp3->Instance->CSR, OPAMP_CSR_TRIMOFFSETN, trimmingvaluen3 << OPAMP_INPUT_INVE
 219              		.loc 1 252 0
 220 0110 2268     		ldr	r2, [r4]
 221 0112 1368     		ldr	r3, [r2]
 222 0114 23F0F853 		bic	r3, r3, #520093696
 223 0118 43EA0A63 		orr	r3, r3, r10, lsl #24
 224 011c 1360     		str	r3, [r2]
 253:Drivers/STM32G4xx_HAL_Driver/Src/stm32g4xx_hal_opamp_ex.c **** #if defined(STM32G473xx) || defined(STM32G474xx) || defined(STM32G483xx) || defined(STM32G483xx)
 225              		.loc 1 253 0
 226 011e 2A68     		ldr	r2, [r5]
 227 0120 1368     		ldr	r3, [r2]
 228 0122 23F0F853 		bic	r3, r3, #520093696
 229 0126 43EA0963 		orr	r3, r3, r9, lsl #24
 230 012a 1360     		str	r3, [r2]
 265:Drivers/STM32G4xx_HAL_Driver/Src/stm32g4xx_hal_opamp_ex.c **** 
 231              		.loc 1 265 0
 232 012c 0220     		movs	r0, #2
 233 012e FFF7FEFF 		bl	HAL_Delay
 234              	.LVL15:
 267:Drivers/STM32G4xx_HAL_Driver/Src/stm32g4xx_hal_opamp_ex.c ****       {
 235              		.loc 1 267 0
 236 0132 3368     		ldr	r3, [r6]
 237 0134 1B68     		ldr	r3, [r3]
 238 0136 13F0804F 		tst	r3, #1073741824
 239 013a D8D0     		beq	.L4
 270:Drivers/STM32G4xx_HAL_Driver/Src/stm32g4xx_hal_opamp_ex.c ****       }
 240              		.loc 1 270 0
 241 013c BB44     		add	fp, fp, r7
 242              	.LVL16:
 243              	.L5:
 278:Drivers/STM32G4xx_HAL_Driver/Src/stm32g4xx_hal_opamp_ex.c ****       {
 244              		.loc 1 278 0
 245 013e 2368     		ldr	r3, [r4]
 246 0140 1B68     		ldr	r3, [r3]
 247 0142 13F0804F 		tst	r3, #1073741824
 248 0146 D5D0     		beq	.L6
 281:Drivers/STM32G4xx_HAL_Driver/Src/stm32g4xx_hal_opamp_ex.c ****       }
 249              		.loc 1 281 0
 250 0148 BA44     		add	r10, r10, r7
 251              	.LVL17:
 252              	.L7:
 289:Drivers/STM32G4xx_HAL_Driver/Src/stm32g4xx_hal_opamp_ex.c ****       {
 253              		.loc 1 289 0
 254 014a 2B68     		ldr	r3, [r5]
 255 014c 1B68     		ldr	r3, [r3]
 256 014e 13F0804F 		tst	r3, #1073741824
 257 0152 D2D0     		beq	.L8
 292:Drivers/STM32G4xx_HAL_Driver/Src/stm32g4xx_hal_opamp_ex.c ****       }
ARM GAS  /tmp/ccaCrYas.s 			page 19


 258              		.loc 1 292 0
 259 0154 B944     		add	r9, r9, r7
 260              	.LVL18:
 261 0156 D2E7     		b	.L9
 262              	.L38:
 352:Drivers/STM32G4xx_HAL_Driver/Src/stm32g4xx_hal_opamp_ex.c ****     MODIFY_REG(hopamp2->Instance->CSR, OPAMP_CSR_TRIMOFFSETN, trimmingvaluen2 << OPAMP_INPUT_INVERT
 263              		.loc 1 352 0
 264 0158 3268     		ldr	r2, [r6]
 265 015a 1368     		ldr	r3, [r2]
 266 015c 23F0F853 		bic	r3, r3, #520093696
 267 0160 43EA0B63 		orr	r3, r3, fp, lsl #24
 268 0164 1360     		str	r3, [r2]
 353:Drivers/STM32G4xx_HAL_Driver/Src/stm32g4xx_hal_opamp_ex.c ****     MODIFY_REG(hopamp3->Instance->CSR, OPAMP_CSR_TRIMOFFSETN, trimmingvaluen3 << OPAMP_INPUT_INVERT
 269              		.loc 1 353 0
 270 0166 2268     		ldr	r2, [r4]
 271 0168 1368     		ldr	r3, [r2]
 272 016a 23F0F853 		bic	r3, r3, #520093696
 273 016e 43EA0A63 		orr	r3, r3, r10, lsl #24
 274 0172 1360     		str	r3, [r2]
 354:Drivers/STM32G4xx_HAL_Driver/Src/stm32g4xx_hal_opamp_ex.c **** #if defined(STM32G473xx) || defined(STM32G474xx) || defined(STM32G483xx) || defined(STM32G483xx)
 275              		.loc 1 354 0
 276 0174 2A68     		ldr	r2, [r5]
 277 0176 1368     		ldr	r3, [r2]
 278 0178 23F0F853 		bic	r3, r3, #520093696
 279 017c 43EA0963 		orr	r3, r3, r9, lsl #24
 280 0180 1360     		str	r3, [r2]
 366:Drivers/STM32G4xx_HAL_Driver/Src/stm32g4xx_hal_opamp_ex.c **** 
 281              		.loc 1 366 0
 282 0182 0220     		movs	r0, #2
 283 0184 FFF7FEFF 		bl	HAL_Delay
 284              	.LVL19:
 368:Drivers/STM32G4xx_HAL_Driver/Src/stm32g4xx_hal_opamp_ex.c ****     {
 285              		.loc 1 368 0
 286 0188 3368     		ldr	r3, [r6]
 287 018a 1A68     		ldr	r2, [r3]
 288 018c 12F0804F 		tst	r2, #1073741824
 289 0190 07D0     		beq	.L11
 371:Drivers/STM32G4xx_HAL_Driver/Src/stm32g4xx_hal_opamp_ex.c ****       /* Set right trimming */
 290              		.loc 1 371 0
 291 0192 0BF1010B 		add	fp, fp, #1
 292              	.LVL20:
 373:Drivers/STM32G4xx_HAL_Driver/Src/stm32g4xx_hal_opamp_ex.c ****     }
 293              		.loc 1 373 0
 294 0196 1A68     		ldr	r2, [r3]
 295 0198 22F0F852 		bic	r2, r2, #520093696
 296 019c 42EA0B62 		orr	r2, r2, fp, lsl #24
 297 01a0 1A60     		str	r2, [r3]
 298              	.L11:
 376:Drivers/STM32G4xx_HAL_Driver/Src/stm32g4xx_hal_opamp_ex.c ****     {
 299              		.loc 1 376 0
 300 01a2 2368     		ldr	r3, [r4]
 301 01a4 1A68     		ldr	r2, [r3]
 302 01a6 12F0804F 		tst	r2, #1073741824
 303 01aa 07D0     		beq	.L12
 379:Drivers/STM32G4xx_HAL_Driver/Src/stm32g4xx_hal_opamp_ex.c ****       /* Set right trimming */
 304              		.loc 1 379 0
 305 01ac 0AF1010A 		add	r10, r10, #1
ARM GAS  /tmp/ccaCrYas.s 			page 20


 306              	.LVL21:
 381:Drivers/STM32G4xx_HAL_Driver/Src/stm32g4xx_hal_opamp_ex.c ****     }
 307              		.loc 1 381 0
 308 01b0 1A68     		ldr	r2, [r3]
 309 01b2 22F0F852 		bic	r2, r2, #520093696
 310 01b6 42EA0A62 		orr	r2, r2, r10, lsl #24
 311 01ba 1A60     		str	r2, [r3]
 312              	.L12:
 384:Drivers/STM32G4xx_HAL_Driver/Src/stm32g4xx_hal_opamp_ex.c ****     {
 313              		.loc 1 384 0
 314 01bc 2B68     		ldr	r3, [r5]
 315 01be 1A68     		ldr	r2, [r3]
 316 01c0 12F0804F 		tst	r2, #1073741824
 317 01c4 07D0     		beq	.L13
 387:Drivers/STM32G4xx_HAL_Driver/Src/stm32g4xx_hal_opamp_ex.c ****       /* Set right trimming */
 318              		.loc 1 387 0
 319 01c6 09F10109 		add	r9, r9, #1
 320              	.LVL22:
 389:Drivers/STM32G4xx_HAL_Driver/Src/stm32g4xx_hal_opamp_ex.c ****     }
 321              		.loc 1 389 0
 322 01ca 1A68     		ldr	r2, [r3]
 323 01cc 22F0F852 		bic	r2, r2, #520093696
 324 01d0 42EA0962 		orr	r2, r2, r9, lsl #24
 325 01d4 1A60     		str	r2, [r3]
 326              	.L13:
 429:Drivers/STM32G4xx_HAL_Driver/Src/stm32g4xx_hal_opamp_ex.c ****     MODIFY_REG(hopamp2->Instance->CSR, OPAMP_CSR_CALSEL, OPAMP_VREF_10VDDA);
 327              		.loc 1 429 0
 328 01d6 3268     		ldr	r2, [r6]
 329 01d8 1368     		ldr	r3, [r2]
 330 01da 23F44053 		bic	r3, r3, #12288
 331 01de 43F48053 		orr	r3, r3, #4096
 332 01e2 1360     		str	r3, [r2]
 430:Drivers/STM32G4xx_HAL_Driver/Src/stm32g4xx_hal_opamp_ex.c ****     MODIFY_REG(hopamp3->Instance->CSR, OPAMP_CSR_CALSEL, OPAMP_VREF_10VDDA);
 333              		.loc 1 430 0
 334 01e4 2268     		ldr	r2, [r4]
 335 01e6 1368     		ldr	r3, [r2]
 336 01e8 23F44053 		bic	r3, r3, #12288
 337 01ec 43F48053 		orr	r3, r3, #4096
 338 01f0 1360     		str	r3, [r2]
 431:Drivers/STM32G4xx_HAL_Driver/Src/stm32g4xx_hal_opamp_ex.c **** #if defined(STM32G473xx) || defined(STM32G474xx) || defined(STM32G483xx) || defined(STM32G483xx)
 339              		.loc 1 431 0
 340 01f2 2A68     		ldr	r2, [r5]
 341 01f4 1368     		ldr	r3, [r2]
 342 01f6 23F44053 		bic	r3, r3, #12288
 343 01fa 43F48053 		orr	r3, r3, #4096
 344 01fe 1360     		str	r3, [r2]
 345              	.LVL23:
 453:Drivers/STM32G4xx_HAL_Driver/Src/stm32g4xx_hal_opamp_ex.c **** 
 346              		.loc 1 453 0
 347 0200 0827     		movs	r7, #8
 444:Drivers/STM32G4xx_HAL_Driver/Src/stm32g4xx_hal_opamp_ex.c **** #if defined(STM32G473xx) || defined(STM32G474xx) || defined(STM32G483xx) || defined(STM32G483xx)
 348              		.loc 1 444 0
 349 0202 4FF01008 		mov	r8, #16
 443:Drivers/STM32G4xx_HAL_Driver/Src/stm32g4xx_hal_opamp_ex.c ****     trimmingvaluep3 = 16UL;
 350              		.loc 1 443 0
 351 0206 CDF80080 		str	r8, [sp]
 442:Drivers/STM32G4xx_HAL_Driver/Src/stm32g4xx_hal_opamp_ex.c ****     trimmingvaluep2 = 16UL;
ARM GAS  /tmp/ccaCrYas.s 			page 21


 352              		.loc 1 442 0
 353 020a CDF80480 		str	r8, [sp, #4]
 455:Drivers/STM32G4xx_HAL_Driver/Src/stm32g4xx_hal_opamp_ex.c ****     {
 354              		.loc 1 455 0
 355 020e 0AE0     		b	.L14
 356              	.LVL24:
 357              	.L15:
 481:Drivers/STM32G4xx_HAL_Driver/Src/stm32g4xx_hal_opamp_ex.c ****       }
 358              		.loc 1 481 0
 359 0210 019B     		ldr	r3, [sp, #4]
 360 0212 DB1B     		subs	r3, r3, r7
 361 0214 0193     		str	r3, [sp, #4]
 362              	.LVL25:
 363 0216 2AE0     		b	.L16
 364              	.LVL26:
 365              	.L17:
 491:Drivers/STM32G4xx_HAL_Driver/Src/stm32g4xx_hal_opamp_ex.c ****       }
 366              		.loc 1 491 0
 367 0218 009B     		ldr	r3, [sp]
 368 021a DB1B     		subs	r3, r3, r7
 369 021c 0093     		str	r3, [sp]
 370              	.LVL27:
 371 021e 2EE0     		b	.L18
 372              	.LVL28:
 373              	.L19:
 501:Drivers/STM32G4xx_HAL_Driver/Src/stm32g4xx_hal_opamp_ex.c ****       }
 374              		.loc 1 501 0
 375 0220 A8EB0708 		sub	r8, r8, r7
 376              	.LVL29:
 377              	.L20:
 547:Drivers/STM32G4xx_HAL_Driver/Src/stm32g4xx_hal_opamp_ex.c ****     }
 378              		.loc 1 547 0
 379 0224 7F08     		lsrs	r7, r7, #1
 380              	.LVL30:
 381              	.L14:
 455:Drivers/STM32G4xx_HAL_Driver/Src/stm32g4xx_hal_opamp_ex.c ****     {
 382              		.loc 1 455 0
 383 0226 002F     		cmp	r7, #0
 384 0228 30D0     		beq	.L39
 458:Drivers/STM32G4xx_HAL_Driver/Src/stm32g4xx_hal_opamp_ex.c ****       MODIFY_REG(hopamp2->Instance->CSR, OPAMP_CSR_TRIMOFFSETP, trimmingvaluep2 << OPAMP_INPUT_NONI
 385              		.loc 1 458 0
 386 022a 3268     		ldr	r2, [r6]
 387 022c 1368     		ldr	r3, [r2]
 388 022e 23F47803 		bic	r3, r3, #16252928
 389 0232 0199     		ldr	r1, [sp, #4]
 390 0234 43EAC143 		orr	r3, r3, r1, lsl #19
 391 0238 1360     		str	r3, [r2]
 459:Drivers/STM32G4xx_HAL_Driver/Src/stm32g4xx_hal_opamp_ex.c ****       MODIFY_REG(hopamp3->Instance->CSR, OPAMP_CSR_TRIMOFFSETP, trimmingvaluep3 << OPAMP_INPUT_NONI
 392              		.loc 1 459 0
 393 023a 2268     		ldr	r2, [r4]
 394 023c 1368     		ldr	r3, [r2]
 395 023e 23F47803 		bic	r3, r3, #16252928
 396 0242 0098     		ldr	r0, [sp]
 397 0244 43EAC043 		orr	r3, r3, r0, lsl #19
 398 0248 1360     		str	r3, [r2]
 460:Drivers/STM32G4xx_HAL_Driver/Src/stm32g4xx_hal_opamp_ex.c **** #if defined(STM32G473xx) || defined(STM32G474xx) || defined(STM32G483xx) || defined(STM32G483xx)
 399              		.loc 1 460 0
ARM GAS  /tmp/ccaCrYas.s 			page 22


 400 024a 2A68     		ldr	r2, [r5]
 401 024c 1368     		ldr	r3, [r2]
 402 024e 23F47803 		bic	r3, r3, #16252928
 403 0252 43EAC843 		orr	r3, r3, r8, lsl #19
 404 0256 1360     		str	r3, [r2]
 472:Drivers/STM32G4xx_HAL_Driver/Src/stm32g4xx_hal_opamp_ex.c **** 
 405              		.loc 1 472 0
 406 0258 0220     		movs	r0, #2
 407 025a FFF7FEFF 		bl	HAL_Delay
 408              	.LVL31:
 474:Drivers/STM32G4xx_HAL_Driver/Src/stm32g4xx_hal_opamp_ex.c ****       {
 409              		.loc 1 474 0
 410 025e 3368     		ldr	r3, [r6]
 411 0260 1B68     		ldr	r3, [r3]
 412 0262 13F0804F 		tst	r3, #1073741824
 413 0266 D3D0     		beq	.L15
 477:Drivers/STM32G4xx_HAL_Driver/Src/stm32g4xx_hal_opamp_ex.c ****       }
 414              		.loc 1 477 0
 415 0268 0199     		ldr	r1, [sp, #4]
 416 026a 3944     		add	r1, r1, r7
 417 026c 0191     		str	r1, [sp, #4]
 418              	.LVL32:
 419              	.L16:
 484:Drivers/STM32G4xx_HAL_Driver/Src/stm32g4xx_hal_opamp_ex.c ****       {
 420              		.loc 1 484 0
 421 026e 2368     		ldr	r3, [r4]
 422 0270 1B68     		ldr	r3, [r3]
 423 0272 13F0804F 		tst	r3, #1073741824
 424 0276 CFD0     		beq	.L17
 487:Drivers/STM32G4xx_HAL_Driver/Src/stm32g4xx_hal_opamp_ex.c ****       }
 425              		.loc 1 487 0
 426 0278 009B     		ldr	r3, [sp]
 427 027a 3B44     		add	r3, r3, r7
 428 027c 0093     		str	r3, [sp]
 429              	.LVL33:
 430              	.L18:
 494:Drivers/STM32G4xx_HAL_Driver/Src/stm32g4xx_hal_opamp_ex.c ****       {
 431              		.loc 1 494 0
 432 027e 2B68     		ldr	r3, [r5]
 433 0280 1B68     		ldr	r3, [r3]
 434 0282 13F0804F 		tst	r3, #1073741824
 435 0286 CBD0     		beq	.L19
 497:Drivers/STM32G4xx_HAL_Driver/Src/stm32g4xx_hal_opamp_ex.c ****       }
 436              		.loc 1 497 0
 437 0288 B844     		add	r8, r8, r7
 438              	.LVL34:
 439 028a CBE7     		b	.L20
 440              	.L39:
 553:Drivers/STM32G4xx_HAL_Driver/Src/stm32g4xx_hal_opamp_ex.c ****     MODIFY_REG(hopamp2->Instance->CSR, OPAMP_CSR_TRIMOFFSETP, trimmingvaluep2 << OPAMP_INPUT_NONINV
 441              		.loc 1 553 0
 442 028c 3268     		ldr	r2, [r6]
 443 028e 1368     		ldr	r3, [r2]
 444 0290 23F47803 		bic	r3, r3, #16252928
 445 0294 019F     		ldr	r7, [sp, #4]
 446              	.LVL35:
 447 0296 43EAC743 		orr	r3, r3, r7, lsl #19
 448 029a 1360     		str	r3, [r2]
ARM GAS  /tmp/ccaCrYas.s 			page 23


 554:Drivers/STM32G4xx_HAL_Driver/Src/stm32g4xx_hal_opamp_ex.c ****     MODIFY_REG(hopamp3->Instance->CSR, OPAMP_CSR_TRIMOFFSETP, trimmingvaluep3 << OPAMP_INPUT_NONINV
 449              		.loc 1 554 0
 450 029c 2268     		ldr	r2, [r4]
 451 029e 1368     		ldr	r3, [r2]
 452 02a0 23F47803 		bic	r3, r3, #16252928
 453 02a4 0099     		ldr	r1, [sp]
 454 02a6 43EAC143 		orr	r3, r3, r1, lsl #19
 455 02aa 1360     		str	r3, [r2]
 555:Drivers/STM32G4xx_HAL_Driver/Src/stm32g4xx_hal_opamp_ex.c **** #if defined(STM32G473xx) || defined(STM32G474xx) || defined(STM32G483xx) || defined(STM32G483xx)
 456              		.loc 1 555 0
 457 02ac 2A68     		ldr	r2, [r5]
 458 02ae 1368     		ldr	r3, [r2]
 459 02b0 23F47803 		bic	r3, r3, #16252928
 460 02b4 43EAC843 		orr	r3, r3, r8, lsl #19
 461 02b8 1360     		str	r3, [r2]
 567:Drivers/STM32G4xx_HAL_Driver/Src/stm32g4xx_hal_opamp_ex.c **** 
 462              		.loc 1 567 0
 463 02ba 0220     		movs	r0, #2
 464 02bc FFF7FEFF 		bl	HAL_Delay
 465              	.LVL36:
 569:Drivers/STM32G4xx_HAL_Driver/Src/stm32g4xx_hal_opamp_ex.c ****     {
 466              		.loc 1 569 0
 467 02c0 3368     		ldr	r3, [r6]
 468 02c2 1A68     		ldr	r2, [r3]
 469 02c4 12F0804F 		tst	r2, #1073741824
 470 02c8 07D0     		beq	.L22
 572:Drivers/STM32G4xx_HAL_Driver/Src/stm32g4xx_hal_opamp_ex.c ****       /* Set right trimming */
 471              		.loc 1 572 0
 472 02ca 0137     		adds	r7, r7, #1
 473 02cc 0197     		str	r7, [sp, #4]
 474              	.LVL37:
 574:Drivers/STM32G4xx_HAL_Driver/Src/stm32g4xx_hal_opamp_ex.c ****     }
 475              		.loc 1 574 0
 476 02ce 1A68     		ldr	r2, [r3]
 477 02d0 22F47802 		bic	r2, r2, #16252928
 478 02d4 42EAC742 		orr	r2, r2, r7, lsl #19
 479 02d8 1A60     		str	r2, [r3]
 480              	.LVL38:
 481              	.L22:
 577:Drivers/STM32G4xx_HAL_Driver/Src/stm32g4xx_hal_opamp_ex.c ****     {
 482              		.loc 1 577 0
 483 02da 2368     		ldr	r3, [r4]
 484 02dc 1A68     		ldr	r2, [r3]
 485 02de 12F0804F 		tst	r2, #1073741824
 486 02e2 08D0     		beq	.L23
 580:Drivers/STM32G4xx_HAL_Driver/Src/stm32g4xx_hal_opamp_ex.c ****       /* Set right trimming */
 487              		.loc 1 580 0
 488 02e4 0099     		ldr	r1, [sp]
 489 02e6 0131     		adds	r1, r1, #1
 490 02e8 0091     		str	r1, [sp]
 491              	.LVL39:
 582:Drivers/STM32G4xx_HAL_Driver/Src/stm32g4xx_hal_opamp_ex.c ****     }
 492              		.loc 1 582 0
 493 02ea 1A68     		ldr	r2, [r3]
 494 02ec 22F47802 		bic	r2, r2, #16252928
 495 02f0 42EAC142 		orr	r2, r2, r1, lsl #19
 496 02f4 1A60     		str	r2, [r3]
ARM GAS  /tmp/ccaCrYas.s 			page 24


 497              	.LVL40:
 498              	.L23:
 585:Drivers/STM32G4xx_HAL_Driver/Src/stm32g4xx_hal_opamp_ex.c ****     {
 499              		.loc 1 585 0
 500 02f6 2B68     		ldr	r3, [r5]
 501 02f8 1A68     		ldr	r2, [r3]
 502 02fa 12F0804F 		tst	r2, #1073741824
 503 02fe 07D0     		beq	.L24
 588:Drivers/STM32G4xx_HAL_Driver/Src/stm32g4xx_hal_opamp_ex.c ****       /* Set right trimming */
 504              		.loc 1 588 0
 505 0300 08F10108 		add	r8, r8, #1
 506              	.LVL41:
 590:Drivers/STM32G4xx_HAL_Driver/Src/stm32g4xx_hal_opamp_ex.c ****     }
 507              		.loc 1 590 0
 508 0304 1A68     		ldr	r2, [r3]
 509 0306 22F47802 		bic	r2, r2, #16252928
 510 030a 42EAC842 		orr	r2, r2, r8, lsl #19
 511 030e 1A60     		str	r2, [r3]
 512              	.L24:
 629:Drivers/STM32G4xx_HAL_Driver/Src/stm32g4xx_hal_opamp_ex.c ****     CLEAR_BIT(hopamp2->Instance->CSR, OPAMP_CSR_CALON);
 513              		.loc 1 629 0
 514 0310 3268     		ldr	r2, [r6]
 515 0312 1368     		ldr	r3, [r2]
 516 0314 23F40063 		bic	r3, r3, #2048
 517 0318 1360     		str	r3, [r2]
 630:Drivers/STM32G4xx_HAL_Driver/Src/stm32g4xx_hal_opamp_ex.c ****     CLEAR_BIT(hopamp3->Instance->CSR, OPAMP_CSR_CALON);
 518              		.loc 1 630 0
 519 031a 2268     		ldr	r2, [r4]
 520 031c 1368     		ldr	r3, [r2]
 521 031e 23F40063 		bic	r3, r3, #2048
 522 0322 1360     		str	r3, [r2]
 631:Drivers/STM32G4xx_HAL_Driver/Src/stm32g4xx_hal_opamp_ex.c **** #if defined(STM32G473xx) || defined(STM32G474xx) || defined(STM32G483xx) || defined(STM32G483xx)
 523              		.loc 1 631 0
 524 0324 2A68     		ldr	r2, [r5]
 525 0326 1368     		ldr	r3, [r2]
 526 0328 23F40063 		bic	r3, r3, #2048
 527 032c 1360     		str	r3, [r2]
 641:Drivers/STM32G4xx_HAL_Driver/Src/stm32g4xx_hal_opamp_ex.c ****     CLEAR_BIT(hopamp2->Instance->CSR, OPAMP_CSR_OPAMPxEN);
 528              		.loc 1 641 0
 529 032e 3268     		ldr	r2, [r6]
 530 0330 1368     		ldr	r3, [r2]
 531 0332 23F00103 		bic	r3, r3, #1
 532 0336 1360     		str	r3, [r2]
 642:Drivers/STM32G4xx_HAL_Driver/Src/stm32g4xx_hal_opamp_ex.c ****     CLEAR_BIT(hopamp3->Instance->CSR, OPAMP_CSR_OPAMPxEN);
 533              		.loc 1 642 0
 534 0338 2268     		ldr	r2, [r4]
 535 033a 1368     		ldr	r3, [r2]
 536 033c 23F00103 		bic	r3, r3, #1
 537 0340 1360     		str	r3, [r2]
 643:Drivers/STM32G4xx_HAL_Driver/Src/stm32g4xx_hal_opamp_ex.c **** #if defined(STM32G473xx) || defined(STM32G474xx) || defined(STM32G483xx) || defined(STM32G483xx)
 538              		.loc 1 643 0
 539 0342 2A68     		ldr	r2, [r5]
 540 0344 1368     		ldr	r3, [r2]
 541 0346 23F00103 		bic	r3, r3, #1
 542 034a 1360     		str	r3, [r2]
 653:Drivers/STM32G4xx_HAL_Driver/Src/stm32g4xx_hal_opamp_ex.c ****     CLEAR_BIT(hopamp2->Instance->CSR, OPAMP_CSR_FORCEVP);
 543              		.loc 1 653 0
ARM GAS  /tmp/ccaCrYas.s 			page 25


 544 034c 3268     		ldr	r2, [r6]
 545 034e 1368     		ldr	r3, [r2]
 546 0350 23F00203 		bic	r3, r3, #2
 547 0354 1360     		str	r3, [r2]
 654:Drivers/STM32G4xx_HAL_Driver/Src/stm32g4xx_hal_opamp_ex.c ****     CLEAR_BIT(hopamp3->Instance->CSR, OPAMP_CSR_FORCEVP);
 548              		.loc 1 654 0
 549 0356 2268     		ldr	r2, [r4]
 550 0358 1368     		ldr	r3, [r2]
 551 035a 23F00203 		bic	r3, r3, #2
 552 035e 1360     		str	r3, [r2]
 655:Drivers/STM32G4xx_HAL_Driver/Src/stm32g4xx_hal_opamp_ex.c **** #if defined(STM32G473xx) || defined(STM32G474xx) || defined(STM32G483xx) || defined(STM32G483xx)
 553              		.loc 1 655 0
 554 0360 2A68     		ldr	r2, [r5]
 555 0362 1368     		ldr	r3, [r2]
 556 0364 23F00203 		bic	r3, r3, #2
 557 0368 1360     		str	r3, [r2]
 669:Drivers/STM32G4xx_HAL_Driver/Src/stm32g4xx_hal_opamp_ex.c ****     hopamp2->Init.TrimmingValueN = trimmingvaluen2;
 558              		.loc 1 669 0
 559 036a C6F834B0 		str	fp, [r6, #52]
 670:Drivers/STM32G4xx_HAL_Driver/Src/stm32g4xx_hal_opamp_ex.c ****     hopamp3->Init.TrimmingValueN = trimmingvaluen3;
 560              		.loc 1 670 0
 561 036e C4F834A0 		str	r10, [r4, #52]
 671:Drivers/STM32G4xx_HAL_Driver/Src/stm32g4xx_hal_opamp_ex.c **** #if defined(STM32G473xx) || defined(STM32G474xx) || defined(STM32G483xx) || defined(STM32G483xx)
 562              		.loc 1 671 0
 563 0372 C5F83490 		str	r9, [r5, #52]
 681:Drivers/STM32G4xx_HAL_Driver/Src/stm32g4xx_hal_opamp_ex.c ****     hopamp2->Init.TrimmingValueP = trimmingvaluep2;
 564              		.loc 1 681 0
 565 0376 0199     		ldr	r1, [sp, #4]
 566 0378 3163     		str	r1, [r6, #48]
 682:Drivers/STM32G4xx_HAL_Driver/Src/stm32g4xx_hal_opamp_ex.c ****     hopamp3->Init.TrimmingValueP = trimmingvaluep3;
 567              		.loc 1 682 0
 568 037a 0098     		ldr	r0, [sp]
 569 037c 2063     		str	r0, [r4, #48]
 683:Drivers/STM32G4xx_HAL_Driver/Src/stm32g4xx_hal_opamp_ex.c **** #if defined(STM32G473xx) || defined(STM32G474xx) || defined(STM32G483xx) || defined(STM32G483xx)
 570              		.loc 1 683 0
 571 037e C5F83080 		str	r8, [r5, #48]
 694:Drivers/STM32G4xx_HAL_Driver/Src/stm32g4xx_hal_opamp_ex.c ****     hopamp2->Init.UserTrimming = OPAMP_TRIMMING_USER;
 572              		.loc 1 694 0
 573 0382 1023     		movs	r3, #16
 574 0384 F362     		str	r3, [r6, #44]
 695:Drivers/STM32G4xx_HAL_Driver/Src/stm32g4xx_hal_opamp_ex.c ****     hopamp3->Init.UserTrimming = OPAMP_TRIMMING_USER;
 575              		.loc 1 695 0
 576 0386 E362     		str	r3, [r4, #44]
 696:Drivers/STM32G4xx_HAL_Driver/Src/stm32g4xx_hal_opamp_ex.c **** #if defined(STM32G473xx) || defined(STM32G474xx) || defined(STM32G483xx) || defined(STM32G483xx)
 577              		.loc 1 696 0
 578 0388 EB62     		str	r3, [r5, #44]
 705:Drivers/STM32G4xx_HAL_Driver/Src/stm32g4xx_hal_opamp_ex.c ****     MODIFY_REG(hopamp2->Instance->CSR, OPAMP_CSR_TRIMOFFSETN, trimmingvaluen2 << OPAMP_INPUT_INVERT
 579              		.loc 1 705 0
 580 038a 3268     		ldr	r2, [r6]
 581 038c 1368     		ldr	r3, [r2]
 582 038e 23F0F853 		bic	r3, r3, #520093696
 583 0392 43EA0B63 		orr	r3, r3, fp, lsl #24
 584 0396 1360     		str	r3, [r2]
 706:Drivers/STM32G4xx_HAL_Driver/Src/stm32g4xx_hal_opamp_ex.c ****     MODIFY_REG(hopamp3->Instance->CSR, OPAMP_CSR_TRIMOFFSETN, trimmingvaluen3 << OPAMP_INPUT_INVERT
 585              		.loc 1 706 0
 586 0398 2268     		ldr	r2, [r4]
 587 039a 1368     		ldr	r3, [r2]
ARM GAS  /tmp/ccaCrYas.s 			page 26


 588 039c 23F0F853 		bic	r3, r3, #520093696
 589 03a0 43EA0A63 		orr	r3, r3, r10, lsl #24
 590 03a4 1360     		str	r3, [r2]
 707:Drivers/STM32G4xx_HAL_Driver/Src/stm32g4xx_hal_opamp_ex.c **** #if defined(STM32G473xx) || defined(STM32G474xx) || defined(STM32G483xx) || defined(STM32G483xx)
 591              		.loc 1 707 0
 592 03a6 2A68     		ldr	r2, [r5]
 593 03a8 1368     		ldr	r3, [r2]
 594 03aa 23F0F853 		bic	r3, r3, #520093696
 595 03ae 43EA0963 		orr	r3, r3, r9, lsl #24
 596 03b2 1360     		str	r3, [r2]
 716:Drivers/STM32G4xx_HAL_Driver/Src/stm32g4xx_hal_opamp_ex.c ****     MODIFY_REG(hopamp2->Instance->CSR, OPAMP_CSR_TRIMOFFSETP, trimmingvaluep2 << OPAMP_INPUT_NONINV
 597              		.loc 1 716 0
 598 03b4 3268     		ldr	r2, [r6]
 599 03b6 1368     		ldr	r3, [r2]
 600 03b8 23F47803 		bic	r3, r3, #16252928
 601 03bc 43EAC143 		orr	r3, r3, r1, lsl #19
 602 03c0 1360     		str	r3, [r2]
 717:Drivers/STM32G4xx_HAL_Driver/Src/stm32g4xx_hal_opamp_ex.c ****     MODIFY_REG(hopamp3->Instance->CSR, OPAMP_CSR_TRIMOFFSETP, trimmingvaluep3 << OPAMP_INPUT_NONINV
 603              		.loc 1 717 0
 604 03c2 2268     		ldr	r2, [r4]
 605 03c4 1368     		ldr	r3, [r2]
 606 03c6 23F47803 		bic	r3, r3, #16252928
 607 03ca 43EAC043 		orr	r3, r3, r0, lsl #19
 608 03ce 1360     		str	r3, [r2]
 718:Drivers/STM32G4xx_HAL_Driver/Src/stm32g4xx_hal_opamp_ex.c **** #if defined(STM32G473xx) || defined(STM32G474xx) || defined(STM32G483xx) || defined(STM32G483xx)
 609              		.loc 1 718 0
 610 03d0 2A68     		ldr	r2, [r5]
 611 03d2 1368     		ldr	r3, [r2]
 612 03d4 23F47803 		bic	r3, r3, #16252928
 613 03d8 43EAC843 		orr	r3, r3, r8, lsl #19
 614 03dc 1360     		str	r3, [r2]
 729:Drivers/STM32G4xx_HAL_Driver/Src/stm32g4xx_hal_opamp_ex.c **** }
 615              		.loc 1 729 0
 616 03de 0020     		movs	r0, #0
 617 03e0 21E6     		b	.L2
 618              	.LVL42:
 619              	.L25:
 620              	.LCFI4:
 621              		.cfi_def_cfa_offset 0
 622              		.cfi_restore 4
 623              		.cfi_restore 5
 624              		.cfi_restore 6
 625              		.cfi_restore 7
 626              		.cfi_restore 8
 627              		.cfi_restore 9
 628              		.cfi_restore 10
 629              		.cfi_restore 11
 630              		.cfi_restore 14
 124:Drivers/STM32G4xx_HAL_Driver/Src/stm32g4xx_hal_opamp_ex.c ****   }
 631              		.loc 1 124 0
 632 03e2 0120     		movs	r0, #1
 633              	.LVL43:
 634              		.loc 1 730 0
 635 03e4 7047     		bx	lr
 636              	.LVL44:
 637              	.L26:
 638              	.LCFI5:
ARM GAS  /tmp/ccaCrYas.s 			page 27


 639              		.cfi_def_cfa_offset 48
 640              		.cfi_offset 4, -36
 641              		.cfi_offset 5, -32
 642              		.cfi_offset 6, -28
 643              		.cfi_offset 7, -24
 644              		.cfi_offset 8, -20
 645              		.cfi_offset 9, -16
 646              		.cfi_offset 10, -12
 647              		.cfi_offset 11, -8
 648              		.cfi_offset 14, -4
 124:Drivers/STM32G4xx_HAL_Driver/Src/stm32g4xx_hal_opamp_ex.c ****   }
 649              		.loc 1 124 0
 650 03e6 0120     		movs	r0, #1
 651              	.LVL45:
 652 03e8 1DE6     		b	.L2
 653              	.LVL46:
 654              	.L27:
 655 03ea 0120     		movs	r0, #1
 656              	.LVL47:
 657 03ec 1BE6     		b	.L2
 658              		.cfi_endproc
 659              	.LFE329:
 661              		.text
 662              	.Letext0:
 663              		.file 2 "/usr/include/newlib/machine/_default_types.h"
 664              		.file 3 "/usr/include/newlib/sys/_stdint.h"
 665              		.file 4 "Drivers/CMSIS/Include/core_cm4.h"
 666              		.file 5 "Drivers/CMSIS/Device/ST/STM32G4xx/Include/system_stm32g4xx.h"
 667              		.file 6 "Drivers/CMSIS/Device/ST/STM32G4xx/Include/stm32g484xx.h"
 668              		.file 7 "Drivers/CMSIS/Device/ST/STM32G4xx/Include/stm32g4xx.h"
 669              		.file 8 "Drivers/STM32G4xx_HAL_Driver/Inc/stm32g4xx_hal_def.h"
 670              		.file 9 "Drivers/STM32G4xx_HAL_Driver/Inc/stm32g4xx_hal_flash.h"
 671              		.file 10 "Drivers/STM32G4xx_HAL_Driver/Inc/stm32g4xx_hal_opamp.h"
 672              		.file 11 "Drivers/STM32G4xx_HAL_Driver/Inc/stm32g4xx_hal_uart.h"
 673              		.file 12 "Drivers/STM32G4xx_HAL_Driver/Inc/stm32g4xx_hal.h"
ARM GAS  /tmp/ccaCrYas.s 			page 28

