ARM GAS  /tmp/ccZpajbM.s 			page 1


   1              		.cpu cortex-m4
   2              		.eabi_attribute 27, 1
   3              		.eabi_attribute 28, 1
   4              		.eabi_attribute 20, 1
   5              		.eabi_attribute 21, 1
   6              		.eabi_attribute 23, 3
   7              		.eabi_attribute 24, 1
   8              		.eabi_attribute 25, 1
   9              		.eabi_attribute 26, 1
  10              		.eabi_attribute 30, 1
  11              		.eabi_attribute 34, 1
  12              		.eabi_attribute 18, 4
  13              		.file	"usbd_conf.c"
  14              		.text
  15              	.Ltext0:
  16              		.cfi_sections	.debug_frame
  17              		.section	.text.USBD_Get_USB_Status,"ax",%progbits
  18              		.align	1
  19              		.syntax unified
  20              		.thumb
  21              		.thumb_func
  22              		.fpu fpv4-sp-d16
  24              	USBD_Get_USB_Status:
  25              	.LFB365:
  26              		.file 1 "USB_Device/Target/usbd_conf.c"
   1:USB_Device/Target/usbd_conf.c **** /* USER CODE BEGIN Header */
   2:USB_Device/Target/usbd_conf.c **** /**
   3:USB_Device/Target/usbd_conf.c ****   ******************************************************************************
   4:USB_Device/Target/usbd_conf.c ****   * @file           : Target/usbd_conf.c
   5:USB_Device/Target/usbd_conf.c ****   * @version        : v3.0_Cube
   6:USB_Device/Target/usbd_conf.c ****   * @brief          : This file implements the board support package for the USB device library
   7:USB_Device/Target/usbd_conf.c ****   ******************************************************************************
   8:USB_Device/Target/usbd_conf.c ****   * @attention
   9:USB_Device/Target/usbd_conf.c ****   *
  10:USB_Device/Target/usbd_conf.c ****   * <h2><center>&copy; Copyright (c) 2021 STMicroelectronics.
  11:USB_Device/Target/usbd_conf.c ****   * All rights reserved.</center></h2>
  12:USB_Device/Target/usbd_conf.c ****   *
  13:USB_Device/Target/usbd_conf.c ****   * This software component is licensed by ST under Ultimate Liberty license
  14:USB_Device/Target/usbd_conf.c ****   * SLA0044, the "License"; You may not use this file except in compliance with
  15:USB_Device/Target/usbd_conf.c ****   * the License. You may obtain a copy of the License at:
  16:USB_Device/Target/usbd_conf.c ****   *                             www.st.com/SLA0044
  17:USB_Device/Target/usbd_conf.c ****   *
  18:USB_Device/Target/usbd_conf.c ****   ******************************************************************************
  19:USB_Device/Target/usbd_conf.c ****   */
  20:USB_Device/Target/usbd_conf.c **** /* USER CODE END Header */
  21:USB_Device/Target/usbd_conf.c **** 
  22:USB_Device/Target/usbd_conf.c **** /* Includes ------------------------------------------------------------------*/
  23:USB_Device/Target/usbd_conf.c **** #include "stm32g4xx.h"
  24:USB_Device/Target/usbd_conf.c **** #include "stm32g4xx_hal.h"
  25:USB_Device/Target/usbd_conf.c **** #include "usbd_def.h"
  26:USB_Device/Target/usbd_conf.c **** #include "usbd_core.h"
  27:USB_Device/Target/usbd_conf.c **** 
  28:USB_Device/Target/usbd_conf.c **** #include "usbd_cdc.h"
  29:USB_Device/Target/usbd_conf.c **** 
  30:USB_Device/Target/usbd_conf.c **** /* USER CODE BEGIN Includes */
  31:USB_Device/Target/usbd_conf.c **** 
  32:USB_Device/Target/usbd_conf.c **** /* USER CODE END Includes */
ARM GAS  /tmp/ccZpajbM.s 			page 2


  33:USB_Device/Target/usbd_conf.c **** 
  34:USB_Device/Target/usbd_conf.c **** /* Private typedef -----------------------------------------------------------*/
  35:USB_Device/Target/usbd_conf.c **** /* Private define ------------------------------------------------------------*/
  36:USB_Device/Target/usbd_conf.c **** /* Private macro -------------------------------------------------------------*/
  37:USB_Device/Target/usbd_conf.c **** 
  38:USB_Device/Target/usbd_conf.c **** /* Private variables ---------------------------------------------------------*/
  39:USB_Device/Target/usbd_conf.c **** /* USER CODE BEGIN PV */
  40:USB_Device/Target/usbd_conf.c **** 
  41:USB_Device/Target/usbd_conf.c **** /* USER CODE END PV */
  42:USB_Device/Target/usbd_conf.c **** 
  43:USB_Device/Target/usbd_conf.c **** PCD_HandleTypeDef hpcd_USB_FS;
  44:USB_Device/Target/usbd_conf.c **** void Error_Handler(void);
  45:USB_Device/Target/usbd_conf.c **** 
  46:USB_Device/Target/usbd_conf.c **** /* USER CODE BEGIN 0 */
  47:USB_Device/Target/usbd_conf.c **** 
  48:USB_Device/Target/usbd_conf.c **** /* USER CODE END 0 */
  49:USB_Device/Target/usbd_conf.c **** 
  50:USB_Device/Target/usbd_conf.c **** /* Exported function prototypes ----------------------------------------------*/
  51:USB_Device/Target/usbd_conf.c **** 
  52:USB_Device/Target/usbd_conf.c **** /* USER CODE BEGIN PFP */
  53:USB_Device/Target/usbd_conf.c **** /* Private function prototypes -----------------------------------------------*/
  54:USB_Device/Target/usbd_conf.c **** 
  55:USB_Device/Target/usbd_conf.c **** /* USER CODE END PFP */
  56:USB_Device/Target/usbd_conf.c **** 
  57:USB_Device/Target/usbd_conf.c **** /* Private functions ---------------------------------------------------------*/
  58:USB_Device/Target/usbd_conf.c **** static USBD_StatusTypeDef USBD_Get_USB_Status(HAL_StatusTypeDef hal_status);
  59:USB_Device/Target/usbd_conf.c **** /* USER CODE BEGIN 1 */
  60:USB_Device/Target/usbd_conf.c **** static void SystemClockConfig_Resume(void);
  61:USB_Device/Target/usbd_conf.c **** 
  62:USB_Device/Target/usbd_conf.c **** /* USER CODE END 1 */
  63:USB_Device/Target/usbd_conf.c **** extern void SystemClock_Config(void);
  64:USB_Device/Target/usbd_conf.c **** 
  65:USB_Device/Target/usbd_conf.c **** /*******************************************************************************
  66:USB_Device/Target/usbd_conf.c ****                        LL Driver Callbacks (PCD -> USB Device Library)
  67:USB_Device/Target/usbd_conf.c **** *******************************************************************************/
  68:USB_Device/Target/usbd_conf.c **** /* MSP Init */
  69:USB_Device/Target/usbd_conf.c **** 
  70:USB_Device/Target/usbd_conf.c **** #if (USE_HAL_PCD_REGISTER_CALLBACK == 1U)
  71:USB_Device/Target/usbd_conf.c **** static void HAL_PCD_MspInit(PCD_HandleTypeDef* pcdHandle)
  72:USB_Device/Target/usbd_conf.c **** #else
  73:USB_Device/Target/usbd_conf.c **** void HAL_PCD_MspInit(PCD_HandleTypeDef* pcdHandle)
  74:USB_Device/Target/usbd_conf.c **** #endif /* USE_HAL_PCD_REGISTER_CALLBACK */
  75:USB_Device/Target/usbd_conf.c **** {
  76:USB_Device/Target/usbd_conf.c ****   if(pcdHandle->Instance==USB)
  77:USB_Device/Target/usbd_conf.c ****   {
  78:USB_Device/Target/usbd_conf.c ****   /* USER CODE BEGIN USB_MspInit 0 */
  79:USB_Device/Target/usbd_conf.c **** 
  80:USB_Device/Target/usbd_conf.c ****   /* USER CODE END USB_MspInit 0 */
  81:USB_Device/Target/usbd_conf.c ****     /* Peripheral clock enable */
  82:USB_Device/Target/usbd_conf.c ****     __HAL_RCC_USB_CLK_ENABLE();
  83:USB_Device/Target/usbd_conf.c **** 
  84:USB_Device/Target/usbd_conf.c ****     /* Peripheral interrupt init */
  85:USB_Device/Target/usbd_conf.c ****     HAL_NVIC_SetPriority(USB_LP_IRQn, 0, 0);
  86:USB_Device/Target/usbd_conf.c ****     HAL_NVIC_EnableIRQ(USB_LP_IRQn);
  87:USB_Device/Target/usbd_conf.c ****   /* USER CODE BEGIN USB_MspInit 1 */
  88:USB_Device/Target/usbd_conf.c **** 
  89:USB_Device/Target/usbd_conf.c ****   /* USER CODE END USB_MspInit 1 */
ARM GAS  /tmp/ccZpajbM.s 			page 3


  90:USB_Device/Target/usbd_conf.c ****   }
  91:USB_Device/Target/usbd_conf.c **** }
  92:USB_Device/Target/usbd_conf.c **** 
  93:USB_Device/Target/usbd_conf.c **** #if (USE_HAL_PCD_REGISTER_CALLBACK == 1U)
  94:USB_Device/Target/usbd_conf.c **** static void HAL_PCD_MspDeInit(PCD_HandleTypeDef* pcdHandle)
  95:USB_Device/Target/usbd_conf.c **** #else
  96:USB_Device/Target/usbd_conf.c **** void HAL_PCD_MspDeInit(PCD_HandleTypeDef* pcdHandle)
  97:USB_Device/Target/usbd_conf.c **** #endif /* USE_HAL_PCD_REGISTER_CALLBACK */
  98:USB_Device/Target/usbd_conf.c **** {
  99:USB_Device/Target/usbd_conf.c ****   if(pcdHandle->Instance==USB)
 100:USB_Device/Target/usbd_conf.c ****   {
 101:USB_Device/Target/usbd_conf.c ****   /* USER CODE BEGIN USB_MspDeInit 0 */
 102:USB_Device/Target/usbd_conf.c **** 
 103:USB_Device/Target/usbd_conf.c ****   /* USER CODE END USB_MspDeInit 0 */
 104:USB_Device/Target/usbd_conf.c ****     /* Peripheral clock disable */
 105:USB_Device/Target/usbd_conf.c ****     __HAL_RCC_USB_CLK_DISABLE();
 106:USB_Device/Target/usbd_conf.c **** 
 107:USB_Device/Target/usbd_conf.c ****     /* Peripheral interrupt Deinit*/
 108:USB_Device/Target/usbd_conf.c ****     HAL_NVIC_DisableIRQ(USB_LP_IRQn);
 109:USB_Device/Target/usbd_conf.c **** 
 110:USB_Device/Target/usbd_conf.c ****   /* USER CODE BEGIN USB_MspDeInit 1 */
 111:USB_Device/Target/usbd_conf.c **** 
 112:USB_Device/Target/usbd_conf.c ****   /* USER CODE END USB_MspDeInit 1 */
 113:USB_Device/Target/usbd_conf.c ****   }
 114:USB_Device/Target/usbd_conf.c **** }
 115:USB_Device/Target/usbd_conf.c **** 
 116:USB_Device/Target/usbd_conf.c **** /**
 117:USB_Device/Target/usbd_conf.c ****   * @brief  Setup stage callback
 118:USB_Device/Target/usbd_conf.c ****   * @param  hpcd: PCD handle
 119:USB_Device/Target/usbd_conf.c ****   * @retval None
 120:USB_Device/Target/usbd_conf.c ****   */
 121:USB_Device/Target/usbd_conf.c **** #if (USE_HAL_PCD_REGISTER_CALLBACKS == 1U)
 122:USB_Device/Target/usbd_conf.c **** static void PCD_SetupStageCallback(PCD_HandleTypeDef *hpcd)
 123:USB_Device/Target/usbd_conf.c **** #else
 124:USB_Device/Target/usbd_conf.c **** void HAL_PCD_SetupStageCallback(PCD_HandleTypeDef *hpcd)
 125:USB_Device/Target/usbd_conf.c **** #endif /* USE_HAL_PCD_REGISTER_CALLBACKS */
 126:USB_Device/Target/usbd_conf.c **** {
 127:USB_Device/Target/usbd_conf.c ****   /* USER CODE BEGIN HAL_PCD_SetupStageCallback_PreTreatment */
 128:USB_Device/Target/usbd_conf.c **** 
 129:USB_Device/Target/usbd_conf.c ****   /* USER CODE END  HAL_PCD_SetupStageCallback_PreTreatment */
 130:USB_Device/Target/usbd_conf.c ****   USBD_LL_SetupStage((USBD_HandleTypeDef*)hpcd->pData, (uint8_t *)hpcd->Setup);
 131:USB_Device/Target/usbd_conf.c ****   /* USER CODE BEGIN HAL_PCD_SetupStageCallback_PostTreatment */
 132:USB_Device/Target/usbd_conf.c **** 
 133:USB_Device/Target/usbd_conf.c ****   /* USER CODE END  HAL_PCD_SetupStageCallback_PostTreatment */
 134:USB_Device/Target/usbd_conf.c **** }
 135:USB_Device/Target/usbd_conf.c **** 
 136:USB_Device/Target/usbd_conf.c **** /**
 137:USB_Device/Target/usbd_conf.c ****   * @brief  Data Out stage callback.
 138:USB_Device/Target/usbd_conf.c ****   * @param  hpcd: PCD handle
 139:USB_Device/Target/usbd_conf.c ****   * @param  epnum: Endpoint number
 140:USB_Device/Target/usbd_conf.c ****   * @retval None
 141:USB_Device/Target/usbd_conf.c ****   */
 142:USB_Device/Target/usbd_conf.c **** #if (USE_HAL_PCD_REGISTER_CALLBACKS == 1U)
 143:USB_Device/Target/usbd_conf.c **** static void PCD_DataOutStageCallback(PCD_HandleTypeDef *hpcd, uint8_t epnum)
 144:USB_Device/Target/usbd_conf.c **** #else
 145:USB_Device/Target/usbd_conf.c **** void HAL_PCD_DataOutStageCallback(PCD_HandleTypeDef *hpcd, uint8_t epnum)
 146:USB_Device/Target/usbd_conf.c **** #endif /* USE_HAL_PCD_REGISTER_CALLBACKS */
ARM GAS  /tmp/ccZpajbM.s 			page 4


 147:USB_Device/Target/usbd_conf.c **** {
 148:USB_Device/Target/usbd_conf.c ****   /* USER CODE BEGIN HAL_PCD_DataOutStageCallback_PreTreatment */
 149:USB_Device/Target/usbd_conf.c **** 
 150:USB_Device/Target/usbd_conf.c ****   /* USER CODE END HAL_PCD_DataOutStageCallback_PreTreatment */
 151:USB_Device/Target/usbd_conf.c ****   USBD_LL_DataOutStage((USBD_HandleTypeDef*)hpcd->pData, epnum, hpcd->OUT_ep[epnum].xfer_buff);
 152:USB_Device/Target/usbd_conf.c ****   /* USER CODE BEGIN HAL_PCD_DataOutStageCallback_PostTreatment */
 153:USB_Device/Target/usbd_conf.c **** 
 154:USB_Device/Target/usbd_conf.c ****   /* USER CODE END HAL_PCD_DataOutStageCallback_PostTreatment */
 155:USB_Device/Target/usbd_conf.c **** }
 156:USB_Device/Target/usbd_conf.c **** 
 157:USB_Device/Target/usbd_conf.c **** /**
 158:USB_Device/Target/usbd_conf.c ****   * @brief  Data In stage callback.
 159:USB_Device/Target/usbd_conf.c ****   * @param  hpcd: PCD handle
 160:USB_Device/Target/usbd_conf.c ****   * @param  epnum: Endpoint number
 161:USB_Device/Target/usbd_conf.c ****   * @retval None
 162:USB_Device/Target/usbd_conf.c ****   */
 163:USB_Device/Target/usbd_conf.c **** #if (USE_HAL_PCD_REGISTER_CALLBACKS == 1U)
 164:USB_Device/Target/usbd_conf.c **** static void PCD_DataInStageCallback(PCD_HandleTypeDef *hpcd, uint8_t epnum)
 165:USB_Device/Target/usbd_conf.c **** #else
 166:USB_Device/Target/usbd_conf.c **** void HAL_PCD_DataInStageCallback(PCD_HandleTypeDef *hpcd, uint8_t epnum)
 167:USB_Device/Target/usbd_conf.c **** #endif /* USE_HAL_PCD_REGISTER_CALLBACKS */
 168:USB_Device/Target/usbd_conf.c **** {
 169:USB_Device/Target/usbd_conf.c ****   /* USER CODE BEGIN HAL_PCD_DataInStageCallback_PreTreatment */
 170:USB_Device/Target/usbd_conf.c **** 
 171:USB_Device/Target/usbd_conf.c ****   /* USER CODE END HAL_PCD_DataInStageCallback_PreTreatment */
 172:USB_Device/Target/usbd_conf.c ****   USBD_LL_DataInStage((USBD_HandleTypeDef*)hpcd->pData, epnum, hpcd->IN_ep[epnum].xfer_buff);
 173:USB_Device/Target/usbd_conf.c ****   /* USER CODE BEGIN HAL_PCD_DataInStageCallback_PostTreatment  */
 174:USB_Device/Target/usbd_conf.c **** 
 175:USB_Device/Target/usbd_conf.c ****   /* USER CODE END HAL_PCD_DataInStageCallback_PostTreatment */
 176:USB_Device/Target/usbd_conf.c **** }
 177:USB_Device/Target/usbd_conf.c **** 
 178:USB_Device/Target/usbd_conf.c **** /**
 179:USB_Device/Target/usbd_conf.c ****   * @brief  SOF callback.
 180:USB_Device/Target/usbd_conf.c ****   * @param  hpcd: PCD handle
 181:USB_Device/Target/usbd_conf.c ****   * @retval None
 182:USB_Device/Target/usbd_conf.c ****   */
 183:USB_Device/Target/usbd_conf.c **** #if (USE_HAL_PCD_REGISTER_CALLBACKS == 1U)
 184:USB_Device/Target/usbd_conf.c **** static void PCD_SOFCallback(PCD_HandleTypeDef *hpcd)
 185:USB_Device/Target/usbd_conf.c **** #else
 186:USB_Device/Target/usbd_conf.c **** void HAL_PCD_SOFCallback(PCD_HandleTypeDef *hpcd)
 187:USB_Device/Target/usbd_conf.c **** #endif /* USE_HAL_PCD_REGISTER_CALLBACKS */
 188:USB_Device/Target/usbd_conf.c **** {
 189:USB_Device/Target/usbd_conf.c ****   /* USER CODE BEGIN HAL_PCD_SOFCallback_PreTreatment */
 190:USB_Device/Target/usbd_conf.c **** 
 191:USB_Device/Target/usbd_conf.c ****   /* USER CODE END HAL_PCD_SOFCallback_PreTreatment */
 192:USB_Device/Target/usbd_conf.c ****   USBD_LL_SOF((USBD_HandleTypeDef*)hpcd->pData);
 193:USB_Device/Target/usbd_conf.c ****   /* USER CODE BEGIN HAL_PCD_SOFCallback_PostTreatment */
 194:USB_Device/Target/usbd_conf.c **** 
 195:USB_Device/Target/usbd_conf.c ****   /* USER CODE END HAL_PCD_SOFCallback_PostTreatment */
 196:USB_Device/Target/usbd_conf.c **** }
 197:USB_Device/Target/usbd_conf.c **** 
 198:USB_Device/Target/usbd_conf.c **** /**
 199:USB_Device/Target/usbd_conf.c ****   * @brief  Reset callback.
 200:USB_Device/Target/usbd_conf.c ****   * @param  hpcd: PCD handle
 201:USB_Device/Target/usbd_conf.c ****   * @retval None
 202:USB_Device/Target/usbd_conf.c ****   */
 203:USB_Device/Target/usbd_conf.c **** #if (USE_HAL_PCD_REGISTER_CALLBACKS == 1U)
ARM GAS  /tmp/ccZpajbM.s 			page 5


 204:USB_Device/Target/usbd_conf.c **** static void PCD_ResetCallback(PCD_HandleTypeDef *hpcd)
 205:USB_Device/Target/usbd_conf.c **** #else
 206:USB_Device/Target/usbd_conf.c **** void HAL_PCD_ResetCallback(PCD_HandleTypeDef *hpcd)
 207:USB_Device/Target/usbd_conf.c **** #endif /* USE_HAL_PCD_REGISTER_CALLBACKS */
 208:USB_Device/Target/usbd_conf.c **** {
 209:USB_Device/Target/usbd_conf.c ****   /* USER CODE BEGIN HAL_PCD_ResetCallback_PreTreatment */
 210:USB_Device/Target/usbd_conf.c **** 
 211:USB_Device/Target/usbd_conf.c ****   /* USER CODE END HAL_PCD_ResetCallback_PreTreatment */
 212:USB_Device/Target/usbd_conf.c ****   USBD_SpeedTypeDef speed = USBD_SPEED_FULL;
 213:USB_Device/Target/usbd_conf.c **** 
 214:USB_Device/Target/usbd_conf.c ****   if ( hpcd->Init.speed != PCD_SPEED_FULL)
 215:USB_Device/Target/usbd_conf.c ****   {
 216:USB_Device/Target/usbd_conf.c ****     Error_Handler();
 217:USB_Device/Target/usbd_conf.c ****   }
 218:USB_Device/Target/usbd_conf.c ****     /* Set Speed. */
 219:USB_Device/Target/usbd_conf.c ****   USBD_LL_SetSpeed((USBD_HandleTypeDef*)hpcd->pData, speed);
 220:USB_Device/Target/usbd_conf.c **** 
 221:USB_Device/Target/usbd_conf.c ****   /* Reset Device. */
 222:USB_Device/Target/usbd_conf.c ****   USBD_LL_Reset((USBD_HandleTypeDef*)hpcd->pData);
 223:USB_Device/Target/usbd_conf.c ****   /* USER CODE BEGIN HAL_PCD_ResetCallback_PostTreatment */
 224:USB_Device/Target/usbd_conf.c **** 
 225:USB_Device/Target/usbd_conf.c ****   /* USER CODE END HAL_PCD_ResetCallback_PostTreatment */
 226:USB_Device/Target/usbd_conf.c **** }
 227:USB_Device/Target/usbd_conf.c **** 
 228:USB_Device/Target/usbd_conf.c **** /**
 229:USB_Device/Target/usbd_conf.c ****   * @brief  Suspend callback.
 230:USB_Device/Target/usbd_conf.c ****   * When Low power mode is enabled the debug cannot be used (IAR, Keil doesn't support it)
 231:USB_Device/Target/usbd_conf.c ****   * @param  hpcd: PCD handle
 232:USB_Device/Target/usbd_conf.c ****   * @retval None
 233:USB_Device/Target/usbd_conf.c ****   */
 234:USB_Device/Target/usbd_conf.c **** #if (USE_HAL_PCD_REGISTER_CALLBACKS == 1U)
 235:USB_Device/Target/usbd_conf.c **** static void PCD_SuspendCallback(PCD_HandleTypeDef *hpcd)
 236:USB_Device/Target/usbd_conf.c **** #else
 237:USB_Device/Target/usbd_conf.c **** void HAL_PCD_SuspendCallback(PCD_HandleTypeDef *hpcd)
 238:USB_Device/Target/usbd_conf.c **** #endif /* USE_HAL_PCD_REGISTER_CALLBACKS */
 239:USB_Device/Target/usbd_conf.c **** {
 240:USB_Device/Target/usbd_conf.c ****   /* USER CODE BEGIN HAL_PCD_SuspendCallback_PreTreatment */
 241:USB_Device/Target/usbd_conf.c **** 
 242:USB_Device/Target/usbd_conf.c ****   /* USER CODE END HAL_PCD_SuspendCallback_PreTreatment */
 243:USB_Device/Target/usbd_conf.c ****   /* Inform USB library that core enters in suspend Mode. */
 244:USB_Device/Target/usbd_conf.c ****   USBD_LL_Suspend((USBD_HandleTypeDef*)hpcd->pData);
 245:USB_Device/Target/usbd_conf.c ****   /* Enter in STOP mode. */
 246:USB_Device/Target/usbd_conf.c ****   /* USER CODE BEGIN 2 */
 247:USB_Device/Target/usbd_conf.c ****   if (hpcd->Init.low_power_enable)
 248:USB_Device/Target/usbd_conf.c ****   {
 249:USB_Device/Target/usbd_conf.c ****     /* Set SLEEPDEEP bit and SleepOnExit of Cortex System Control Register. */
 250:USB_Device/Target/usbd_conf.c ****     SCB->SCR |= (uint32_t)((uint32_t)(SCB_SCR_SLEEPDEEP_Msk | SCB_SCR_SLEEPONEXIT_Msk));
 251:USB_Device/Target/usbd_conf.c ****   }
 252:USB_Device/Target/usbd_conf.c ****   /* USER CODE END 2 */
 253:USB_Device/Target/usbd_conf.c ****   /* USER CODE BEGIN HAL_PCD_SuspendCallback_PostTreatment */
 254:USB_Device/Target/usbd_conf.c **** 
 255:USB_Device/Target/usbd_conf.c ****   /* USER CODE END HAL_PCD_SuspendCallback_PostTreatment */
 256:USB_Device/Target/usbd_conf.c **** }
 257:USB_Device/Target/usbd_conf.c **** 
 258:USB_Device/Target/usbd_conf.c **** /**
 259:USB_Device/Target/usbd_conf.c ****   * @brief  Resume callback.
 260:USB_Device/Target/usbd_conf.c ****   * When Low power mode is enabled the debug cannot be used (IAR, Keil doesn't support it)
ARM GAS  /tmp/ccZpajbM.s 			page 6


 261:USB_Device/Target/usbd_conf.c ****   * @param  hpcd: PCD handle
 262:USB_Device/Target/usbd_conf.c ****   * @retval None
 263:USB_Device/Target/usbd_conf.c ****   */
 264:USB_Device/Target/usbd_conf.c **** #if (USE_HAL_PCD_REGISTER_CALLBACKS == 1U)
 265:USB_Device/Target/usbd_conf.c **** static void PCD_ResumeCallback(PCD_HandleTypeDef *hpcd)
 266:USB_Device/Target/usbd_conf.c **** #else
 267:USB_Device/Target/usbd_conf.c **** void HAL_PCD_ResumeCallback(PCD_HandleTypeDef *hpcd)
 268:USB_Device/Target/usbd_conf.c **** #endif /* USE_HAL_PCD_REGISTER_CALLBACKS */
 269:USB_Device/Target/usbd_conf.c **** {
 270:USB_Device/Target/usbd_conf.c ****   /* USER CODE BEGIN HAL_PCD_ResumeCallback_PreTreatment */
 271:USB_Device/Target/usbd_conf.c **** 
 272:USB_Device/Target/usbd_conf.c ****   /* USER CODE END HAL_PCD_ResumeCallback_PreTreatment */
 273:USB_Device/Target/usbd_conf.c **** 
 274:USB_Device/Target/usbd_conf.c ****   /* USER CODE BEGIN 3 */
 275:USB_Device/Target/usbd_conf.c ****   if (hpcd->Init.low_power_enable)
 276:USB_Device/Target/usbd_conf.c ****   {
 277:USB_Device/Target/usbd_conf.c ****     /* Reset SLEEPDEEP bit of Cortex System Control Register. */
 278:USB_Device/Target/usbd_conf.c ****     SCB->SCR &= (uint32_t)~((uint32_t)(SCB_SCR_SLEEPDEEP_Msk | SCB_SCR_SLEEPONEXIT_Msk));
 279:USB_Device/Target/usbd_conf.c ****     SystemClockConfig_Resume();
 280:USB_Device/Target/usbd_conf.c ****   }
 281:USB_Device/Target/usbd_conf.c ****   /* USER CODE END 3 */
 282:USB_Device/Target/usbd_conf.c **** 
 283:USB_Device/Target/usbd_conf.c ****   USBD_LL_Resume((USBD_HandleTypeDef*)hpcd->pData);
 284:USB_Device/Target/usbd_conf.c ****   /* USER CODE BEGIN HAL_PCD_ResumeCallback_PostTreatment */
 285:USB_Device/Target/usbd_conf.c **** 
 286:USB_Device/Target/usbd_conf.c ****   /* USER CODE END HAL_PCD_ResumeCallback_PostTreatment */
 287:USB_Device/Target/usbd_conf.c **** }
 288:USB_Device/Target/usbd_conf.c **** 
 289:USB_Device/Target/usbd_conf.c **** /**
 290:USB_Device/Target/usbd_conf.c ****   * @brief  ISOOUTIncomplete callback.
 291:USB_Device/Target/usbd_conf.c ****   * @param  hpcd: PCD handle
 292:USB_Device/Target/usbd_conf.c ****   * @param  epnum: Endpoint number
 293:USB_Device/Target/usbd_conf.c ****   * @retval None
 294:USB_Device/Target/usbd_conf.c ****   */
 295:USB_Device/Target/usbd_conf.c **** #if (USE_HAL_PCD_REGISTER_CALLBACKS == 1U)
 296:USB_Device/Target/usbd_conf.c **** static void PCD_ISOOUTIncompleteCallback(PCD_HandleTypeDef *hpcd, uint8_t epnum)
 297:USB_Device/Target/usbd_conf.c **** #else
 298:USB_Device/Target/usbd_conf.c **** void HAL_PCD_ISOOUTIncompleteCallback(PCD_HandleTypeDef *hpcd, uint8_t epnum)
 299:USB_Device/Target/usbd_conf.c **** #endif /* USE_HAL_PCD_REGISTER_CALLBACKS */
 300:USB_Device/Target/usbd_conf.c **** {
 301:USB_Device/Target/usbd_conf.c ****   /* USER CODE BEGIN HAL_PCD_ISOOUTIncompleteCallback_PreTreatment */
 302:USB_Device/Target/usbd_conf.c **** 
 303:USB_Device/Target/usbd_conf.c ****   /* USER CODE END HAL_PCD_ISOOUTIncompleteCallback_PreTreatment */
 304:USB_Device/Target/usbd_conf.c ****   USBD_LL_IsoOUTIncomplete((USBD_HandleTypeDef*)hpcd->pData, epnum);
 305:USB_Device/Target/usbd_conf.c ****   /* USER CODE BEGIN HAL_PCD_ISOOUTIncompleteCallback_PostTreatment */
 306:USB_Device/Target/usbd_conf.c **** 
 307:USB_Device/Target/usbd_conf.c ****   /* USER CODE END HAL_PCD_ISOOUTIncompleteCallback_PostTreatment */
 308:USB_Device/Target/usbd_conf.c **** }
 309:USB_Device/Target/usbd_conf.c **** 
 310:USB_Device/Target/usbd_conf.c **** /**
 311:USB_Device/Target/usbd_conf.c ****   * @brief  ISOINIncomplete callback.
 312:USB_Device/Target/usbd_conf.c ****   * @param  hpcd: PCD handle
 313:USB_Device/Target/usbd_conf.c ****   * @param  epnum: Endpoint number
 314:USB_Device/Target/usbd_conf.c ****   * @retval None
 315:USB_Device/Target/usbd_conf.c ****   */
 316:USB_Device/Target/usbd_conf.c **** #if (USE_HAL_PCD_REGISTER_CALLBACKS == 1U)
 317:USB_Device/Target/usbd_conf.c **** static void PCD_ISOINIncompleteCallback(PCD_HandleTypeDef *hpcd, uint8_t epnum)
ARM GAS  /tmp/ccZpajbM.s 			page 7


 318:USB_Device/Target/usbd_conf.c **** #else
 319:USB_Device/Target/usbd_conf.c **** void HAL_PCD_ISOINIncompleteCallback(PCD_HandleTypeDef *hpcd, uint8_t epnum)
 320:USB_Device/Target/usbd_conf.c **** #endif /* USE_HAL_PCD_REGISTER_CALLBACKS */
 321:USB_Device/Target/usbd_conf.c **** {
 322:USB_Device/Target/usbd_conf.c ****   /* USER CODE BEGIN HAL_PCD_ISOINIncompleteCallback_PreTreatment */
 323:USB_Device/Target/usbd_conf.c **** 
 324:USB_Device/Target/usbd_conf.c ****   /* USER CODE END HAL_PCD_ISOINIncompleteCallback_PreTreatment */
 325:USB_Device/Target/usbd_conf.c ****   USBD_LL_IsoINIncomplete((USBD_HandleTypeDef*)hpcd->pData, epnum);
 326:USB_Device/Target/usbd_conf.c ****   /* USER CODE BEGIN HAL_PCD_ISOINIncompleteCallback_PostTreatment */
 327:USB_Device/Target/usbd_conf.c **** 
 328:USB_Device/Target/usbd_conf.c ****   /* USER CODE END HAL_PCD_ISOINIncompleteCallback_PostTreatment */
 329:USB_Device/Target/usbd_conf.c **** }
 330:USB_Device/Target/usbd_conf.c **** 
 331:USB_Device/Target/usbd_conf.c **** /**
 332:USB_Device/Target/usbd_conf.c ****   * @brief  Connect callback.
 333:USB_Device/Target/usbd_conf.c ****   * @param  hpcd: PCD handle
 334:USB_Device/Target/usbd_conf.c ****   * @retval None
 335:USB_Device/Target/usbd_conf.c ****   */
 336:USB_Device/Target/usbd_conf.c **** #if (USE_HAL_PCD_REGISTER_CALLBACKS == 1U)
 337:USB_Device/Target/usbd_conf.c **** static void PCD_ConnectCallback(PCD_HandleTypeDef *hpcd)
 338:USB_Device/Target/usbd_conf.c **** #else
 339:USB_Device/Target/usbd_conf.c **** void HAL_PCD_ConnectCallback(PCD_HandleTypeDef *hpcd)
 340:USB_Device/Target/usbd_conf.c **** #endif /* USE_HAL_PCD_REGISTER_CALLBACKS */
 341:USB_Device/Target/usbd_conf.c **** {
 342:USB_Device/Target/usbd_conf.c ****   /* USER CODE BEGIN HAL_PCD_ConnectCallback_PreTreatment */
 343:USB_Device/Target/usbd_conf.c **** 
 344:USB_Device/Target/usbd_conf.c ****   /* USER CODE END HAL_PCD_ConnectCallback_PreTreatment */
 345:USB_Device/Target/usbd_conf.c ****   USBD_LL_DevConnected((USBD_HandleTypeDef*)hpcd->pData);
 346:USB_Device/Target/usbd_conf.c ****   /* USER CODE BEGIN HAL_PCD_ConnectCallback_PostTreatment */
 347:USB_Device/Target/usbd_conf.c **** 
 348:USB_Device/Target/usbd_conf.c ****   /* USER CODE END HAL_PCD_ConnectCallback_PostTreatment */
 349:USB_Device/Target/usbd_conf.c **** }
 350:USB_Device/Target/usbd_conf.c **** 
 351:USB_Device/Target/usbd_conf.c **** /**
 352:USB_Device/Target/usbd_conf.c ****   * @brief  Disconnect callback.
 353:USB_Device/Target/usbd_conf.c ****   * @param  hpcd: PCD handle
 354:USB_Device/Target/usbd_conf.c ****   * @retval None
 355:USB_Device/Target/usbd_conf.c ****   */
 356:USB_Device/Target/usbd_conf.c **** #if (USE_HAL_PCD_REGISTER_CALLBACKS == 1U)
 357:USB_Device/Target/usbd_conf.c **** static void PCD_DisconnectCallback(PCD_HandleTypeDef *hpcd)
 358:USB_Device/Target/usbd_conf.c **** #else
 359:USB_Device/Target/usbd_conf.c **** void HAL_PCD_DisconnectCallback(PCD_HandleTypeDef *hpcd)
 360:USB_Device/Target/usbd_conf.c **** #endif /* USE_HAL_PCD_REGISTER_CALLBACKS */
 361:USB_Device/Target/usbd_conf.c **** {
 362:USB_Device/Target/usbd_conf.c ****   /* USER CODE BEGIN HAL_PCD_DisconnectCallback_PreTreatment */
 363:USB_Device/Target/usbd_conf.c **** 
 364:USB_Device/Target/usbd_conf.c ****   /* USER CODE END HAL_PCD_DisconnectCallback_PreTreatment */
 365:USB_Device/Target/usbd_conf.c ****   USBD_LL_DevDisconnected((USBD_HandleTypeDef*)hpcd->pData);
 366:USB_Device/Target/usbd_conf.c ****   /* USER CODE BEGIN HAL_PCD_DisconnectCallback_PostTreatment */
 367:USB_Device/Target/usbd_conf.c **** 
 368:USB_Device/Target/usbd_conf.c ****   /* USER CODE END HAL_PCD_DisconnectCallback_PostTreatment */
 369:USB_Device/Target/usbd_conf.c **** }
 370:USB_Device/Target/usbd_conf.c **** 
 371:USB_Device/Target/usbd_conf.c ****   /* USER CODE BEGIN LowLevelInterface */
 372:USB_Device/Target/usbd_conf.c **** 
 373:USB_Device/Target/usbd_conf.c ****   /* USER CODE END LowLevelInterface */
 374:USB_Device/Target/usbd_conf.c **** 
ARM GAS  /tmp/ccZpajbM.s 			page 8


 375:USB_Device/Target/usbd_conf.c **** /*******************************************************************************
 376:USB_Device/Target/usbd_conf.c ****                        LL Driver Interface (USB Device Library --> PCD)
 377:USB_Device/Target/usbd_conf.c **** *******************************************************************************/
 378:USB_Device/Target/usbd_conf.c **** 
 379:USB_Device/Target/usbd_conf.c **** /**
 380:USB_Device/Target/usbd_conf.c ****   * @brief  Initializes the low level portion of the device driver.
 381:USB_Device/Target/usbd_conf.c ****   * @param  pdev: Device handle
 382:USB_Device/Target/usbd_conf.c ****   * @retval USBD status
 383:USB_Device/Target/usbd_conf.c ****   */
 384:USB_Device/Target/usbd_conf.c **** USBD_StatusTypeDef USBD_LL_Init(USBD_HandleTypeDef *pdev)
 385:USB_Device/Target/usbd_conf.c **** {
 386:USB_Device/Target/usbd_conf.c ****   /* Init USB Ip. */
 387:USB_Device/Target/usbd_conf.c ****   hpcd_USB_FS.pData = pdev;
 388:USB_Device/Target/usbd_conf.c ****   /* Link the driver to the stack. */
 389:USB_Device/Target/usbd_conf.c ****   pdev->pData = &hpcd_USB_FS;
 390:USB_Device/Target/usbd_conf.c **** 
 391:USB_Device/Target/usbd_conf.c ****   hpcd_USB_FS.Instance = USB;
 392:USB_Device/Target/usbd_conf.c ****   hpcd_USB_FS.Init.dev_endpoints = 8;
 393:USB_Device/Target/usbd_conf.c ****   hpcd_USB_FS.Init.speed = PCD_SPEED_FULL;
 394:USB_Device/Target/usbd_conf.c ****   hpcd_USB_FS.Init.phy_itface = PCD_PHY_EMBEDDED;
 395:USB_Device/Target/usbd_conf.c ****   hpcd_USB_FS.Init.Sof_enable = DISABLE;
 396:USB_Device/Target/usbd_conf.c ****   hpcd_USB_FS.Init.low_power_enable = DISABLE;
 397:USB_Device/Target/usbd_conf.c ****   hpcd_USB_FS.Init.lpm_enable = DISABLE;
 398:USB_Device/Target/usbd_conf.c ****   hpcd_USB_FS.Init.battery_charging_enable = DISABLE;
 399:USB_Device/Target/usbd_conf.c **** 
 400:USB_Device/Target/usbd_conf.c ****   #if (USE_HAL_PCD_REGISTER_CALLBACKS == 1U)
 401:USB_Device/Target/usbd_conf.c ****   /* register Msp Callbacks (before the Init) */
 402:USB_Device/Target/usbd_conf.c ****   HAL_PCD_RegisterCallback(&hpcd_USB_FS, HAL_PCD_MSPINIT_CB_ID, PCD_MspInit);
 403:USB_Device/Target/usbd_conf.c ****   HAL_PCD_RegisterCallback(&hpcd_USB_FS, HAL_PCD_MSPDEINIT_CB_ID, PCD_MspDeInit);
 404:USB_Device/Target/usbd_conf.c ****   #endif /* USE_HAL_PCD_REGISTER_CALLBACKS */
 405:USB_Device/Target/usbd_conf.c **** 
 406:USB_Device/Target/usbd_conf.c ****   if (HAL_PCD_Init(&hpcd_USB_FS) != HAL_OK)
 407:USB_Device/Target/usbd_conf.c ****   {
 408:USB_Device/Target/usbd_conf.c ****     Error_Handler( );
 409:USB_Device/Target/usbd_conf.c ****   }
 410:USB_Device/Target/usbd_conf.c **** 
 411:USB_Device/Target/usbd_conf.c **** #if (USE_HAL_PCD_REGISTER_CALLBACKS == 1U)
 412:USB_Device/Target/usbd_conf.c ****   /* Register USB PCD CallBacks */
 413:USB_Device/Target/usbd_conf.c ****   HAL_PCD_RegisterCallback(&hpcd_USB_FS, HAL_PCD_SOF_CB_ID, PCD_SOFCallback);
 414:USB_Device/Target/usbd_conf.c ****   HAL_PCD_RegisterCallback(&hpcd_USB_FS, HAL_PCD_SETUPSTAGE_CB_ID, PCD_SetupStageCallback);
 415:USB_Device/Target/usbd_conf.c ****   HAL_PCD_RegisterCallback(&hpcd_USB_FS, HAL_PCD_RESET_CB_ID, PCD_ResetCallback);
 416:USB_Device/Target/usbd_conf.c ****   HAL_PCD_RegisterCallback(&hpcd_USB_FS, HAL_PCD_SUSPEND_CB_ID, PCD_SuspendCallback);
 417:USB_Device/Target/usbd_conf.c ****   HAL_PCD_RegisterCallback(&hpcd_USB_FS, HAL_PCD_RESUME_CB_ID, PCD_ResumeCallback);
 418:USB_Device/Target/usbd_conf.c ****   HAL_PCD_RegisterCallback(&hpcd_USB_FS, HAL_PCD_CONNECT_CB_ID, PCD_ConnectCallback);
 419:USB_Device/Target/usbd_conf.c ****   HAL_PCD_RegisterCallback(&hpcd_USB_FS, HAL_PCD_DISCONNECT_CB_ID, PCD_DisconnectCallback);
 420:USB_Device/Target/usbd_conf.c ****   /* USER CODE BEGIN RegisterCallBackFirstPart */
 421:USB_Device/Target/usbd_conf.c **** 
 422:USB_Device/Target/usbd_conf.c ****   /* USER CODE END RegisterCallBackFirstPart */
 423:USB_Device/Target/usbd_conf.c ****   HAL_PCD_RegisterLpmCallback(&hpcd_USB_FS, PCDEx_LPM_Callback);
 424:USB_Device/Target/usbd_conf.c ****   HAL_PCD_RegisterDataOutStageCallback(&hpcd_USB_FS, PCD_DataOutStageCallback);
 425:USB_Device/Target/usbd_conf.c ****   HAL_PCD_RegisterDataInStageCallback(&hpcd_USB_FS, PCD_DataInStageCallback);
 426:USB_Device/Target/usbd_conf.c ****   HAL_PCD_RegisterIsoOutIncpltCallback(&hpcd_USB_FS, PCD_ISOOUTIncompleteCallback);
 427:USB_Device/Target/usbd_conf.c ****   HAL_PCD_RegisterIsoInIncpltCallback(&hpcd_USB_FS, PCD_ISOINIncompleteCallback);
 428:USB_Device/Target/usbd_conf.c ****   /* USER CODE BEGIN RegisterCallBackSecondPart */
 429:USB_Device/Target/usbd_conf.c **** 
 430:USB_Device/Target/usbd_conf.c ****   /* USER CODE END RegisterCallBackSecondPart */
 431:USB_Device/Target/usbd_conf.c **** #endif /* USE_HAL_PCD_REGISTER_CALLBACKS */
ARM GAS  /tmp/ccZpajbM.s 			page 9


 432:USB_Device/Target/usbd_conf.c ****   /* USER CODE BEGIN EndPoint_Configuration */
 433:USB_Device/Target/usbd_conf.c ****   HAL_PCDEx_PMAConfig((PCD_HandleTypeDef*)pdev->pData , 0x00 , PCD_SNG_BUF, 0x18);
 434:USB_Device/Target/usbd_conf.c ****   HAL_PCDEx_PMAConfig((PCD_HandleTypeDef*)pdev->pData , 0x80 , PCD_SNG_BUF, 0x58);
 435:USB_Device/Target/usbd_conf.c ****   /* USER CODE END EndPoint_Configuration */
 436:USB_Device/Target/usbd_conf.c ****   /* USER CODE BEGIN EndPoint_Configuration_CDC */
 437:USB_Device/Target/usbd_conf.c ****   HAL_PCDEx_PMAConfig((PCD_HandleTypeDef*)pdev->pData , 0x81 , PCD_SNG_BUF, 0xC0);
 438:USB_Device/Target/usbd_conf.c ****   HAL_PCDEx_PMAConfig((PCD_HandleTypeDef*)pdev->pData , 0x01 , PCD_SNG_BUF, 0x110);
 439:USB_Device/Target/usbd_conf.c ****   HAL_PCDEx_PMAConfig((PCD_HandleTypeDef*)pdev->pData , 0x82 , PCD_SNG_BUF, 0x100);
 440:USB_Device/Target/usbd_conf.c ****   /* USER CODE END EndPoint_Configuration_CDC */
 441:USB_Device/Target/usbd_conf.c ****   return USBD_OK;
 442:USB_Device/Target/usbd_conf.c **** }
 443:USB_Device/Target/usbd_conf.c **** 
 444:USB_Device/Target/usbd_conf.c **** /**
 445:USB_Device/Target/usbd_conf.c ****   * @brief  De-Initializes the low level portion of the device driver.
 446:USB_Device/Target/usbd_conf.c ****   * @param  pdev: Device handle
 447:USB_Device/Target/usbd_conf.c ****   * @retval USBD status
 448:USB_Device/Target/usbd_conf.c ****   */
 449:USB_Device/Target/usbd_conf.c **** USBD_StatusTypeDef USBD_LL_DeInit(USBD_HandleTypeDef *pdev)
 450:USB_Device/Target/usbd_conf.c **** {
 451:USB_Device/Target/usbd_conf.c ****   HAL_StatusTypeDef hal_status = HAL_OK;
 452:USB_Device/Target/usbd_conf.c ****   USBD_StatusTypeDef usb_status = USBD_OK;
 453:USB_Device/Target/usbd_conf.c **** 
 454:USB_Device/Target/usbd_conf.c ****   hal_status = HAL_PCD_DeInit(pdev->pData);
 455:USB_Device/Target/usbd_conf.c **** 
 456:USB_Device/Target/usbd_conf.c ****   usb_status =  USBD_Get_USB_Status(hal_status);
 457:USB_Device/Target/usbd_conf.c **** 
 458:USB_Device/Target/usbd_conf.c ****   return usb_status;
 459:USB_Device/Target/usbd_conf.c **** }
 460:USB_Device/Target/usbd_conf.c **** 
 461:USB_Device/Target/usbd_conf.c **** /**
 462:USB_Device/Target/usbd_conf.c ****   * @brief  Starts the low level portion of the device driver.
 463:USB_Device/Target/usbd_conf.c ****   * @param  pdev: Device handle
 464:USB_Device/Target/usbd_conf.c ****   * @retval USBD status
 465:USB_Device/Target/usbd_conf.c ****   */
 466:USB_Device/Target/usbd_conf.c **** USBD_StatusTypeDef USBD_LL_Start(USBD_HandleTypeDef *pdev)
 467:USB_Device/Target/usbd_conf.c **** {
 468:USB_Device/Target/usbd_conf.c ****   HAL_StatusTypeDef hal_status = HAL_OK;
 469:USB_Device/Target/usbd_conf.c ****   USBD_StatusTypeDef usb_status = USBD_OK;
 470:USB_Device/Target/usbd_conf.c **** 
 471:USB_Device/Target/usbd_conf.c ****   hal_status = HAL_PCD_Start(pdev->pData);
 472:USB_Device/Target/usbd_conf.c **** 
 473:USB_Device/Target/usbd_conf.c ****   usb_status =  USBD_Get_USB_Status(hal_status);
 474:USB_Device/Target/usbd_conf.c **** 
 475:USB_Device/Target/usbd_conf.c ****   return usb_status;
 476:USB_Device/Target/usbd_conf.c **** }
 477:USB_Device/Target/usbd_conf.c **** 
 478:USB_Device/Target/usbd_conf.c **** /**
 479:USB_Device/Target/usbd_conf.c ****   * @brief  Stops the low level portion of the device driver.
 480:USB_Device/Target/usbd_conf.c ****   * @param  pdev: Device handle
 481:USB_Device/Target/usbd_conf.c ****   * @retval USBD status
 482:USB_Device/Target/usbd_conf.c ****   */
 483:USB_Device/Target/usbd_conf.c **** USBD_StatusTypeDef USBD_LL_Stop(USBD_HandleTypeDef *pdev)
 484:USB_Device/Target/usbd_conf.c **** {
 485:USB_Device/Target/usbd_conf.c ****   HAL_StatusTypeDef hal_status = HAL_OK;
 486:USB_Device/Target/usbd_conf.c ****   USBD_StatusTypeDef usb_status = USBD_OK;
 487:USB_Device/Target/usbd_conf.c **** 
 488:USB_Device/Target/usbd_conf.c ****   hal_status = HAL_PCD_Stop(pdev->pData);
ARM GAS  /tmp/ccZpajbM.s 			page 10


 489:USB_Device/Target/usbd_conf.c **** 
 490:USB_Device/Target/usbd_conf.c ****   usb_status =  USBD_Get_USB_Status(hal_status);
 491:USB_Device/Target/usbd_conf.c **** 
 492:USB_Device/Target/usbd_conf.c ****   return usb_status;
 493:USB_Device/Target/usbd_conf.c **** }
 494:USB_Device/Target/usbd_conf.c **** 
 495:USB_Device/Target/usbd_conf.c **** /**
 496:USB_Device/Target/usbd_conf.c ****   * @brief  Opens an endpoint of the low level driver.
 497:USB_Device/Target/usbd_conf.c ****   * @param  pdev: Device handle
 498:USB_Device/Target/usbd_conf.c ****   * @param  ep_addr: Endpoint number
 499:USB_Device/Target/usbd_conf.c ****   * @param  ep_type: Endpoint type
 500:USB_Device/Target/usbd_conf.c ****   * @param  ep_mps: Endpoint max packet size
 501:USB_Device/Target/usbd_conf.c ****   * @retval USBD status
 502:USB_Device/Target/usbd_conf.c ****   */
 503:USB_Device/Target/usbd_conf.c **** USBD_StatusTypeDef USBD_LL_OpenEP(USBD_HandleTypeDef *pdev, uint8_t ep_addr, uint8_t ep_type, uint1
 504:USB_Device/Target/usbd_conf.c **** {
 505:USB_Device/Target/usbd_conf.c ****   HAL_StatusTypeDef hal_status = HAL_OK;
 506:USB_Device/Target/usbd_conf.c ****   USBD_StatusTypeDef usb_status = USBD_OK;
 507:USB_Device/Target/usbd_conf.c **** 
 508:USB_Device/Target/usbd_conf.c ****   hal_status = HAL_PCD_EP_Open(pdev->pData, ep_addr, ep_mps, ep_type);
 509:USB_Device/Target/usbd_conf.c **** 
 510:USB_Device/Target/usbd_conf.c ****   usb_status =  USBD_Get_USB_Status(hal_status);
 511:USB_Device/Target/usbd_conf.c **** 
 512:USB_Device/Target/usbd_conf.c ****   return usb_status;
 513:USB_Device/Target/usbd_conf.c **** }
 514:USB_Device/Target/usbd_conf.c **** 
 515:USB_Device/Target/usbd_conf.c **** /**
 516:USB_Device/Target/usbd_conf.c ****   * @brief  Closes an endpoint of the low level driver.
 517:USB_Device/Target/usbd_conf.c ****   * @param  pdev: Device handle
 518:USB_Device/Target/usbd_conf.c ****   * @param  ep_addr: Endpoint number
 519:USB_Device/Target/usbd_conf.c ****   * @retval USBD status
 520:USB_Device/Target/usbd_conf.c ****   */
 521:USB_Device/Target/usbd_conf.c **** USBD_StatusTypeDef USBD_LL_CloseEP(USBD_HandleTypeDef *pdev, uint8_t ep_addr)
 522:USB_Device/Target/usbd_conf.c **** {
 523:USB_Device/Target/usbd_conf.c ****   HAL_StatusTypeDef hal_status = HAL_OK;
 524:USB_Device/Target/usbd_conf.c ****   USBD_StatusTypeDef usb_status = USBD_OK;
 525:USB_Device/Target/usbd_conf.c **** 
 526:USB_Device/Target/usbd_conf.c ****   hal_status = HAL_PCD_EP_Close(pdev->pData, ep_addr);
 527:USB_Device/Target/usbd_conf.c **** 
 528:USB_Device/Target/usbd_conf.c ****   usb_status =  USBD_Get_USB_Status(hal_status);
 529:USB_Device/Target/usbd_conf.c **** 
 530:USB_Device/Target/usbd_conf.c ****   return usb_status;
 531:USB_Device/Target/usbd_conf.c **** }
 532:USB_Device/Target/usbd_conf.c **** 
 533:USB_Device/Target/usbd_conf.c **** /**
 534:USB_Device/Target/usbd_conf.c ****   * @brief  Flushes an endpoint of the Low Level Driver.
 535:USB_Device/Target/usbd_conf.c ****   * @param  pdev: Device handle
 536:USB_Device/Target/usbd_conf.c ****   * @param  ep_addr: Endpoint number
 537:USB_Device/Target/usbd_conf.c ****   * @retval USBD status
 538:USB_Device/Target/usbd_conf.c ****   */
 539:USB_Device/Target/usbd_conf.c **** USBD_StatusTypeDef USBD_LL_FlushEP(USBD_HandleTypeDef *pdev, uint8_t ep_addr)
 540:USB_Device/Target/usbd_conf.c **** {
 541:USB_Device/Target/usbd_conf.c ****   HAL_StatusTypeDef hal_status = HAL_OK;
 542:USB_Device/Target/usbd_conf.c ****   USBD_StatusTypeDef usb_status = USBD_OK;
 543:USB_Device/Target/usbd_conf.c **** 
 544:USB_Device/Target/usbd_conf.c ****   hal_status = HAL_PCD_EP_Flush(pdev->pData, ep_addr);
 545:USB_Device/Target/usbd_conf.c **** 
ARM GAS  /tmp/ccZpajbM.s 			page 11


 546:USB_Device/Target/usbd_conf.c ****   usb_status =  USBD_Get_USB_Status(hal_status);
 547:USB_Device/Target/usbd_conf.c **** 
 548:USB_Device/Target/usbd_conf.c ****   return usb_status;
 549:USB_Device/Target/usbd_conf.c **** }
 550:USB_Device/Target/usbd_conf.c **** 
 551:USB_Device/Target/usbd_conf.c **** /**
 552:USB_Device/Target/usbd_conf.c ****   * @brief  Sets a Stall condition on an endpoint of the Low Level Driver.
 553:USB_Device/Target/usbd_conf.c ****   * @param  pdev: Device handle
 554:USB_Device/Target/usbd_conf.c ****   * @param  ep_addr: Endpoint number
 555:USB_Device/Target/usbd_conf.c ****   * @retval USBD status
 556:USB_Device/Target/usbd_conf.c ****   */
 557:USB_Device/Target/usbd_conf.c **** USBD_StatusTypeDef USBD_LL_StallEP(USBD_HandleTypeDef *pdev, uint8_t ep_addr)
 558:USB_Device/Target/usbd_conf.c **** {
 559:USB_Device/Target/usbd_conf.c ****   HAL_StatusTypeDef hal_status = HAL_OK;
 560:USB_Device/Target/usbd_conf.c ****   USBD_StatusTypeDef usb_status = USBD_OK;
 561:USB_Device/Target/usbd_conf.c **** 
 562:USB_Device/Target/usbd_conf.c ****   hal_status = HAL_PCD_EP_SetStall(pdev->pData, ep_addr);
 563:USB_Device/Target/usbd_conf.c **** 
 564:USB_Device/Target/usbd_conf.c ****   usb_status =  USBD_Get_USB_Status(hal_status);
 565:USB_Device/Target/usbd_conf.c **** 
 566:USB_Device/Target/usbd_conf.c ****   return usb_status;
 567:USB_Device/Target/usbd_conf.c **** }
 568:USB_Device/Target/usbd_conf.c **** 
 569:USB_Device/Target/usbd_conf.c **** /**
 570:USB_Device/Target/usbd_conf.c ****   * @brief  Clears a Stall condition on an endpoint of the Low Level Driver.
 571:USB_Device/Target/usbd_conf.c ****   * @param  pdev: Device handle
 572:USB_Device/Target/usbd_conf.c ****   * @param  ep_addr: Endpoint number
 573:USB_Device/Target/usbd_conf.c ****   * @retval USBD status
 574:USB_Device/Target/usbd_conf.c ****   */
 575:USB_Device/Target/usbd_conf.c **** USBD_StatusTypeDef USBD_LL_ClearStallEP(USBD_HandleTypeDef *pdev, uint8_t ep_addr)
 576:USB_Device/Target/usbd_conf.c **** {
 577:USB_Device/Target/usbd_conf.c ****   HAL_StatusTypeDef hal_status = HAL_OK;
 578:USB_Device/Target/usbd_conf.c ****   USBD_StatusTypeDef usb_status = USBD_OK;
 579:USB_Device/Target/usbd_conf.c **** 
 580:USB_Device/Target/usbd_conf.c ****   hal_status = HAL_PCD_EP_ClrStall(pdev->pData, ep_addr);
 581:USB_Device/Target/usbd_conf.c **** 
 582:USB_Device/Target/usbd_conf.c ****   usb_status =  USBD_Get_USB_Status(hal_status);
 583:USB_Device/Target/usbd_conf.c **** 
 584:USB_Device/Target/usbd_conf.c ****   return usb_status;
 585:USB_Device/Target/usbd_conf.c **** }
 586:USB_Device/Target/usbd_conf.c **** 
 587:USB_Device/Target/usbd_conf.c **** /**
 588:USB_Device/Target/usbd_conf.c ****   * @brief  Returns Stall condition.
 589:USB_Device/Target/usbd_conf.c ****   * @param  pdev: Device handle
 590:USB_Device/Target/usbd_conf.c ****   * @param  ep_addr: Endpoint number
 591:USB_Device/Target/usbd_conf.c ****   * @retval Stall (1: Yes, 0: No)
 592:USB_Device/Target/usbd_conf.c ****   */
 593:USB_Device/Target/usbd_conf.c **** uint8_t USBD_LL_IsStallEP(USBD_HandleTypeDef *pdev, uint8_t ep_addr)
 594:USB_Device/Target/usbd_conf.c **** {
 595:USB_Device/Target/usbd_conf.c ****   PCD_HandleTypeDef *hpcd = (PCD_HandleTypeDef*) pdev->pData;
 596:USB_Device/Target/usbd_conf.c **** 
 597:USB_Device/Target/usbd_conf.c ****   if((ep_addr & 0x80) == 0x80)
 598:USB_Device/Target/usbd_conf.c ****   {
 599:USB_Device/Target/usbd_conf.c ****     return hpcd->IN_ep[ep_addr & 0x7F].is_stall;
 600:USB_Device/Target/usbd_conf.c ****   }
 601:USB_Device/Target/usbd_conf.c ****   else
 602:USB_Device/Target/usbd_conf.c ****   {
ARM GAS  /tmp/ccZpajbM.s 			page 12


 603:USB_Device/Target/usbd_conf.c ****     return hpcd->OUT_ep[ep_addr & 0x7F].is_stall;
 604:USB_Device/Target/usbd_conf.c ****   }
 605:USB_Device/Target/usbd_conf.c **** }
 606:USB_Device/Target/usbd_conf.c **** 
 607:USB_Device/Target/usbd_conf.c **** /**
 608:USB_Device/Target/usbd_conf.c ****   * @brief  Assigns a USB address to the device.
 609:USB_Device/Target/usbd_conf.c ****   * @param  pdev: Device handle
 610:USB_Device/Target/usbd_conf.c ****   * @param  dev_addr: Device address
 611:USB_Device/Target/usbd_conf.c ****   * @retval USBD status
 612:USB_Device/Target/usbd_conf.c ****   */
 613:USB_Device/Target/usbd_conf.c **** USBD_StatusTypeDef USBD_LL_SetUSBAddress(USBD_HandleTypeDef *pdev, uint8_t dev_addr)
 614:USB_Device/Target/usbd_conf.c **** {
 615:USB_Device/Target/usbd_conf.c ****   HAL_StatusTypeDef hal_status = HAL_OK;
 616:USB_Device/Target/usbd_conf.c ****   USBD_StatusTypeDef usb_status = USBD_OK;
 617:USB_Device/Target/usbd_conf.c **** 
 618:USB_Device/Target/usbd_conf.c ****   hal_status = HAL_PCD_SetAddress(pdev->pData, dev_addr);
 619:USB_Device/Target/usbd_conf.c **** 
 620:USB_Device/Target/usbd_conf.c ****   usb_status =  USBD_Get_USB_Status(hal_status);
 621:USB_Device/Target/usbd_conf.c **** 
 622:USB_Device/Target/usbd_conf.c ****   return usb_status;
 623:USB_Device/Target/usbd_conf.c **** }
 624:USB_Device/Target/usbd_conf.c **** 
 625:USB_Device/Target/usbd_conf.c **** /**
 626:USB_Device/Target/usbd_conf.c ****   * @brief  Transmits data over an endpoint.
 627:USB_Device/Target/usbd_conf.c ****   * @param  pdev: Device handle
 628:USB_Device/Target/usbd_conf.c ****   * @param  ep_addr: Endpoint number
 629:USB_Device/Target/usbd_conf.c ****   * @param  pbuf: Pointer to data to be sent
 630:USB_Device/Target/usbd_conf.c ****   * @param  size: Data size
 631:USB_Device/Target/usbd_conf.c ****   * @retval USBD status
 632:USB_Device/Target/usbd_conf.c ****   */
 633:USB_Device/Target/usbd_conf.c **** USBD_StatusTypeDef USBD_LL_Transmit(USBD_HandleTypeDef *pdev, uint8_t ep_addr, uint8_t *pbuf, uint3
 634:USB_Device/Target/usbd_conf.c **** {
 635:USB_Device/Target/usbd_conf.c ****   HAL_StatusTypeDef hal_status = HAL_OK;
 636:USB_Device/Target/usbd_conf.c ****   USBD_StatusTypeDef usb_status = USBD_OK;
 637:USB_Device/Target/usbd_conf.c **** 
 638:USB_Device/Target/usbd_conf.c ****   hal_status = HAL_PCD_EP_Transmit(pdev->pData, ep_addr, pbuf, size);
 639:USB_Device/Target/usbd_conf.c **** 
 640:USB_Device/Target/usbd_conf.c ****   usb_status =  USBD_Get_USB_Status(hal_status);
 641:USB_Device/Target/usbd_conf.c **** 
 642:USB_Device/Target/usbd_conf.c ****   return usb_status;
 643:USB_Device/Target/usbd_conf.c **** }
 644:USB_Device/Target/usbd_conf.c **** 
 645:USB_Device/Target/usbd_conf.c **** /**
 646:USB_Device/Target/usbd_conf.c ****   * @brief  Prepares an endpoint for reception.
 647:USB_Device/Target/usbd_conf.c ****   * @param  pdev: Device handle
 648:USB_Device/Target/usbd_conf.c ****   * @param  ep_addr: Endpoint number
 649:USB_Device/Target/usbd_conf.c ****   * @param  pbuf: Pointer to data to be received
 650:USB_Device/Target/usbd_conf.c ****   * @param  size: Data size
 651:USB_Device/Target/usbd_conf.c ****   * @retval USBD status
 652:USB_Device/Target/usbd_conf.c ****   */
 653:USB_Device/Target/usbd_conf.c **** USBD_StatusTypeDef USBD_LL_PrepareReceive(USBD_HandleTypeDef *pdev, uint8_t ep_addr, uint8_t *pbuf,
 654:USB_Device/Target/usbd_conf.c **** {
 655:USB_Device/Target/usbd_conf.c ****   HAL_StatusTypeDef hal_status = HAL_OK;
 656:USB_Device/Target/usbd_conf.c ****   USBD_StatusTypeDef usb_status = USBD_OK;
 657:USB_Device/Target/usbd_conf.c **** 
 658:USB_Device/Target/usbd_conf.c ****   hal_status = HAL_PCD_EP_Receive(pdev->pData, ep_addr, pbuf, size);
 659:USB_Device/Target/usbd_conf.c **** 
ARM GAS  /tmp/ccZpajbM.s 			page 13


 660:USB_Device/Target/usbd_conf.c ****   usb_status =  USBD_Get_USB_Status(hal_status);
 661:USB_Device/Target/usbd_conf.c **** 
 662:USB_Device/Target/usbd_conf.c ****   return usb_status;
 663:USB_Device/Target/usbd_conf.c **** }
 664:USB_Device/Target/usbd_conf.c **** 
 665:USB_Device/Target/usbd_conf.c **** /**
 666:USB_Device/Target/usbd_conf.c ****   * @brief  Returns the last transfered packet size.
 667:USB_Device/Target/usbd_conf.c ****   * @param  pdev: Device handle
 668:USB_Device/Target/usbd_conf.c ****   * @param  ep_addr: Endpoint number
 669:USB_Device/Target/usbd_conf.c ****   * @retval Recived Data Size
 670:USB_Device/Target/usbd_conf.c ****   */
 671:USB_Device/Target/usbd_conf.c **** uint32_t USBD_LL_GetRxDataSize(USBD_HandleTypeDef *pdev, uint8_t ep_addr)
 672:USB_Device/Target/usbd_conf.c **** {
 673:USB_Device/Target/usbd_conf.c ****   return HAL_PCD_EP_GetRxCount((PCD_HandleTypeDef*) pdev->pData, ep_addr);
 674:USB_Device/Target/usbd_conf.c **** }
 675:USB_Device/Target/usbd_conf.c **** 
 676:USB_Device/Target/usbd_conf.c **** /**
 677:USB_Device/Target/usbd_conf.c ****   * @brief  Send LPM message to user layer
 678:USB_Device/Target/usbd_conf.c ****   * @param  hpcd: PCD handle
 679:USB_Device/Target/usbd_conf.c ****   * @param  msg: LPM message
 680:USB_Device/Target/usbd_conf.c ****   * @retval None
 681:USB_Device/Target/usbd_conf.c ****   */
 682:USB_Device/Target/usbd_conf.c **** #if (USE_HAL_PCD_REGISTER_CALLBACKS == 1U)
 683:USB_Device/Target/usbd_conf.c **** static void PCDEx_LPM_Callback(PCD_HandleTypeDef *hpcd, PCD_LPM_MsgTypeDef msg)
 684:USB_Device/Target/usbd_conf.c **** #else
 685:USB_Device/Target/usbd_conf.c **** void HAL_PCDEx_LPM_Callback(PCD_HandleTypeDef *hpcd, PCD_LPM_MsgTypeDef msg)
 686:USB_Device/Target/usbd_conf.c **** #endif /* USE_HAL_PCD_REGISTER_CALLBACKS */
 687:USB_Device/Target/usbd_conf.c **** {
 688:USB_Device/Target/usbd_conf.c ****   /* USER CODE BEGIN LPM_Callback */
 689:USB_Device/Target/usbd_conf.c ****   switch (msg)
 690:USB_Device/Target/usbd_conf.c ****   {
 691:USB_Device/Target/usbd_conf.c ****   case PCD_LPM_L0_ACTIVE:
 692:USB_Device/Target/usbd_conf.c ****     if (hpcd->Init.low_power_enable)
 693:USB_Device/Target/usbd_conf.c ****     {
 694:USB_Device/Target/usbd_conf.c ****       SystemClockConfig_Resume();
 695:USB_Device/Target/usbd_conf.c **** 
 696:USB_Device/Target/usbd_conf.c ****       /* Reset SLEEPDEEP bit of Cortex System Control Register. */
 697:USB_Device/Target/usbd_conf.c ****       SCB->SCR &= (uint32_t)~((uint32_t)(SCB_SCR_SLEEPDEEP_Msk | SCB_SCR_SLEEPONEXIT_Msk));
 698:USB_Device/Target/usbd_conf.c ****     }
 699:USB_Device/Target/usbd_conf.c ****     USBD_LL_Resume(hpcd->pData);
 700:USB_Device/Target/usbd_conf.c ****     break;
 701:USB_Device/Target/usbd_conf.c **** 
 702:USB_Device/Target/usbd_conf.c ****   case PCD_LPM_L1_ACTIVE:
 703:USB_Device/Target/usbd_conf.c ****     USBD_LL_Suspend(hpcd->pData);
 704:USB_Device/Target/usbd_conf.c **** 
 705:USB_Device/Target/usbd_conf.c ****     /* Enter in STOP mode. */
 706:USB_Device/Target/usbd_conf.c ****     if (hpcd->Init.low_power_enable)
 707:USB_Device/Target/usbd_conf.c ****     {
 708:USB_Device/Target/usbd_conf.c ****       /* Set SLEEPDEEP bit and SleepOnExit of Cortex System Control Register. */
 709:USB_Device/Target/usbd_conf.c ****       SCB->SCR |= (uint32_t)((uint32_t)(SCB_SCR_SLEEPDEEP_Msk | SCB_SCR_SLEEPONEXIT_Msk));
 710:USB_Device/Target/usbd_conf.c ****     }
 711:USB_Device/Target/usbd_conf.c ****     break;
 712:USB_Device/Target/usbd_conf.c ****   }
 713:USB_Device/Target/usbd_conf.c ****   /* USER CODE END LPM_Callback */
 714:USB_Device/Target/usbd_conf.c **** }
 715:USB_Device/Target/usbd_conf.c **** 
 716:USB_Device/Target/usbd_conf.c **** /**
ARM GAS  /tmp/ccZpajbM.s 			page 14


 717:USB_Device/Target/usbd_conf.c ****   * @brief  Delays routine for the USB Device Library.
 718:USB_Device/Target/usbd_conf.c ****   * @param  Delay: Delay in ms
 719:USB_Device/Target/usbd_conf.c ****   * @retval None
 720:USB_Device/Target/usbd_conf.c ****   */
 721:USB_Device/Target/usbd_conf.c **** void USBD_LL_Delay(uint32_t Delay)
 722:USB_Device/Target/usbd_conf.c **** {
 723:USB_Device/Target/usbd_conf.c ****   HAL_Delay(Delay);
 724:USB_Device/Target/usbd_conf.c **** }
 725:USB_Device/Target/usbd_conf.c **** 
 726:USB_Device/Target/usbd_conf.c **** /**
 727:USB_Device/Target/usbd_conf.c ****   * @brief  Static single allocation.
 728:USB_Device/Target/usbd_conf.c ****   * @param  size: Size of allocated memory
 729:USB_Device/Target/usbd_conf.c ****   * @retval None
 730:USB_Device/Target/usbd_conf.c ****   */
 731:USB_Device/Target/usbd_conf.c **** void *USBD_static_malloc(uint32_t size)
 732:USB_Device/Target/usbd_conf.c **** {
 733:USB_Device/Target/usbd_conf.c ****   static uint32_t mem[(sizeof(USBD_CDC_HandleTypeDef)/4)+1];/* On 32-bit boundary */
 734:USB_Device/Target/usbd_conf.c ****   return mem;
 735:USB_Device/Target/usbd_conf.c **** }
 736:USB_Device/Target/usbd_conf.c **** 
 737:USB_Device/Target/usbd_conf.c **** /**
 738:USB_Device/Target/usbd_conf.c ****   * @brief  Dummy memory free
 739:USB_Device/Target/usbd_conf.c ****   * @param  p: Pointer to allocated  memory address
 740:USB_Device/Target/usbd_conf.c ****   * @retval None
 741:USB_Device/Target/usbd_conf.c ****   */
 742:USB_Device/Target/usbd_conf.c **** void USBD_static_free(void *p)
 743:USB_Device/Target/usbd_conf.c **** {
 744:USB_Device/Target/usbd_conf.c **** 
 745:USB_Device/Target/usbd_conf.c **** }
 746:USB_Device/Target/usbd_conf.c **** 
 747:USB_Device/Target/usbd_conf.c **** /* USER CODE BEGIN 5 */
 748:USB_Device/Target/usbd_conf.c **** /**
 749:USB_Device/Target/usbd_conf.c ****   * @brief  Configures system clock after wake-up from USB resume callBack:
 750:USB_Device/Target/usbd_conf.c ****   *         enable HSI, PLL and select PLL as system clock source.
 751:USB_Device/Target/usbd_conf.c ****   * @retval None
 752:USB_Device/Target/usbd_conf.c ****   */
 753:USB_Device/Target/usbd_conf.c **** static void SystemClockConfig_Resume(void)
 754:USB_Device/Target/usbd_conf.c **** {
 755:USB_Device/Target/usbd_conf.c ****   SystemClock_Config();
 756:USB_Device/Target/usbd_conf.c **** }
 757:USB_Device/Target/usbd_conf.c **** /* USER CODE END 5 */
 758:USB_Device/Target/usbd_conf.c **** 
 759:USB_Device/Target/usbd_conf.c **** /**
 760:USB_Device/Target/usbd_conf.c ****   * @brief  Retuns the USB status depending on the HAL status:
 761:USB_Device/Target/usbd_conf.c ****   * @param  hal_status: HAL status
 762:USB_Device/Target/usbd_conf.c ****   * @retval USB status
 763:USB_Device/Target/usbd_conf.c ****   */
 764:USB_Device/Target/usbd_conf.c **** USBD_StatusTypeDef USBD_Get_USB_Status(HAL_StatusTypeDef hal_status)
 765:USB_Device/Target/usbd_conf.c **** {
  27              		.loc 1 765 0
  28              		.cfi_startproc
  29              		@ args = 0, pretend = 0, frame = 0
  30              		@ frame_needed = 0, uses_anonymous_args = 0
  31              		@ link register save eliminated.
  32              	.LVL0:
 766:USB_Device/Target/usbd_conf.c ****   USBD_StatusTypeDef usb_status = USBD_OK;
 767:USB_Device/Target/usbd_conf.c **** 
ARM GAS  /tmp/ccZpajbM.s 			page 15


 768:USB_Device/Target/usbd_conf.c ****   switch (hal_status)
  33              		.loc 1 768 0
  34 0000 18B1     		cbz	r0, .L3
  35 0002 0228     		cmp	r0, #2
  36 0004 03D0     		beq	.L4
 769:USB_Device/Target/usbd_conf.c ****   {
 770:USB_Device/Target/usbd_conf.c ****     case HAL_OK :
 771:USB_Device/Target/usbd_conf.c ****       usb_status = USBD_OK;
 772:USB_Device/Target/usbd_conf.c ****     break;
 773:USB_Device/Target/usbd_conf.c ****     case HAL_ERROR :
 774:USB_Device/Target/usbd_conf.c ****       usb_status = USBD_FAIL;
  37              		.loc 1 774 0
  38 0006 0320     		movs	r0, #3
  39              	.LVL1:
 775:USB_Device/Target/usbd_conf.c ****     break;
 776:USB_Device/Target/usbd_conf.c ****     case HAL_BUSY :
 777:USB_Device/Target/usbd_conf.c ****       usb_status = USBD_BUSY;
 778:USB_Device/Target/usbd_conf.c ****     break;
 779:USB_Device/Target/usbd_conf.c ****     case HAL_TIMEOUT :
 780:USB_Device/Target/usbd_conf.c ****       usb_status = USBD_FAIL;
 781:USB_Device/Target/usbd_conf.c ****     break;
 782:USB_Device/Target/usbd_conf.c ****     default :
 783:USB_Device/Target/usbd_conf.c ****       usb_status = USBD_FAIL;
 784:USB_Device/Target/usbd_conf.c ****     break;
 785:USB_Device/Target/usbd_conf.c ****   }
 786:USB_Device/Target/usbd_conf.c ****   return usb_status;
 787:USB_Device/Target/usbd_conf.c **** }
  40              		.loc 1 787 0
  41 0008 7047     		bx	lr
  42              	.LVL2:
  43              	.L3:
 771:USB_Device/Target/usbd_conf.c ****     break;
  44              		.loc 1 771 0
  45 000a 0020     		movs	r0, #0
  46              	.LVL3:
  47 000c 7047     		bx	lr
  48              	.LVL4:
  49              	.L4:
 777:USB_Device/Target/usbd_conf.c ****     break;
  50              		.loc 1 777 0
  51 000e 0120     		movs	r0, #1
  52              	.LVL5:
 778:USB_Device/Target/usbd_conf.c ****     case HAL_TIMEOUT :
  53              		.loc 1 778 0
  54 0010 7047     		bx	lr
  55              		.cfi_endproc
  56              	.LFE365:
  58              		.section	.text.SystemClockConfig_Resume,"ax",%progbits
  59              		.align	1
  60              		.syntax unified
  61              		.thumb
  62              		.thumb_func
  63              		.fpu fpv4-sp-d16
  65              	SystemClockConfig_Resume:
  66              	.LFB364:
 754:USB_Device/Target/usbd_conf.c ****   SystemClock_Config();
  67              		.loc 1 754 0
ARM GAS  /tmp/ccZpajbM.s 			page 16


  68              		.cfi_startproc
  69              		@ args = 0, pretend = 0, frame = 0
  70              		@ frame_needed = 0, uses_anonymous_args = 0
  71 0000 08B5     		push	{r3, lr}
  72              	.LCFI0:
  73              		.cfi_def_cfa_offset 8
  74              		.cfi_offset 3, -8
  75              		.cfi_offset 14, -4
 755:USB_Device/Target/usbd_conf.c **** }
  76              		.loc 1 755 0
  77 0002 FFF7FEFF 		bl	SystemClock_Config
  78              	.LVL6:
 756:USB_Device/Target/usbd_conf.c **** /* USER CODE END 5 */
  79              		.loc 1 756 0
  80 0006 08BD     		pop	{r3, pc}
  81              		.cfi_endproc
  82              	.LFE364:
  84              		.section	.text.HAL_PCD_MspInit,"ax",%progbits
  85              		.align	1
  86              		.global	HAL_PCD_MspInit
  87              		.syntax unified
  88              		.thumb
  89              		.thumb_func
  90              		.fpu fpv4-sp-d16
  92              	HAL_PCD_MspInit:
  93              	.LFB333:
  75:USB_Device/Target/usbd_conf.c ****   if(pcdHandle->Instance==USB)
  94              		.loc 1 75 0
  95              		.cfi_startproc
  96              		@ args = 0, pretend = 0, frame = 8
  97              		@ frame_needed = 0, uses_anonymous_args = 0
  98              	.LVL7:
  76:USB_Device/Target/usbd_conf.c ****   {
  99              		.loc 1 76 0
 100 0000 0268     		ldr	r2, [r0]
 101 0002 0E4B     		ldr	r3, .L16
 102 0004 9A42     		cmp	r2, r3
 103 0006 00D0     		beq	.L15
 104 0008 7047     		bx	lr
 105              	.L15:
  75:USB_Device/Target/usbd_conf.c ****   if(pcdHandle->Instance==USB)
 106              		.loc 1 75 0
 107 000a 00B5     		push	{lr}
 108              	.LCFI1:
 109              		.cfi_def_cfa_offset 4
 110              		.cfi_offset 14, -4
 111 000c 83B0     		sub	sp, sp, #12
 112              	.LCFI2:
 113              		.cfi_def_cfa_offset 16
 114              	.LBB2:
  82:USB_Device/Target/usbd_conf.c **** 
 115              		.loc 1 82 0
 116 000e 03F5DA33 		add	r3, r3, #111616
 117 0012 9A6D     		ldr	r2, [r3, #88]
 118 0014 42F40002 		orr	r2, r2, #8388608
 119 0018 9A65     		str	r2, [r3, #88]
 120 001a 9B6D     		ldr	r3, [r3, #88]
ARM GAS  /tmp/ccZpajbM.s 			page 17


 121 001c 03F40003 		and	r3, r3, #8388608
 122 0020 0193     		str	r3, [sp, #4]
 123 0022 019B     		ldr	r3, [sp, #4]
 124              	.LBE2:
  85:USB_Device/Target/usbd_conf.c ****     HAL_NVIC_EnableIRQ(USB_LP_IRQn);
 125              		.loc 1 85 0
 126 0024 0022     		movs	r2, #0
 127 0026 1146     		mov	r1, r2
 128 0028 1420     		movs	r0, #20
 129              	.LVL8:
 130 002a FFF7FEFF 		bl	HAL_NVIC_SetPriority
 131              	.LVL9:
  86:USB_Device/Target/usbd_conf.c ****   /* USER CODE BEGIN USB_MspInit 1 */
 132              		.loc 1 86 0
 133 002e 1420     		movs	r0, #20
 134 0030 FFF7FEFF 		bl	HAL_NVIC_EnableIRQ
 135              	.LVL10:
  91:USB_Device/Target/usbd_conf.c **** 
 136              		.loc 1 91 0
 137 0034 03B0     		add	sp, sp, #12
 138              	.LCFI3:
 139              		.cfi_def_cfa_offset 4
 140              		@ sp needed
 141 0036 5DF804FB 		ldr	pc, [sp], #4
 142              	.L17:
 143 003a 00BF     		.align	2
 144              	.L16:
 145 003c 005C0040 		.word	1073765376
 146              		.cfi_endproc
 147              	.LFE333:
 149              		.section	.text.HAL_PCD_MspDeInit,"ax",%progbits
 150              		.align	1
 151              		.global	HAL_PCD_MspDeInit
 152              		.syntax unified
 153              		.thumb
 154              		.thumb_func
 155              		.fpu fpv4-sp-d16
 157              	HAL_PCD_MspDeInit:
 158              	.LFB334:
  98:USB_Device/Target/usbd_conf.c ****   if(pcdHandle->Instance==USB)
 159              		.loc 1 98 0
 160              		.cfi_startproc
 161              		@ args = 0, pretend = 0, frame = 0
 162              		@ frame_needed = 0, uses_anonymous_args = 0
 163              	.LVL11:
 164 0000 08B5     		push	{r3, lr}
 165              	.LCFI4:
 166              		.cfi_def_cfa_offset 8
 167              		.cfi_offset 3, -8
 168              		.cfi_offset 14, -4
  99:USB_Device/Target/usbd_conf.c ****   {
 169              		.loc 1 99 0
 170 0002 0268     		ldr	r2, [r0]
 171 0004 064B     		ldr	r3, .L22
 172 0006 9A42     		cmp	r2, r3
 173 0008 00D0     		beq	.L21
 174              	.LVL12:
ARM GAS  /tmp/ccZpajbM.s 			page 18


 175              	.L18:
 114:USB_Device/Target/usbd_conf.c **** 
 176              		.loc 1 114 0
 177 000a 08BD     		pop	{r3, pc}
 178              	.LVL13:
 179              	.L21:
 105:USB_Device/Target/usbd_conf.c **** 
 180              		.loc 1 105 0
 181 000c 054A     		ldr	r2, .L22+4
 182 000e 936D     		ldr	r3, [r2, #88]
 183 0010 23F40003 		bic	r3, r3, #8388608
 184 0014 9365     		str	r3, [r2, #88]
 108:USB_Device/Target/usbd_conf.c **** 
 185              		.loc 1 108 0
 186 0016 1420     		movs	r0, #20
 187              	.LVL14:
 188 0018 FFF7FEFF 		bl	HAL_NVIC_DisableIRQ
 189              	.LVL15:
 114:USB_Device/Target/usbd_conf.c **** 
 190              		.loc 1 114 0
 191 001c F5E7     		b	.L18
 192              	.L23:
 193 001e 00BF     		.align	2
 194              	.L22:
 195 0020 005C0040 		.word	1073765376
 196 0024 00100240 		.word	1073876992
 197              		.cfi_endproc
 198              	.LFE334:
 200              		.section	.text.HAL_PCD_SetupStageCallback,"ax",%progbits
 201              		.align	1
 202              		.global	HAL_PCD_SetupStageCallback
 203              		.syntax unified
 204              		.thumb
 205              		.thumb_func
 206              		.fpu fpv4-sp-d16
 208              	HAL_PCD_SetupStageCallback:
 209              	.LFB335:
 126:USB_Device/Target/usbd_conf.c ****   /* USER CODE BEGIN HAL_PCD_SetupStageCallback_PreTreatment */
 210              		.loc 1 126 0
 211              		.cfi_startproc
 212              		@ args = 0, pretend = 0, frame = 0
 213              		@ frame_needed = 0, uses_anonymous_args = 0
 214              	.LVL16:
 215 0000 08B5     		push	{r3, lr}
 216              	.LCFI5:
 217              		.cfi_def_cfa_offset 8
 218              		.cfi_offset 3, -8
 219              		.cfi_offset 14, -4
 130:USB_Device/Target/usbd_conf.c ****   /* USER CODE BEGIN HAL_PCD_SetupStageCallback_PostTreatment */
 220              		.loc 1 130 0
 221 0002 00F52C71 		add	r1, r0, #688
 222 0006 D0F8F002 		ldr	r0, [r0, #752]
 223              	.LVL17:
 224 000a FFF7FEFF 		bl	USBD_LL_SetupStage
 225              	.LVL18:
 134:USB_Device/Target/usbd_conf.c **** 
 226              		.loc 1 134 0
ARM GAS  /tmp/ccZpajbM.s 			page 19


 227 000e 08BD     		pop	{r3, pc}
 228              		.cfi_endproc
 229              	.LFE335:
 231              		.section	.text.HAL_PCD_DataOutStageCallback,"ax",%progbits
 232              		.align	1
 233              		.global	HAL_PCD_DataOutStageCallback
 234              		.syntax unified
 235              		.thumb
 236              		.thumb_func
 237              		.fpu fpv4-sp-d16
 239              	HAL_PCD_DataOutStageCallback:
 240              	.LFB336:
 147:USB_Device/Target/usbd_conf.c ****   /* USER CODE BEGIN HAL_PCD_DataOutStageCallback_PreTreatment */
 241              		.loc 1 147 0
 242              		.cfi_startproc
 243              		@ args = 0, pretend = 0, frame = 0
 244              		@ frame_needed = 0, uses_anonymous_args = 0
 245              	.LVL19:
 246 0000 08B5     		push	{r3, lr}
 247              	.LCFI6:
 248              		.cfi_def_cfa_offset 8
 249              		.cfi_offset 3, -8
 250              		.cfi_offset 14, -4
 151:USB_Device/Target/usbd_conf.c ****   /* USER CODE BEGIN HAL_PCD_DataOutStageCallback_PostTreatment */
 251              		.loc 1 151 0
 252 0002 01EB8102 		add	r2, r1, r1, lsl #2
 253 0006 D300     		lsls	r3, r2, #3
 254 0008 0344     		add	r3, r3, r0
 255 000a D3F87C21 		ldr	r2, [r3, #380]
 256 000e D0F8F002 		ldr	r0, [r0, #752]
 257              	.LVL20:
 258 0012 FFF7FEFF 		bl	USBD_LL_DataOutStage
 259              	.LVL21:
 155:USB_Device/Target/usbd_conf.c **** 
 260              		.loc 1 155 0
 261 0016 08BD     		pop	{r3, pc}
 262              		.cfi_endproc
 263              	.LFE336:
 265              		.section	.text.HAL_PCD_DataInStageCallback,"ax",%progbits
 266              		.align	1
 267              		.global	HAL_PCD_DataInStageCallback
 268              		.syntax unified
 269              		.thumb
 270              		.thumb_func
 271              		.fpu fpv4-sp-d16
 273              	HAL_PCD_DataInStageCallback:
 274              	.LFB337:
 168:USB_Device/Target/usbd_conf.c ****   /* USER CODE BEGIN HAL_PCD_DataInStageCallback_PreTreatment */
 275              		.loc 1 168 0
 276              		.cfi_startproc
 277              		@ args = 0, pretend = 0, frame = 0
 278              		@ frame_needed = 0, uses_anonymous_args = 0
 279              	.LVL22:
 280 0000 08B5     		push	{r3, lr}
 281              	.LCFI7:
 282              		.cfi_def_cfa_offset 8
 283              		.cfi_offset 3, -8
ARM GAS  /tmp/ccZpajbM.s 			page 20


 284              		.cfi_offset 14, -4
 172:USB_Device/Target/usbd_conf.c ****   /* USER CODE BEGIN HAL_PCD_DataInStageCallback_PostTreatment  */
 285              		.loc 1 172 0
 286 0002 01EB8102 		add	r2, r1, r1, lsl #2
 287 0006 D300     		lsls	r3, r2, #3
 288 0008 0344     		add	r3, r3, r0
 289 000a DA6B     		ldr	r2, [r3, #60]
 290 000c D0F8F002 		ldr	r0, [r0, #752]
 291              	.LVL23:
 292 0010 FFF7FEFF 		bl	USBD_LL_DataInStage
 293              	.LVL24:
 176:USB_Device/Target/usbd_conf.c **** 
 294              		.loc 1 176 0
 295 0014 08BD     		pop	{r3, pc}
 296              		.cfi_endproc
 297              	.LFE337:
 299              		.section	.text.HAL_PCD_SOFCallback,"ax",%progbits
 300              		.align	1
 301              		.global	HAL_PCD_SOFCallback
 302              		.syntax unified
 303              		.thumb
 304              		.thumb_func
 305              		.fpu fpv4-sp-d16
 307              	HAL_PCD_SOFCallback:
 308              	.LFB338:
 188:USB_Device/Target/usbd_conf.c ****   /* USER CODE BEGIN HAL_PCD_SOFCallback_PreTreatment */
 309              		.loc 1 188 0
 310              		.cfi_startproc
 311              		@ args = 0, pretend = 0, frame = 0
 312              		@ frame_needed = 0, uses_anonymous_args = 0
 313              	.LVL25:
 314 0000 08B5     		push	{r3, lr}
 315              	.LCFI8:
 316              		.cfi_def_cfa_offset 8
 317              		.cfi_offset 3, -8
 318              		.cfi_offset 14, -4
 192:USB_Device/Target/usbd_conf.c ****   /* USER CODE BEGIN HAL_PCD_SOFCallback_PostTreatment */
 319              		.loc 1 192 0
 320 0002 D0F8F002 		ldr	r0, [r0, #752]
 321              	.LVL26:
 322 0006 FFF7FEFF 		bl	USBD_LL_SOF
 323              	.LVL27:
 196:USB_Device/Target/usbd_conf.c **** 
 324              		.loc 1 196 0
 325 000a 08BD     		pop	{r3, pc}
 326              		.cfi_endproc
 327              	.LFE338:
 329              		.section	.text.HAL_PCD_ResetCallback,"ax",%progbits
 330              		.align	1
 331              		.global	HAL_PCD_ResetCallback
 332              		.syntax unified
 333              		.thumb
 334              		.thumb_func
 335              		.fpu fpv4-sp-d16
 337              	HAL_PCD_ResetCallback:
 338              	.LFB339:
 208:USB_Device/Target/usbd_conf.c ****   /* USER CODE BEGIN HAL_PCD_ResetCallback_PreTreatment */
ARM GAS  /tmp/ccZpajbM.s 			page 21


 339              		.loc 1 208 0
 340              		.cfi_startproc
 341              		@ args = 0, pretend = 0, frame = 0
 342              		@ frame_needed = 0, uses_anonymous_args = 0
 343              	.LVL28:
 344 0000 10B5     		push	{r4, lr}
 345              	.LCFI9:
 346              		.cfi_def_cfa_offset 8
 347              		.cfi_offset 4, -8
 348              		.cfi_offset 14, -4
 349 0002 0446     		mov	r4, r0
 350              	.LVL29:
 214:USB_Device/Target/usbd_conf.c ****   {
 351              		.loc 1 214 0
 352 0004 8368     		ldr	r3, [r0, #8]
 353 0006 022B     		cmp	r3, #2
 354 0008 01D0     		beq	.L33
 216:USB_Device/Target/usbd_conf.c ****   }
 355              		.loc 1 216 0
 356 000a FFF7FEFF 		bl	Error_Handler
 357              	.LVL30:
 358              	.L33:
 219:USB_Device/Target/usbd_conf.c **** 
 359              		.loc 1 219 0
 360 000e 0121     		movs	r1, #1
 361 0010 D4F8F002 		ldr	r0, [r4, #752]
 362 0014 FFF7FEFF 		bl	USBD_LL_SetSpeed
 363              	.LVL31:
 222:USB_Device/Target/usbd_conf.c ****   /* USER CODE BEGIN HAL_PCD_ResetCallback_PostTreatment */
 364              		.loc 1 222 0
 365 0018 D4F8F002 		ldr	r0, [r4, #752]
 366 001c FFF7FEFF 		bl	USBD_LL_Reset
 367              	.LVL32:
 226:USB_Device/Target/usbd_conf.c **** 
 368              		.loc 1 226 0
 369 0020 10BD     		pop	{r4, pc}
 370              		.cfi_endproc
 371              	.LFE339:
 373              		.section	.text.HAL_PCD_SuspendCallback,"ax",%progbits
 374              		.align	1
 375              		.global	HAL_PCD_SuspendCallback
 376              		.syntax unified
 377              		.thumb
 378              		.thumb_func
 379              		.fpu fpv4-sp-d16
 381              	HAL_PCD_SuspendCallback:
 382              	.LFB340:
 239:USB_Device/Target/usbd_conf.c ****   /* USER CODE BEGIN HAL_PCD_SuspendCallback_PreTreatment */
 383              		.loc 1 239 0
 384              		.cfi_startproc
 385              		@ args = 0, pretend = 0, frame = 0
 386              		@ frame_needed = 0, uses_anonymous_args = 0
 387              	.LVL33:
 388 0000 10B5     		push	{r4, lr}
 389              	.LCFI10:
 390              		.cfi_def_cfa_offset 8
 391              		.cfi_offset 4, -8
ARM GAS  /tmp/ccZpajbM.s 			page 22


 392              		.cfi_offset 14, -4
 393 0002 0446     		mov	r4, r0
 244:USB_Device/Target/usbd_conf.c ****   /* Enter in STOP mode. */
 394              		.loc 1 244 0
 395 0004 D0F8F002 		ldr	r0, [r0, #752]
 396              	.LVL34:
 397 0008 FFF7FEFF 		bl	USBD_LL_Suspend
 398              	.LVL35:
 247:USB_Device/Target/usbd_conf.c ****   {
 399              		.loc 1 247 0
 400 000c A369     		ldr	r3, [r4, #24]
 401 000e 23B1     		cbz	r3, .L35
 250:USB_Device/Target/usbd_conf.c ****   }
 402              		.loc 1 250 0
 403 0010 024A     		ldr	r2, .L38
 404 0012 1369     		ldr	r3, [r2, #16]
 405 0014 43F00603 		orr	r3, r3, #6
 406 0018 1361     		str	r3, [r2, #16]
 407              	.L35:
 256:USB_Device/Target/usbd_conf.c **** 
 408              		.loc 1 256 0
 409 001a 10BD     		pop	{r4, pc}
 410              	.LVL36:
 411              	.L39:
 412              		.align	2
 413              	.L38:
 414 001c 00ED00E0 		.word	-536810240
 415              		.cfi_endproc
 416              	.LFE340:
 418              		.section	.text.HAL_PCD_ResumeCallback,"ax",%progbits
 419              		.align	1
 420              		.global	HAL_PCD_ResumeCallback
 421              		.syntax unified
 422              		.thumb
 423              		.thumb_func
 424              		.fpu fpv4-sp-d16
 426              	HAL_PCD_ResumeCallback:
 427              	.LFB341:
 269:USB_Device/Target/usbd_conf.c ****   /* USER CODE BEGIN HAL_PCD_ResumeCallback_PreTreatment */
 428              		.loc 1 269 0
 429              		.cfi_startproc
 430              		@ args = 0, pretend = 0, frame = 0
 431              		@ frame_needed = 0, uses_anonymous_args = 0
 432              	.LVL37:
 433 0000 10B5     		push	{r4, lr}
 434              	.LCFI11:
 435              		.cfi_def_cfa_offset 8
 436              		.cfi_offset 4, -8
 437              		.cfi_offset 14, -4
 438 0002 0446     		mov	r4, r0
 275:USB_Device/Target/usbd_conf.c ****   {
 439              		.loc 1 275 0
 440 0004 8369     		ldr	r3, [r0, #24]
 441 0006 23B9     		cbnz	r3, .L43
 442              	.LVL38:
 443              	.L41:
 283:USB_Device/Target/usbd_conf.c ****   /* USER CODE BEGIN HAL_PCD_ResumeCallback_PostTreatment */
ARM GAS  /tmp/ccZpajbM.s 			page 23


 444              		.loc 1 283 0
 445 0008 D4F8F002 		ldr	r0, [r4, #752]
 446 000c FFF7FEFF 		bl	USBD_LL_Resume
 447              	.LVL39:
 287:USB_Device/Target/usbd_conf.c **** 
 448              		.loc 1 287 0
 449 0010 10BD     		pop	{r4, pc}
 450              	.LVL40:
 451              	.L43:
 278:USB_Device/Target/usbd_conf.c ****     SystemClockConfig_Resume();
 452              		.loc 1 278 0
 453 0012 044A     		ldr	r2, .L44
 454 0014 1369     		ldr	r3, [r2, #16]
 455 0016 23F00603 		bic	r3, r3, #6
 456 001a 1361     		str	r3, [r2, #16]
 279:USB_Device/Target/usbd_conf.c ****   }
 457              		.loc 1 279 0
 458 001c FFF7FEFF 		bl	SystemClockConfig_Resume
 459              	.LVL41:
 460 0020 F2E7     		b	.L41
 461              	.L45:
 462 0022 00BF     		.align	2
 463              	.L44:
 464 0024 00ED00E0 		.word	-536810240
 465              		.cfi_endproc
 466              	.LFE341:
 468              		.section	.text.HAL_PCD_ISOOUTIncompleteCallback,"ax",%progbits
 469              		.align	1
 470              		.global	HAL_PCD_ISOOUTIncompleteCallback
 471              		.syntax unified
 472              		.thumb
 473              		.thumb_func
 474              		.fpu fpv4-sp-d16
 476              	HAL_PCD_ISOOUTIncompleteCallback:
 477              	.LFB342:
 300:USB_Device/Target/usbd_conf.c ****   /* USER CODE BEGIN HAL_PCD_ISOOUTIncompleteCallback_PreTreatment */
 478              		.loc 1 300 0
 479              		.cfi_startproc
 480              		@ args = 0, pretend = 0, frame = 0
 481              		@ frame_needed = 0, uses_anonymous_args = 0
 482              	.LVL42:
 483 0000 08B5     		push	{r3, lr}
 484              	.LCFI12:
 485              		.cfi_def_cfa_offset 8
 486              		.cfi_offset 3, -8
 487              		.cfi_offset 14, -4
 304:USB_Device/Target/usbd_conf.c ****   /* USER CODE BEGIN HAL_PCD_ISOOUTIncompleteCallback_PostTreatment */
 488              		.loc 1 304 0
 489 0002 D0F8F002 		ldr	r0, [r0, #752]
 490              	.LVL43:
 491 0006 FFF7FEFF 		bl	USBD_LL_IsoOUTIncomplete
 492              	.LVL44:
 308:USB_Device/Target/usbd_conf.c **** 
 493              		.loc 1 308 0
 494 000a 08BD     		pop	{r3, pc}
 495              		.cfi_endproc
 496              	.LFE342:
ARM GAS  /tmp/ccZpajbM.s 			page 24


 498              		.section	.text.HAL_PCD_ISOINIncompleteCallback,"ax",%progbits
 499              		.align	1
 500              		.global	HAL_PCD_ISOINIncompleteCallback
 501              		.syntax unified
 502              		.thumb
 503              		.thumb_func
 504              		.fpu fpv4-sp-d16
 506              	HAL_PCD_ISOINIncompleteCallback:
 507              	.LFB343:
 321:USB_Device/Target/usbd_conf.c ****   /* USER CODE BEGIN HAL_PCD_ISOINIncompleteCallback_PreTreatment */
 508              		.loc 1 321 0
 509              		.cfi_startproc
 510              		@ args = 0, pretend = 0, frame = 0
 511              		@ frame_needed = 0, uses_anonymous_args = 0
 512              	.LVL45:
 513 0000 08B5     		push	{r3, lr}
 514              	.LCFI13:
 515              		.cfi_def_cfa_offset 8
 516              		.cfi_offset 3, -8
 517              		.cfi_offset 14, -4
 325:USB_Device/Target/usbd_conf.c ****   /* USER CODE BEGIN HAL_PCD_ISOINIncompleteCallback_PostTreatment */
 518              		.loc 1 325 0
 519 0002 D0F8F002 		ldr	r0, [r0, #752]
 520              	.LVL46:
 521 0006 FFF7FEFF 		bl	USBD_LL_IsoINIncomplete
 522              	.LVL47:
 329:USB_Device/Target/usbd_conf.c **** 
 523              		.loc 1 329 0
 524 000a 08BD     		pop	{r3, pc}
 525              		.cfi_endproc
 526              	.LFE343:
 528              		.section	.text.HAL_PCD_ConnectCallback,"ax",%progbits
 529              		.align	1
 530              		.global	HAL_PCD_ConnectCallback
 531              		.syntax unified
 532              		.thumb
 533              		.thumb_func
 534              		.fpu fpv4-sp-d16
 536              	HAL_PCD_ConnectCallback:
 537              	.LFB344:
 341:USB_Device/Target/usbd_conf.c ****   /* USER CODE BEGIN HAL_PCD_ConnectCallback_PreTreatment */
 538              		.loc 1 341 0
 539              		.cfi_startproc
 540              		@ args = 0, pretend = 0, frame = 0
 541              		@ frame_needed = 0, uses_anonymous_args = 0
 542              	.LVL48:
 543 0000 08B5     		push	{r3, lr}
 544              	.LCFI14:
 545              		.cfi_def_cfa_offset 8
 546              		.cfi_offset 3, -8
 547              		.cfi_offset 14, -4
 345:USB_Device/Target/usbd_conf.c ****   /* USER CODE BEGIN HAL_PCD_ConnectCallback_PostTreatment */
 548              		.loc 1 345 0
 549 0002 D0F8F002 		ldr	r0, [r0, #752]
 550              	.LVL49:
 551 0006 FFF7FEFF 		bl	USBD_LL_DevConnected
 552              	.LVL50:
ARM GAS  /tmp/ccZpajbM.s 			page 25


 349:USB_Device/Target/usbd_conf.c **** 
 553              		.loc 1 349 0
 554 000a 08BD     		pop	{r3, pc}
 555              		.cfi_endproc
 556              	.LFE344:
 558              		.section	.text.HAL_PCD_DisconnectCallback,"ax",%progbits
 559              		.align	1
 560              		.global	HAL_PCD_DisconnectCallback
 561              		.syntax unified
 562              		.thumb
 563              		.thumb_func
 564              		.fpu fpv4-sp-d16
 566              	HAL_PCD_DisconnectCallback:
 567              	.LFB345:
 361:USB_Device/Target/usbd_conf.c ****   /* USER CODE BEGIN HAL_PCD_DisconnectCallback_PreTreatment */
 568              		.loc 1 361 0
 569              		.cfi_startproc
 570              		@ args = 0, pretend = 0, frame = 0
 571              		@ frame_needed = 0, uses_anonymous_args = 0
 572              	.LVL51:
 573 0000 08B5     		push	{r3, lr}
 574              	.LCFI15:
 575              		.cfi_def_cfa_offset 8
 576              		.cfi_offset 3, -8
 577              		.cfi_offset 14, -4
 365:USB_Device/Target/usbd_conf.c ****   /* USER CODE BEGIN HAL_PCD_DisconnectCallback_PostTreatment */
 578              		.loc 1 365 0
 579 0002 D0F8F002 		ldr	r0, [r0, #752]
 580              	.LVL52:
 581 0006 FFF7FEFF 		bl	USBD_LL_DevDisconnected
 582              	.LVL53:
 369:USB_Device/Target/usbd_conf.c **** 
 583              		.loc 1 369 0
 584 000a 08BD     		pop	{r3, pc}
 585              		.cfi_endproc
 586              	.LFE345:
 588              		.section	.text.USBD_LL_Init,"ax",%progbits
 589              		.align	1
 590              		.global	USBD_LL_Init
 591              		.syntax unified
 592              		.thumb
 593              		.thumb_func
 594              		.fpu fpv4-sp-d16
 596              	USBD_LL_Init:
 597              	.LFB346:
 385:USB_Device/Target/usbd_conf.c ****   /* Init USB Ip. */
 598              		.loc 1 385 0
 599              		.cfi_startproc
 600              		@ args = 0, pretend = 0, frame = 0
 601              		@ frame_needed = 0, uses_anonymous_args = 0
 602              	.LVL54:
 603 0000 10B5     		push	{r4, lr}
 604              	.LCFI16:
 605              		.cfi_def_cfa_offset 8
 606              		.cfi_offset 4, -8
 607              		.cfi_offset 14, -4
 608 0002 0446     		mov	r4, r0
ARM GAS  /tmp/ccZpajbM.s 			page 26


 387:USB_Device/Target/usbd_conf.c ****   /* Link the driver to the stack. */
 609              		.loc 1 387 0
 610 0004 1E48     		ldr	r0, .L58
 611              	.LVL55:
 612 0006 C0F8F042 		str	r4, [r0, #752]
 389:USB_Device/Target/usbd_conf.c **** 
 613              		.loc 1 389 0
 614 000a C4F8C402 		str	r0, [r4, #708]
 391:USB_Device/Target/usbd_conf.c ****   hpcd_USB_FS.Init.dev_endpoints = 8;
 615              		.loc 1 391 0
 616 000e 1D4B     		ldr	r3, .L58+4
 617 0010 0360     		str	r3, [r0]
 392:USB_Device/Target/usbd_conf.c ****   hpcd_USB_FS.Init.speed = PCD_SPEED_FULL;
 618              		.loc 1 392 0
 619 0012 0823     		movs	r3, #8
 620 0014 4360     		str	r3, [r0, #4]
 393:USB_Device/Target/usbd_conf.c ****   hpcd_USB_FS.Init.phy_itface = PCD_PHY_EMBEDDED;
 621              		.loc 1 393 0
 622 0016 0223     		movs	r3, #2
 623 0018 8360     		str	r3, [r0, #8]
 394:USB_Device/Target/usbd_conf.c ****   hpcd_USB_FS.Init.Sof_enable = DISABLE;
 624              		.loc 1 394 0
 625 001a 0361     		str	r3, [r0, #16]
 395:USB_Device/Target/usbd_conf.c ****   hpcd_USB_FS.Init.low_power_enable = DISABLE;
 626              		.loc 1 395 0
 627 001c 0023     		movs	r3, #0
 628 001e 4361     		str	r3, [r0, #20]
 396:USB_Device/Target/usbd_conf.c ****   hpcd_USB_FS.Init.lpm_enable = DISABLE;
 629              		.loc 1 396 0
 630 0020 8361     		str	r3, [r0, #24]
 397:USB_Device/Target/usbd_conf.c ****   hpcd_USB_FS.Init.battery_charging_enable = DISABLE;
 631              		.loc 1 397 0
 632 0022 C361     		str	r3, [r0, #28]
 398:USB_Device/Target/usbd_conf.c **** 
 633              		.loc 1 398 0
 634 0024 0362     		str	r3, [r0, #32]
 406:USB_Device/Target/usbd_conf.c ****   {
 635              		.loc 1 406 0
 636 0026 FFF7FEFF 		bl	HAL_PCD_Init
 637              	.LVL56:
 638 002a 30BB     		cbnz	r0, .L57
 639              	.L55:
 433:USB_Device/Target/usbd_conf.c ****   HAL_PCDEx_PMAConfig((PCD_HandleTypeDef*)pdev->pData , 0x80 , PCD_SNG_BUF, 0x58);
 640              		.loc 1 433 0
 641 002c 1823     		movs	r3, #24
 642 002e 0022     		movs	r2, #0
 643 0030 1146     		mov	r1, r2
 644 0032 D4F8C402 		ldr	r0, [r4, #708]
 645 0036 FFF7FEFF 		bl	HAL_PCDEx_PMAConfig
 646              	.LVL57:
 434:USB_Device/Target/usbd_conf.c ****   /* USER CODE END EndPoint_Configuration */
 647              		.loc 1 434 0
 648 003a 5823     		movs	r3, #88
 649 003c 0022     		movs	r2, #0
 650 003e 8021     		movs	r1, #128
 651 0040 D4F8C402 		ldr	r0, [r4, #708]
 652 0044 FFF7FEFF 		bl	HAL_PCDEx_PMAConfig
ARM GAS  /tmp/ccZpajbM.s 			page 27


 653              	.LVL58:
 437:USB_Device/Target/usbd_conf.c ****   HAL_PCDEx_PMAConfig((PCD_HandleTypeDef*)pdev->pData , 0x01 , PCD_SNG_BUF, 0x110);
 654              		.loc 1 437 0
 655 0048 C023     		movs	r3, #192
 656 004a 0022     		movs	r2, #0
 657 004c 8121     		movs	r1, #129
 658 004e D4F8C402 		ldr	r0, [r4, #708]
 659 0052 FFF7FEFF 		bl	HAL_PCDEx_PMAConfig
 660              	.LVL59:
 438:USB_Device/Target/usbd_conf.c ****   HAL_PCDEx_PMAConfig((PCD_HandleTypeDef*)pdev->pData , 0x82 , PCD_SNG_BUF, 0x100);
 661              		.loc 1 438 0
 662 0056 4FF48873 		mov	r3, #272
 663 005a 0022     		movs	r2, #0
 664 005c 0121     		movs	r1, #1
 665 005e D4F8C402 		ldr	r0, [r4, #708]
 666 0062 FFF7FEFF 		bl	HAL_PCDEx_PMAConfig
 667              	.LVL60:
 439:USB_Device/Target/usbd_conf.c ****   /* USER CODE END EndPoint_Configuration_CDC */
 668              		.loc 1 439 0
 669 0066 4FF48073 		mov	r3, #256
 670 006a 0022     		movs	r2, #0
 671 006c 8221     		movs	r1, #130
 672 006e D4F8C402 		ldr	r0, [r4, #708]
 673 0072 FFF7FEFF 		bl	HAL_PCDEx_PMAConfig
 674              	.LVL61:
 442:USB_Device/Target/usbd_conf.c **** 
 675              		.loc 1 442 0
 676 0076 0020     		movs	r0, #0
 677 0078 10BD     		pop	{r4, pc}
 678              	.LVL62:
 679              	.L57:
 408:USB_Device/Target/usbd_conf.c ****   }
 680              		.loc 1 408 0
 681 007a FFF7FEFF 		bl	Error_Handler
 682              	.LVL63:
 683 007e D5E7     		b	.L55
 684              	.L59:
 685              		.align	2
 686              	.L58:
 687 0080 00000000 		.word	hpcd_USB_FS
 688 0084 005C0040 		.word	1073765376
 689              		.cfi_endproc
 690              	.LFE346:
 692              		.section	.text.USBD_LL_DeInit,"ax",%progbits
 693              		.align	1
 694              		.global	USBD_LL_DeInit
 695              		.syntax unified
 696              		.thumb
 697              		.thumb_func
 698              		.fpu fpv4-sp-d16
 700              	USBD_LL_DeInit:
 701              	.LFB347:
 450:USB_Device/Target/usbd_conf.c ****   HAL_StatusTypeDef hal_status = HAL_OK;
 702              		.loc 1 450 0
 703              		.cfi_startproc
 704              		@ args = 0, pretend = 0, frame = 0
 705              		@ frame_needed = 0, uses_anonymous_args = 0
ARM GAS  /tmp/ccZpajbM.s 			page 28


 706              	.LVL64:
 707 0000 08B5     		push	{r3, lr}
 708              	.LCFI17:
 709              		.cfi_def_cfa_offset 8
 710              		.cfi_offset 3, -8
 711              		.cfi_offset 14, -4
 712              	.LVL65:
 454:USB_Device/Target/usbd_conf.c **** 
 713              		.loc 1 454 0
 714 0002 D0F8C402 		ldr	r0, [r0, #708]
 715              	.LVL66:
 716 0006 FFF7FEFF 		bl	HAL_PCD_DeInit
 717              	.LVL67:
 456:USB_Device/Target/usbd_conf.c **** 
 718              		.loc 1 456 0
 719 000a FFF7FEFF 		bl	USBD_Get_USB_Status
 720              	.LVL68:
 459:USB_Device/Target/usbd_conf.c **** 
 721              		.loc 1 459 0
 722 000e 08BD     		pop	{r3, pc}
 723              		.cfi_endproc
 724              	.LFE347:
 726              		.section	.text.USBD_LL_Start,"ax",%progbits
 727              		.align	1
 728              		.global	USBD_LL_Start
 729              		.syntax unified
 730              		.thumb
 731              		.thumb_func
 732              		.fpu fpv4-sp-d16
 734              	USBD_LL_Start:
 735              	.LFB348:
 467:USB_Device/Target/usbd_conf.c ****   HAL_StatusTypeDef hal_status = HAL_OK;
 736              		.loc 1 467 0
 737              		.cfi_startproc
 738              		@ args = 0, pretend = 0, frame = 0
 739              		@ frame_needed = 0, uses_anonymous_args = 0
 740              	.LVL69:
 741 0000 08B5     		push	{r3, lr}
 742              	.LCFI18:
 743              		.cfi_def_cfa_offset 8
 744              		.cfi_offset 3, -8
 745              		.cfi_offset 14, -4
 746              	.LVL70:
 471:USB_Device/Target/usbd_conf.c **** 
 747              		.loc 1 471 0
 748 0002 D0F8C402 		ldr	r0, [r0, #708]
 749              	.LVL71:
 750 0006 FFF7FEFF 		bl	HAL_PCD_Start
 751              	.LVL72:
 473:USB_Device/Target/usbd_conf.c **** 
 752              		.loc 1 473 0
 753 000a FFF7FEFF 		bl	USBD_Get_USB_Status
 754              	.LVL73:
 476:USB_Device/Target/usbd_conf.c **** 
 755              		.loc 1 476 0
 756 000e 08BD     		pop	{r3, pc}
 757              		.cfi_endproc
ARM GAS  /tmp/ccZpajbM.s 			page 29


 758              	.LFE348:
 760              		.section	.text.USBD_LL_Stop,"ax",%progbits
 761              		.align	1
 762              		.global	USBD_LL_Stop
 763              		.syntax unified
 764              		.thumb
 765              		.thumb_func
 766              		.fpu fpv4-sp-d16
 768              	USBD_LL_Stop:
 769              	.LFB349:
 484:USB_Device/Target/usbd_conf.c ****   HAL_StatusTypeDef hal_status = HAL_OK;
 770              		.loc 1 484 0
 771              		.cfi_startproc
 772              		@ args = 0, pretend = 0, frame = 0
 773              		@ frame_needed = 0, uses_anonymous_args = 0
 774              	.LVL74:
 775 0000 08B5     		push	{r3, lr}
 776              	.LCFI19:
 777              		.cfi_def_cfa_offset 8
 778              		.cfi_offset 3, -8
 779              		.cfi_offset 14, -4
 780              	.LVL75:
 488:USB_Device/Target/usbd_conf.c **** 
 781              		.loc 1 488 0
 782 0002 D0F8C402 		ldr	r0, [r0, #708]
 783              	.LVL76:
 784 0006 FFF7FEFF 		bl	HAL_PCD_Stop
 785              	.LVL77:
 490:USB_Device/Target/usbd_conf.c **** 
 786              		.loc 1 490 0
 787 000a FFF7FEFF 		bl	USBD_Get_USB_Status
 788              	.LVL78:
 493:USB_Device/Target/usbd_conf.c **** 
 789              		.loc 1 493 0
 790 000e 08BD     		pop	{r3, pc}
 791              		.cfi_endproc
 792              	.LFE349:
 794              		.section	.text.USBD_LL_OpenEP,"ax",%progbits
 795              		.align	1
 796              		.global	USBD_LL_OpenEP
 797              		.syntax unified
 798              		.thumb
 799              		.thumb_func
 800              		.fpu fpv4-sp-d16
 802              	USBD_LL_OpenEP:
 803              	.LFB350:
 504:USB_Device/Target/usbd_conf.c ****   HAL_StatusTypeDef hal_status = HAL_OK;
 804              		.loc 1 504 0
 805              		.cfi_startproc
 806              		@ args = 0, pretend = 0, frame = 0
 807              		@ frame_needed = 0, uses_anonymous_args = 0
 808              	.LVL79:
 809 0000 10B5     		push	{r4, lr}
 810              	.LCFI20:
 811              		.cfi_def_cfa_offset 8
 812              		.cfi_offset 4, -8
 813              		.cfi_offset 14, -4
ARM GAS  /tmp/ccZpajbM.s 			page 30


 814 0002 1C46     		mov	r4, r3
 815              	.LVL80:
 508:USB_Device/Target/usbd_conf.c **** 
 816              		.loc 1 508 0
 817 0004 1346     		mov	r3, r2
 818              	.LVL81:
 819 0006 2246     		mov	r2, r4
 820              	.LVL82:
 821 0008 D0F8C402 		ldr	r0, [r0, #708]
 822              	.LVL83:
 823 000c FFF7FEFF 		bl	HAL_PCD_EP_Open
 824              	.LVL84:
 510:USB_Device/Target/usbd_conf.c **** 
 825              		.loc 1 510 0
 826 0010 FFF7FEFF 		bl	USBD_Get_USB_Status
 827              	.LVL85:
 513:USB_Device/Target/usbd_conf.c **** 
 828              		.loc 1 513 0
 829 0014 10BD     		pop	{r4, pc}
 830              		.cfi_endproc
 831              	.LFE350:
 833              		.section	.text.USBD_LL_CloseEP,"ax",%progbits
 834              		.align	1
 835              		.global	USBD_LL_CloseEP
 836              		.syntax unified
 837              		.thumb
 838              		.thumb_func
 839              		.fpu fpv4-sp-d16
 841              	USBD_LL_CloseEP:
 842              	.LFB351:
 522:USB_Device/Target/usbd_conf.c ****   HAL_StatusTypeDef hal_status = HAL_OK;
 843              		.loc 1 522 0
 844              		.cfi_startproc
 845              		@ args = 0, pretend = 0, frame = 0
 846              		@ frame_needed = 0, uses_anonymous_args = 0
 847              	.LVL86:
 848 0000 08B5     		push	{r3, lr}
 849              	.LCFI21:
 850              		.cfi_def_cfa_offset 8
 851              		.cfi_offset 3, -8
 852              		.cfi_offset 14, -4
 853              	.LVL87:
 526:USB_Device/Target/usbd_conf.c **** 
 854              		.loc 1 526 0
 855 0002 D0F8C402 		ldr	r0, [r0, #708]
 856              	.LVL88:
 857 0006 FFF7FEFF 		bl	HAL_PCD_EP_Close
 858              	.LVL89:
 528:USB_Device/Target/usbd_conf.c **** 
 859              		.loc 1 528 0
 860 000a FFF7FEFF 		bl	USBD_Get_USB_Status
 861              	.LVL90:
 531:USB_Device/Target/usbd_conf.c **** 
 862              		.loc 1 531 0
 863 000e 08BD     		pop	{r3, pc}
 864              		.cfi_endproc
 865              	.LFE351:
ARM GAS  /tmp/ccZpajbM.s 			page 31


 867              		.section	.text.USBD_LL_FlushEP,"ax",%progbits
 868              		.align	1
 869              		.global	USBD_LL_FlushEP
 870              		.syntax unified
 871              		.thumb
 872              		.thumb_func
 873              		.fpu fpv4-sp-d16
 875              	USBD_LL_FlushEP:
 876              	.LFB352:
 540:USB_Device/Target/usbd_conf.c ****   HAL_StatusTypeDef hal_status = HAL_OK;
 877              		.loc 1 540 0
 878              		.cfi_startproc
 879              		@ args = 0, pretend = 0, frame = 0
 880              		@ frame_needed = 0, uses_anonymous_args = 0
 881              	.LVL91:
 882 0000 08B5     		push	{r3, lr}
 883              	.LCFI22:
 884              		.cfi_def_cfa_offset 8
 885              		.cfi_offset 3, -8
 886              		.cfi_offset 14, -4
 887              	.LVL92:
 544:USB_Device/Target/usbd_conf.c **** 
 888              		.loc 1 544 0
 889 0002 D0F8C402 		ldr	r0, [r0, #708]
 890              	.LVL93:
 891 0006 FFF7FEFF 		bl	HAL_PCD_EP_Flush
 892              	.LVL94:
 546:USB_Device/Target/usbd_conf.c **** 
 893              		.loc 1 546 0
 894 000a FFF7FEFF 		bl	USBD_Get_USB_Status
 895              	.LVL95:
 549:USB_Device/Target/usbd_conf.c **** 
 896              		.loc 1 549 0
 897 000e 08BD     		pop	{r3, pc}
 898              		.cfi_endproc
 899              	.LFE352:
 901              		.section	.text.USBD_LL_StallEP,"ax",%progbits
 902              		.align	1
 903              		.global	USBD_LL_StallEP
 904              		.syntax unified
 905              		.thumb
 906              		.thumb_func
 907              		.fpu fpv4-sp-d16
 909              	USBD_LL_StallEP:
 910              	.LFB353:
 558:USB_Device/Target/usbd_conf.c ****   HAL_StatusTypeDef hal_status = HAL_OK;
 911              		.loc 1 558 0
 912              		.cfi_startproc
 913              		@ args = 0, pretend = 0, frame = 0
 914              		@ frame_needed = 0, uses_anonymous_args = 0
 915              	.LVL96:
 916 0000 08B5     		push	{r3, lr}
 917              	.LCFI23:
 918              		.cfi_def_cfa_offset 8
 919              		.cfi_offset 3, -8
 920              		.cfi_offset 14, -4
 921              	.LVL97:
ARM GAS  /tmp/ccZpajbM.s 			page 32


 562:USB_Device/Target/usbd_conf.c **** 
 922              		.loc 1 562 0
 923 0002 D0F8C402 		ldr	r0, [r0, #708]
 924              	.LVL98:
 925 0006 FFF7FEFF 		bl	HAL_PCD_EP_SetStall
 926              	.LVL99:
 564:USB_Device/Target/usbd_conf.c **** 
 927              		.loc 1 564 0
 928 000a FFF7FEFF 		bl	USBD_Get_USB_Status
 929              	.LVL100:
 567:USB_Device/Target/usbd_conf.c **** 
 930              		.loc 1 567 0
 931 000e 08BD     		pop	{r3, pc}
 932              		.cfi_endproc
 933              	.LFE353:
 935              		.section	.text.USBD_LL_ClearStallEP,"ax",%progbits
 936              		.align	1
 937              		.global	USBD_LL_ClearStallEP
 938              		.syntax unified
 939              		.thumb
 940              		.thumb_func
 941              		.fpu fpv4-sp-d16
 943              	USBD_LL_ClearStallEP:
 944              	.LFB354:
 576:USB_Device/Target/usbd_conf.c ****   HAL_StatusTypeDef hal_status = HAL_OK;
 945              		.loc 1 576 0
 946              		.cfi_startproc
 947              		@ args = 0, pretend = 0, frame = 0
 948              		@ frame_needed = 0, uses_anonymous_args = 0
 949              	.LVL101:
 950 0000 08B5     		push	{r3, lr}
 951              	.LCFI24:
 952              		.cfi_def_cfa_offset 8
 953              		.cfi_offset 3, -8
 954              		.cfi_offset 14, -4
 955              	.LVL102:
 580:USB_Device/Target/usbd_conf.c **** 
 956              		.loc 1 580 0
 957 0002 D0F8C402 		ldr	r0, [r0, #708]
 958              	.LVL103:
 959 0006 FFF7FEFF 		bl	HAL_PCD_EP_ClrStall
 960              	.LVL104:
 582:USB_Device/Target/usbd_conf.c **** 
 961              		.loc 1 582 0
 962 000a FFF7FEFF 		bl	USBD_Get_USB_Status
 963              	.LVL105:
 585:USB_Device/Target/usbd_conf.c **** 
 964              		.loc 1 585 0
 965 000e 08BD     		pop	{r3, pc}
 966              		.cfi_endproc
 967              	.LFE354:
 969              		.section	.text.USBD_LL_IsStallEP,"ax",%progbits
 970              		.align	1
 971              		.global	USBD_LL_IsStallEP
 972              		.syntax unified
 973              		.thumb
 974              		.thumb_func
ARM GAS  /tmp/ccZpajbM.s 			page 33


 975              		.fpu fpv4-sp-d16
 977              	USBD_LL_IsStallEP:
 978              	.LFB355:
 594:USB_Device/Target/usbd_conf.c ****   PCD_HandleTypeDef *hpcd = (PCD_HandleTypeDef*) pdev->pData;
 979              		.loc 1 594 0
 980              		.cfi_startproc
 981              		@ args = 0, pretend = 0, frame = 0
 982              		@ frame_needed = 0, uses_anonymous_args = 0
 983              		@ link register save eliminated.
 984              	.LVL106:
 595:USB_Device/Target/usbd_conf.c **** 
 985              		.loc 1 595 0
 986 0000 D0F8C432 		ldr	r3, [r0, #708]
 987              	.LVL107:
 597:USB_Device/Target/usbd_conf.c ****   {
 988              		.loc 1 597 0
 989 0004 11F0800F 		tst	r1, #128
 990 0008 08D1     		bne	.L79
 603:USB_Device/Target/usbd_conf.c ****   }
 991              		.loc 1 603 0
 992 000a 01F07F01 		and	r1, r1, #127
 993              	.LVL108:
 994 000e 01EB8101 		add	r1, r1, r1, lsl #2
 995 0012 CA00     		lsls	r2, r1, #3
 996 0014 1344     		add	r3, r3, r2
 997              	.LVL109:
 998 0016 93F86A01 		ldrb	r0, [r3, #362]	@ zero_extendqisi2
 999              	.LVL110:
 605:USB_Device/Target/usbd_conf.c **** 
 1000              		.loc 1 605 0
 1001 001a 7047     		bx	lr
 1002              	.LVL111:
 1003              	.L79:
 599:USB_Device/Target/usbd_conf.c ****   }
 1004              		.loc 1 599 0
 1005 001c 01F07F01 		and	r1, r1, #127
 1006              	.LVL112:
 1007 0020 0131     		adds	r1, r1, #1
 1008 0022 01EB8101 		add	r1, r1, r1, lsl #2
 1009 0026 CA00     		lsls	r2, r1, #3
 1010 0028 1344     		add	r3, r3, r2
 1011              	.LVL113:
 1012 002a 9878     		ldrb	r0, [r3, #2]	@ zero_extendqisi2
 1013              	.LVL114:
 1014 002c 7047     		bx	lr
 1015              		.cfi_endproc
 1016              	.LFE355:
 1018              		.section	.text.USBD_LL_SetUSBAddress,"ax",%progbits
 1019              		.align	1
 1020              		.global	USBD_LL_SetUSBAddress
 1021              		.syntax unified
 1022              		.thumb
 1023              		.thumb_func
 1024              		.fpu fpv4-sp-d16
 1026              	USBD_LL_SetUSBAddress:
 1027              	.LFB356:
 614:USB_Device/Target/usbd_conf.c ****   HAL_StatusTypeDef hal_status = HAL_OK;
ARM GAS  /tmp/ccZpajbM.s 			page 34


 1028              		.loc 1 614 0
 1029              		.cfi_startproc
 1030              		@ args = 0, pretend = 0, frame = 0
 1031              		@ frame_needed = 0, uses_anonymous_args = 0
 1032              	.LVL115:
 1033 0000 08B5     		push	{r3, lr}
 1034              	.LCFI25:
 1035              		.cfi_def_cfa_offset 8
 1036              		.cfi_offset 3, -8
 1037              		.cfi_offset 14, -4
 1038              	.LVL116:
 618:USB_Device/Target/usbd_conf.c **** 
 1039              		.loc 1 618 0
 1040 0002 D0F8C402 		ldr	r0, [r0, #708]
 1041              	.LVL117:
 1042 0006 FFF7FEFF 		bl	HAL_PCD_SetAddress
 1043              	.LVL118:
 620:USB_Device/Target/usbd_conf.c **** 
 1044              		.loc 1 620 0
 1045 000a FFF7FEFF 		bl	USBD_Get_USB_Status
 1046              	.LVL119:
 623:USB_Device/Target/usbd_conf.c **** 
 1047              		.loc 1 623 0
 1048 000e 08BD     		pop	{r3, pc}
 1049              		.cfi_endproc
 1050              	.LFE356:
 1052              		.section	.text.USBD_LL_Transmit,"ax",%progbits
 1053              		.align	1
 1054              		.global	USBD_LL_Transmit
 1055              		.syntax unified
 1056              		.thumb
 1057              		.thumb_func
 1058              		.fpu fpv4-sp-d16
 1060              	USBD_LL_Transmit:
 1061              	.LFB357:
 634:USB_Device/Target/usbd_conf.c ****   HAL_StatusTypeDef hal_status = HAL_OK;
 1062              		.loc 1 634 0
 1063              		.cfi_startproc
 1064              		@ args = 0, pretend = 0, frame = 0
 1065              		@ frame_needed = 0, uses_anonymous_args = 0
 1066              	.LVL120:
 1067 0000 08B5     		push	{r3, lr}
 1068              	.LCFI26:
 1069              		.cfi_def_cfa_offset 8
 1070              		.cfi_offset 3, -8
 1071              		.cfi_offset 14, -4
 1072              	.LVL121:
 638:USB_Device/Target/usbd_conf.c **** 
 1073              		.loc 1 638 0
 1074 0002 D0F8C402 		ldr	r0, [r0, #708]
 1075              	.LVL122:
 1076 0006 FFF7FEFF 		bl	HAL_PCD_EP_Transmit
 1077              	.LVL123:
 640:USB_Device/Target/usbd_conf.c **** 
 1078              		.loc 1 640 0
 1079 000a FFF7FEFF 		bl	USBD_Get_USB_Status
 1080              	.LVL124:
ARM GAS  /tmp/ccZpajbM.s 			page 35


 643:USB_Device/Target/usbd_conf.c **** 
 1081              		.loc 1 643 0
 1082 000e 08BD     		pop	{r3, pc}
 1083              		.cfi_endproc
 1084              	.LFE357:
 1086              		.section	.text.USBD_LL_PrepareReceive,"ax",%progbits
 1087              		.align	1
 1088              		.global	USBD_LL_PrepareReceive
 1089              		.syntax unified
 1090              		.thumb
 1091              		.thumb_func
 1092              		.fpu fpv4-sp-d16
 1094              	USBD_LL_PrepareReceive:
 1095              	.LFB358:
 654:USB_Device/Target/usbd_conf.c ****   HAL_StatusTypeDef hal_status = HAL_OK;
 1096              		.loc 1 654 0
 1097              		.cfi_startproc
 1098              		@ args = 0, pretend = 0, frame = 0
 1099              		@ frame_needed = 0, uses_anonymous_args = 0
 1100              	.LVL125:
 1101 0000 08B5     		push	{r3, lr}
 1102              	.LCFI27:
 1103              		.cfi_def_cfa_offset 8
 1104              		.cfi_offset 3, -8
 1105              		.cfi_offset 14, -4
 1106              	.LVL126:
 658:USB_Device/Target/usbd_conf.c **** 
 1107              		.loc 1 658 0
 1108 0002 D0F8C402 		ldr	r0, [r0, #708]
 1109              	.LVL127:
 1110 0006 FFF7FEFF 		bl	HAL_PCD_EP_Receive
 1111              	.LVL128:
 660:USB_Device/Target/usbd_conf.c **** 
 1112              		.loc 1 660 0
 1113 000a FFF7FEFF 		bl	USBD_Get_USB_Status
 1114              	.LVL129:
 663:USB_Device/Target/usbd_conf.c **** 
 1115              		.loc 1 663 0
 1116 000e 08BD     		pop	{r3, pc}
 1117              		.cfi_endproc
 1118              	.LFE358:
 1120              		.section	.text.USBD_LL_GetRxDataSize,"ax",%progbits
 1121              		.align	1
 1122              		.global	USBD_LL_GetRxDataSize
 1123              		.syntax unified
 1124              		.thumb
 1125              		.thumb_func
 1126              		.fpu fpv4-sp-d16
 1128              	USBD_LL_GetRxDataSize:
 1129              	.LFB359:
 672:USB_Device/Target/usbd_conf.c ****   return HAL_PCD_EP_GetRxCount((PCD_HandleTypeDef*) pdev->pData, ep_addr);
 1130              		.loc 1 672 0
 1131              		.cfi_startproc
 1132              		@ args = 0, pretend = 0, frame = 0
 1133              		@ frame_needed = 0, uses_anonymous_args = 0
 1134              	.LVL130:
 1135 0000 08B5     		push	{r3, lr}
ARM GAS  /tmp/ccZpajbM.s 			page 36


 1136              	.LCFI28:
 1137              		.cfi_def_cfa_offset 8
 1138              		.cfi_offset 3, -8
 1139              		.cfi_offset 14, -4
 673:USB_Device/Target/usbd_conf.c **** }
 1140              		.loc 1 673 0
 1141 0002 D0F8C402 		ldr	r0, [r0, #708]
 1142              	.LVL131:
 1143 0006 FFF7FEFF 		bl	HAL_PCD_EP_GetRxCount
 1144              	.LVL132:
 674:USB_Device/Target/usbd_conf.c **** 
 1145              		.loc 1 674 0
 1146 000a 08BD     		pop	{r3, pc}
 1147              		.cfi_endproc
 1148              	.LFE359:
 1150              		.section	.text.HAL_PCDEx_LPM_Callback,"ax",%progbits
 1151              		.align	1
 1152              		.global	HAL_PCDEx_LPM_Callback
 1153              		.syntax unified
 1154              		.thumb
 1155              		.thumb_func
 1156              		.fpu fpv4-sp-d16
 1158              	HAL_PCDEx_LPM_Callback:
 1159              	.LFB360:
 687:USB_Device/Target/usbd_conf.c ****   /* USER CODE BEGIN LPM_Callback */
 1160              		.loc 1 687 0
 1161              		.cfi_startproc
 1162              		@ args = 0, pretend = 0, frame = 0
 1163              		@ frame_needed = 0, uses_anonymous_args = 0
 1164              	.LVL133:
 1165 0000 10B5     		push	{r4, lr}
 1166              	.LCFI29:
 1167              		.cfi_def_cfa_offset 8
 1168              		.cfi_offset 4, -8
 1169              		.cfi_offset 14, -4
 1170 0002 0446     		mov	r4, r0
 689:USB_Device/Target/usbd_conf.c ****   {
 1171              		.loc 1 689 0
 1172 0004 11B1     		cbz	r1, .L90
 1173 0006 0129     		cmp	r1, #1
 1174 0008 0FD0     		beq	.L91
 1175              	.LVL134:
 1176              	.L88:
 714:USB_Device/Target/usbd_conf.c **** 
 1177              		.loc 1 714 0
 1178 000a 10BD     		pop	{r4, pc}
 1179              	.LVL135:
 1180              	.L90:
 692:USB_Device/Target/usbd_conf.c ****     {
 1181              		.loc 1 692 0
 1182 000c 8369     		ldr	r3, [r0, #24]
 1183 000e 23B9     		cbnz	r3, .L94
 1184              	.LVL136:
 1185              	.L92:
 699:USB_Device/Target/usbd_conf.c ****     break;
 1186              		.loc 1 699 0
 1187 0010 D4F8F002 		ldr	r0, [r4, #752]
ARM GAS  /tmp/ccZpajbM.s 			page 37


 1188 0014 FFF7FEFF 		bl	USBD_LL_Resume
 1189              	.LVL137:
 700:USB_Device/Target/usbd_conf.c **** 
 1190              		.loc 1 700 0
 1191 0018 F7E7     		b	.L88
 1192              	.LVL138:
 1193              	.L94:
 694:USB_Device/Target/usbd_conf.c **** 
 1194              		.loc 1 694 0
 1195 001a FFF7FEFF 		bl	SystemClockConfig_Resume
 1196              	.LVL139:
 697:USB_Device/Target/usbd_conf.c ****     }
 1197              		.loc 1 697 0
 1198 001e 094A     		ldr	r2, .L95
 1199 0020 1369     		ldr	r3, [r2, #16]
 1200 0022 23F00603 		bic	r3, r3, #6
 1201 0026 1361     		str	r3, [r2, #16]
 1202 0028 F2E7     		b	.L92
 1203              	.LVL140:
 1204              	.L91:
 703:USB_Device/Target/usbd_conf.c **** 
 1205              		.loc 1 703 0
 1206 002a D0F8F002 		ldr	r0, [r0, #752]
 1207              	.LVL141:
 1208 002e FFF7FEFF 		bl	USBD_LL_Suspend
 1209              	.LVL142:
 706:USB_Device/Target/usbd_conf.c ****     {
 1210              		.loc 1 706 0
 1211 0032 A369     		ldr	r3, [r4, #24]
 1212 0034 002B     		cmp	r3, #0
 1213 0036 E8D0     		beq	.L88
 709:USB_Device/Target/usbd_conf.c ****     }
 1214              		.loc 1 709 0
 1215 0038 024A     		ldr	r2, .L95
 1216 003a 1369     		ldr	r3, [r2, #16]
 1217 003c 43F00603 		orr	r3, r3, #6
 1218 0040 1361     		str	r3, [r2, #16]
 714:USB_Device/Target/usbd_conf.c **** 
 1219              		.loc 1 714 0
 1220 0042 E2E7     		b	.L88
 1221              	.L96:
 1222              		.align	2
 1223              	.L95:
 1224 0044 00ED00E0 		.word	-536810240
 1225              		.cfi_endproc
 1226              	.LFE360:
 1228              		.section	.text.USBD_LL_Delay,"ax",%progbits
 1229              		.align	1
 1230              		.global	USBD_LL_Delay
 1231              		.syntax unified
 1232              		.thumb
 1233              		.thumb_func
 1234              		.fpu fpv4-sp-d16
 1236              	USBD_LL_Delay:
 1237              	.LFB361:
 722:USB_Device/Target/usbd_conf.c ****   HAL_Delay(Delay);
 1238              		.loc 1 722 0
ARM GAS  /tmp/ccZpajbM.s 			page 38


 1239              		.cfi_startproc
 1240              		@ args = 0, pretend = 0, frame = 0
 1241              		@ frame_needed = 0, uses_anonymous_args = 0
 1242              	.LVL143:
 1243 0000 08B5     		push	{r3, lr}
 1244              	.LCFI30:
 1245              		.cfi_def_cfa_offset 8
 1246              		.cfi_offset 3, -8
 1247              		.cfi_offset 14, -4
 723:USB_Device/Target/usbd_conf.c **** }
 1248              		.loc 1 723 0
 1249 0002 FFF7FEFF 		bl	HAL_Delay
 1250              	.LVL144:
 724:USB_Device/Target/usbd_conf.c **** 
 1251              		.loc 1 724 0
 1252 0006 08BD     		pop	{r3, pc}
 1253              		.cfi_endproc
 1254              	.LFE361:
 1256              		.section	.text.USBD_static_malloc,"ax",%progbits
 1257              		.align	1
 1258              		.global	USBD_static_malloc
 1259              		.syntax unified
 1260              		.thumb
 1261              		.thumb_func
 1262              		.fpu fpv4-sp-d16
 1264              	USBD_static_malloc:
 1265              	.LFB362:
 732:USB_Device/Target/usbd_conf.c ****   static uint32_t mem[(sizeof(USBD_CDC_HandleTypeDef)/4)+1];/* On 32-bit boundary */
 1266              		.loc 1 732 0
 1267              		.cfi_startproc
 1268              		@ args = 0, pretend = 0, frame = 0
 1269              		@ frame_needed = 0, uses_anonymous_args = 0
 1270              		@ link register save eliminated.
 1271              	.LVL145:
 735:USB_Device/Target/usbd_conf.c **** 
 1272              		.loc 1 735 0
 1273 0000 0048     		ldr	r0, .L100
 1274              	.LVL146:
 1275 0002 7047     		bx	lr
 1276              	.L101:
 1277              		.align	2
 1278              	.L100:
 1279 0004 00000000 		.word	.LANCHOR0
 1280              		.cfi_endproc
 1281              	.LFE362:
 1283              		.section	.text.USBD_static_free,"ax",%progbits
 1284              		.align	1
 1285              		.global	USBD_static_free
 1286              		.syntax unified
 1287              		.thumb
 1288              		.thumb_func
 1289              		.fpu fpv4-sp-d16
 1291              	USBD_static_free:
 1292              	.LFB363:
 743:USB_Device/Target/usbd_conf.c **** 
 1293              		.loc 1 743 0
 1294              		.cfi_startproc
ARM GAS  /tmp/ccZpajbM.s 			page 39


 1295              		@ args = 0, pretend = 0, frame = 0
 1296              		@ frame_needed = 0, uses_anonymous_args = 0
 1297              		@ link register save eliminated.
 1298              	.LVL147:
 745:USB_Device/Target/usbd_conf.c **** 
 1299              		.loc 1 745 0
 1300 0000 7047     		bx	lr
 1301              		.cfi_endproc
 1302              	.LFE363:
 1304              		.comm	hpcd_USB_FS,756,4
 1305              		.section	.bss.mem.12661,"aw",%nobits
 1306              		.align	2
 1307              		.set	.LANCHOR0,. + 0
 1310              	mem.12661:
 1311 0000 00000000 		.space	544
 1311      00000000 
 1311      00000000 
 1311      00000000 
 1311      00000000 
 1312              		.text
 1313              	.Letext0:
 1314              		.file 2 "/usr/include/newlib/machine/_default_types.h"
 1315              		.file 3 "/usr/include/newlib/sys/_stdint.h"
 1316              		.file 4 "Drivers/CMSIS/Include/core_cm4.h"
 1317              		.file 5 "Drivers/CMSIS/Device/ST/STM32G4xx/Include/system_stm32g4xx.h"
 1318              		.file 6 "Drivers/CMSIS/Device/ST/STM32G4xx/Include/stm32g484xx.h"
 1319              		.file 7 "Drivers/CMSIS/Device/ST/STM32G4xx/Include/stm32g4xx.h"
 1320              		.file 8 "Drivers/STM32G4xx_HAL_Driver/Inc/stm32g4xx_hal_def.h"
 1321              		.file 9 "Drivers/STM32G4xx_HAL_Driver/Inc/stm32g4xx_hal_flash.h"
 1322              		.file 10 "Drivers/STM32G4xx_HAL_Driver/Inc/stm32g4xx_ll_usb.h"
 1323              		.file 11 "Drivers/STM32G4xx_HAL_Driver/Inc/stm32g4xx_hal_pcd.h"
 1324              		.file 12 "Drivers/STM32G4xx_HAL_Driver/Inc/stm32g4xx_hal_uart.h"
 1325              		.file 13 "Drivers/STM32G4xx_HAL_Driver/Inc/stm32g4xx_hal.h"
 1326              		.file 14 "/usr/include/newlib/sys/lock.h"
 1327              		.file 15 "/usr/include/newlib/sys/_types.h"
 1328              		.file 16 "/usr/lib/gcc/arm-none-eabi/7.3.1/include/stddef.h"
 1329              		.file 17 "/usr/include/newlib/sys/reent.h"
 1330              		.file 18 "/usr/include/newlib/stdlib.h"
 1331              		.file 19 "Middlewares/ST/STM32_USB_Device_Library/Core/Inc/usbd_def.h"
 1332              		.file 20 "Middlewares/ST/STM32_USB_Device_Library/Class/CDC/Inc/usbd_cdc.h"
 1333              		.file 21 "Middlewares/ST/STM32_USB_Device_Library/Core/Inc/usbd_core.h"
 1334              		.file 22 "Drivers/STM32G4xx_HAL_Driver/Inc/stm32g4xx_hal_pcd_ex.h"
 1335              		.file 23 "Drivers/STM32G4xx_HAL_Driver/Inc/stm32g4xx_hal_cortex.h"
ARM GAS  /tmp/ccZpajbM.s 			page 40

