ARM GAS  /tmp/cc9FZSxU.s 			page 1


   1              		.cpu cortex-m4
   2              		.eabi_attribute 27, 1
   3              		.eabi_attribute 28, 1
   4              		.eabi_attribute 20, 1
   5              		.eabi_attribute 21, 1
   6              		.eabi_attribute 23, 3
   7              		.eabi_attribute 24, 1
   8              		.eabi_attribute 25, 1
   9              		.eabi_attribute 26, 1
  10              		.eabi_attribute 30, 1
  11              		.eabi_attribute 34, 1
  12              		.eabi_attribute 18, 4
  13              		.file	"usbd_core.c"
  14              		.text
  15              	.Ltext0:
  16              		.cfi_sections	.debug_frame
  17              		.section	.text.USBD_Init,"ax",%progbits
  18              		.align	1
  19              		.global	USBD_Init
  20              		.syntax unified
  21              		.thumb
  22              		.thumb_func
  23              		.fpu fpv4-sp-d16
  25              	USBD_Init:
  26              	.LFB333:
  27              		.file 1 "Middlewares/ST/STM32_USB_Device_Library/Core/Src/usbd_core.c"
   1:Middlewares/ST/STM32_USB_Device_Library/Core/Src/usbd_core.c **** /**
   2:Middlewares/ST/STM32_USB_Device_Library/Core/Src/usbd_core.c ****   ******************************************************************************
   3:Middlewares/ST/STM32_USB_Device_Library/Core/Src/usbd_core.c ****   * @file    usbd_core.c
   4:Middlewares/ST/STM32_USB_Device_Library/Core/Src/usbd_core.c ****   * @author  MCD Application Team
   5:Middlewares/ST/STM32_USB_Device_Library/Core/Src/usbd_core.c ****   * @brief   This file provides all the USBD core functions.
   6:Middlewares/ST/STM32_USB_Device_Library/Core/Src/usbd_core.c ****   ******************************************************************************
   7:Middlewares/ST/STM32_USB_Device_Library/Core/Src/usbd_core.c ****   * @attention
   8:Middlewares/ST/STM32_USB_Device_Library/Core/Src/usbd_core.c ****   *
   9:Middlewares/ST/STM32_USB_Device_Library/Core/Src/usbd_core.c ****   * <h2><center>&copy; Copyright (c) 2015 STMicroelectronics.
  10:Middlewares/ST/STM32_USB_Device_Library/Core/Src/usbd_core.c ****   * All rights reserved.</center></h2>
  11:Middlewares/ST/STM32_USB_Device_Library/Core/Src/usbd_core.c ****   *
  12:Middlewares/ST/STM32_USB_Device_Library/Core/Src/usbd_core.c ****   * This software component is licensed by ST under Ultimate Liberty license
  13:Middlewares/ST/STM32_USB_Device_Library/Core/Src/usbd_core.c ****   * SLA0044, the "License"; You may not use this file except in compliance with
  14:Middlewares/ST/STM32_USB_Device_Library/Core/Src/usbd_core.c ****   * the License. You may obtain a copy of the License at:
  15:Middlewares/ST/STM32_USB_Device_Library/Core/Src/usbd_core.c ****   *                      www.st.com/SLA0044
  16:Middlewares/ST/STM32_USB_Device_Library/Core/Src/usbd_core.c ****   *
  17:Middlewares/ST/STM32_USB_Device_Library/Core/Src/usbd_core.c ****   ******************************************************************************
  18:Middlewares/ST/STM32_USB_Device_Library/Core/Src/usbd_core.c ****   */
  19:Middlewares/ST/STM32_USB_Device_Library/Core/Src/usbd_core.c **** 
  20:Middlewares/ST/STM32_USB_Device_Library/Core/Src/usbd_core.c **** /* Includes ------------------------------------------------------------------*/
  21:Middlewares/ST/STM32_USB_Device_Library/Core/Src/usbd_core.c **** #include "usbd_core.h"
  22:Middlewares/ST/STM32_USB_Device_Library/Core/Src/usbd_core.c **** 
  23:Middlewares/ST/STM32_USB_Device_Library/Core/Src/usbd_core.c **** /** @addtogroup STM32_USBD_DEVICE_LIBRARY
  24:Middlewares/ST/STM32_USB_Device_Library/Core/Src/usbd_core.c ****   * @{
  25:Middlewares/ST/STM32_USB_Device_Library/Core/Src/usbd_core.c ****   */
  26:Middlewares/ST/STM32_USB_Device_Library/Core/Src/usbd_core.c **** 
  27:Middlewares/ST/STM32_USB_Device_Library/Core/Src/usbd_core.c **** 
  28:Middlewares/ST/STM32_USB_Device_Library/Core/Src/usbd_core.c **** /** @defgroup USBD_CORE
  29:Middlewares/ST/STM32_USB_Device_Library/Core/Src/usbd_core.c ****   * @brief usbd core module
  30:Middlewares/ST/STM32_USB_Device_Library/Core/Src/usbd_core.c ****   * @{
  31:Middlewares/ST/STM32_USB_Device_Library/Core/Src/usbd_core.c ****   */
ARM GAS  /tmp/cc9FZSxU.s 			page 2


  32:Middlewares/ST/STM32_USB_Device_Library/Core/Src/usbd_core.c **** 
  33:Middlewares/ST/STM32_USB_Device_Library/Core/Src/usbd_core.c **** /** @defgroup USBD_CORE_Private_TypesDefinitions
  34:Middlewares/ST/STM32_USB_Device_Library/Core/Src/usbd_core.c ****   * @{
  35:Middlewares/ST/STM32_USB_Device_Library/Core/Src/usbd_core.c ****   */
  36:Middlewares/ST/STM32_USB_Device_Library/Core/Src/usbd_core.c **** 
  37:Middlewares/ST/STM32_USB_Device_Library/Core/Src/usbd_core.c **** /**
  38:Middlewares/ST/STM32_USB_Device_Library/Core/Src/usbd_core.c ****   * @}
  39:Middlewares/ST/STM32_USB_Device_Library/Core/Src/usbd_core.c ****   */
  40:Middlewares/ST/STM32_USB_Device_Library/Core/Src/usbd_core.c **** 
  41:Middlewares/ST/STM32_USB_Device_Library/Core/Src/usbd_core.c **** 
  42:Middlewares/ST/STM32_USB_Device_Library/Core/Src/usbd_core.c **** /** @defgroup USBD_CORE_Private_Defines
  43:Middlewares/ST/STM32_USB_Device_Library/Core/Src/usbd_core.c ****   * @{
  44:Middlewares/ST/STM32_USB_Device_Library/Core/Src/usbd_core.c ****   */
  45:Middlewares/ST/STM32_USB_Device_Library/Core/Src/usbd_core.c **** 
  46:Middlewares/ST/STM32_USB_Device_Library/Core/Src/usbd_core.c **** /**
  47:Middlewares/ST/STM32_USB_Device_Library/Core/Src/usbd_core.c ****   * @}
  48:Middlewares/ST/STM32_USB_Device_Library/Core/Src/usbd_core.c ****   */
  49:Middlewares/ST/STM32_USB_Device_Library/Core/Src/usbd_core.c **** 
  50:Middlewares/ST/STM32_USB_Device_Library/Core/Src/usbd_core.c **** 
  51:Middlewares/ST/STM32_USB_Device_Library/Core/Src/usbd_core.c **** /** @defgroup USBD_CORE_Private_Macros
  52:Middlewares/ST/STM32_USB_Device_Library/Core/Src/usbd_core.c ****   * @{
  53:Middlewares/ST/STM32_USB_Device_Library/Core/Src/usbd_core.c ****   */
  54:Middlewares/ST/STM32_USB_Device_Library/Core/Src/usbd_core.c **** 
  55:Middlewares/ST/STM32_USB_Device_Library/Core/Src/usbd_core.c **** /**
  56:Middlewares/ST/STM32_USB_Device_Library/Core/Src/usbd_core.c ****   * @}
  57:Middlewares/ST/STM32_USB_Device_Library/Core/Src/usbd_core.c ****   */
  58:Middlewares/ST/STM32_USB_Device_Library/Core/Src/usbd_core.c **** 
  59:Middlewares/ST/STM32_USB_Device_Library/Core/Src/usbd_core.c **** 
  60:Middlewares/ST/STM32_USB_Device_Library/Core/Src/usbd_core.c **** /** @defgroup USBD_CORE_Private_FunctionPrototypes
  61:Middlewares/ST/STM32_USB_Device_Library/Core/Src/usbd_core.c ****   * @{
  62:Middlewares/ST/STM32_USB_Device_Library/Core/Src/usbd_core.c ****   */
  63:Middlewares/ST/STM32_USB_Device_Library/Core/Src/usbd_core.c **** 
  64:Middlewares/ST/STM32_USB_Device_Library/Core/Src/usbd_core.c **** /**
  65:Middlewares/ST/STM32_USB_Device_Library/Core/Src/usbd_core.c ****   * @}
  66:Middlewares/ST/STM32_USB_Device_Library/Core/Src/usbd_core.c ****   */
  67:Middlewares/ST/STM32_USB_Device_Library/Core/Src/usbd_core.c **** 
  68:Middlewares/ST/STM32_USB_Device_Library/Core/Src/usbd_core.c **** /** @defgroup USBD_CORE_Private_Variables
  69:Middlewares/ST/STM32_USB_Device_Library/Core/Src/usbd_core.c ****   * @{
  70:Middlewares/ST/STM32_USB_Device_Library/Core/Src/usbd_core.c ****   */
  71:Middlewares/ST/STM32_USB_Device_Library/Core/Src/usbd_core.c **** 
  72:Middlewares/ST/STM32_USB_Device_Library/Core/Src/usbd_core.c **** /**
  73:Middlewares/ST/STM32_USB_Device_Library/Core/Src/usbd_core.c ****   * @}
  74:Middlewares/ST/STM32_USB_Device_Library/Core/Src/usbd_core.c ****   */
  75:Middlewares/ST/STM32_USB_Device_Library/Core/Src/usbd_core.c **** 
  76:Middlewares/ST/STM32_USB_Device_Library/Core/Src/usbd_core.c **** 
  77:Middlewares/ST/STM32_USB_Device_Library/Core/Src/usbd_core.c **** /** @defgroup USBD_CORE_Private_Functions
  78:Middlewares/ST/STM32_USB_Device_Library/Core/Src/usbd_core.c ****   * @{
  79:Middlewares/ST/STM32_USB_Device_Library/Core/Src/usbd_core.c ****   */
  80:Middlewares/ST/STM32_USB_Device_Library/Core/Src/usbd_core.c **** 
  81:Middlewares/ST/STM32_USB_Device_Library/Core/Src/usbd_core.c **** /**
  82:Middlewares/ST/STM32_USB_Device_Library/Core/Src/usbd_core.c ****   * @brief  USBD_Init
  83:Middlewares/ST/STM32_USB_Device_Library/Core/Src/usbd_core.c ****   *         Initializes the device stack and load the class driver
  84:Middlewares/ST/STM32_USB_Device_Library/Core/Src/usbd_core.c ****   * @param  pdev: device instance
  85:Middlewares/ST/STM32_USB_Device_Library/Core/Src/usbd_core.c ****   * @param  pdesc: Descriptor structure address
  86:Middlewares/ST/STM32_USB_Device_Library/Core/Src/usbd_core.c ****   * @param  id: Low level core index
  87:Middlewares/ST/STM32_USB_Device_Library/Core/Src/usbd_core.c ****   * @retval None
  88:Middlewares/ST/STM32_USB_Device_Library/Core/Src/usbd_core.c ****   */
ARM GAS  /tmp/cc9FZSxU.s 			page 3


  89:Middlewares/ST/STM32_USB_Device_Library/Core/Src/usbd_core.c **** USBD_StatusTypeDef USBD_Init(USBD_HandleTypeDef *pdev,
  90:Middlewares/ST/STM32_USB_Device_Library/Core/Src/usbd_core.c ****                              USBD_DescriptorsTypeDef *pdesc, uint8_t id)
  91:Middlewares/ST/STM32_USB_Device_Library/Core/Src/usbd_core.c **** {
  28              		.loc 1 91 0
  29              		.cfi_startproc
  30              		@ args = 0, pretend = 0, frame = 0
  31              		@ frame_needed = 0, uses_anonymous_args = 0
  32              	.LVL0:
  92:Middlewares/ST/STM32_USB_Device_Library/Core/Src/usbd_core.c ****   USBD_StatusTypeDef ret;
  93:Middlewares/ST/STM32_USB_Device_Library/Core/Src/usbd_core.c **** 
  94:Middlewares/ST/STM32_USB_Device_Library/Core/Src/usbd_core.c ****   /* Check whether the USB Host handle is valid */
  95:Middlewares/ST/STM32_USB_Device_Library/Core/Src/usbd_core.c ****   if (pdev == NULL)
  33              		.loc 1 95 0
  34 0000 98B1     		cbz	r0, .L4
  91:Middlewares/ST/STM32_USB_Device_Library/Core/Src/usbd_core.c ****   USBD_StatusTypeDef ret;
  35              		.loc 1 91 0
  36 0002 08B5     		push	{r3, lr}
  37              	.LCFI0:
  38              		.cfi_def_cfa_offset 8
  39              		.cfi_offset 3, -8
  40              		.cfi_offset 14, -4
  41 0004 0346     		mov	r3, r0
  96:Middlewares/ST/STM32_USB_Device_Library/Core/Src/usbd_core.c ****   {
  97:Middlewares/ST/STM32_USB_Device_Library/Core/Src/usbd_core.c **** #if (USBD_DEBUG_LEVEL > 1U)
  98:Middlewares/ST/STM32_USB_Device_Library/Core/Src/usbd_core.c ****     USBD_ErrLog("Invalid Device handle");
  99:Middlewares/ST/STM32_USB_Device_Library/Core/Src/usbd_core.c **** #endif
 100:Middlewares/ST/STM32_USB_Device_Library/Core/Src/usbd_core.c ****     return USBD_FAIL;
 101:Middlewares/ST/STM32_USB_Device_Library/Core/Src/usbd_core.c ****   }
 102:Middlewares/ST/STM32_USB_Device_Library/Core/Src/usbd_core.c **** 
 103:Middlewares/ST/STM32_USB_Device_Library/Core/Src/usbd_core.c ****   /* Unlink previous class resources */
 104:Middlewares/ST/STM32_USB_Device_Library/Core/Src/usbd_core.c ****   pdev->pClass = NULL;
  42              		.loc 1 104 0
  43 0006 0020     		movs	r0, #0
  44              	.LVL1:
  45 0008 C3F8B802 		str	r0, [r3, #696]
 105:Middlewares/ST/STM32_USB_Device_Library/Core/Src/usbd_core.c ****   pdev->pUserData = NULL;
  46              		.loc 1 105 0
  47 000c C3F8C002 		str	r0, [r3, #704]
 106:Middlewares/ST/STM32_USB_Device_Library/Core/Src/usbd_core.c ****   pdev->pConfDesc = NULL;
  48              		.loc 1 106 0
  49 0010 C3F8CC02 		str	r0, [r3, #716]
 107:Middlewares/ST/STM32_USB_Device_Library/Core/Src/usbd_core.c **** 
 108:Middlewares/ST/STM32_USB_Device_Library/Core/Src/usbd_core.c ****   /* Assign USBD Descriptors */
 109:Middlewares/ST/STM32_USB_Device_Library/Core/Src/usbd_core.c ****   if (pdesc != NULL)
  50              		.loc 1 109 0
  51 0014 09B1     		cbz	r1, .L3
 110:Middlewares/ST/STM32_USB_Device_Library/Core/Src/usbd_core.c ****   {
 111:Middlewares/ST/STM32_USB_Device_Library/Core/Src/usbd_core.c ****     pdev->pDesc = pdesc;
  52              		.loc 1 111 0
  53 0016 C3F8B412 		str	r1, [r3, #692]
  54              	.L3:
  55 001a 1846     		mov	r0, r3
 112:Middlewares/ST/STM32_USB_Device_Library/Core/Src/usbd_core.c ****   }
 113:Middlewares/ST/STM32_USB_Device_Library/Core/Src/usbd_core.c **** 
 114:Middlewares/ST/STM32_USB_Device_Library/Core/Src/usbd_core.c ****   /* Set Device initial State */
 115:Middlewares/ST/STM32_USB_Device_Library/Core/Src/usbd_core.c ****   pdev->dev_state = USBD_STATE_DEFAULT;
  56              		.loc 1 115 0
ARM GAS  /tmp/cc9FZSxU.s 			page 4


  57 001c 0123     		movs	r3, #1
  58              	.LVL2:
  59 001e 80F89C32 		strb	r3, [r0, #668]
 116:Middlewares/ST/STM32_USB_Device_Library/Core/Src/usbd_core.c ****   pdev->id = id;
  60              		.loc 1 116 0
  61 0022 0270     		strb	r2, [r0]
 117:Middlewares/ST/STM32_USB_Device_Library/Core/Src/usbd_core.c **** 
 118:Middlewares/ST/STM32_USB_Device_Library/Core/Src/usbd_core.c ****   /* Initialize low level driver */
 119:Middlewares/ST/STM32_USB_Device_Library/Core/Src/usbd_core.c ****   ret = USBD_LL_Init(pdev);
  62              		.loc 1 119 0
  63 0024 FFF7FEFF 		bl	USBD_LL_Init
  64              	.LVL3:
 120:Middlewares/ST/STM32_USB_Device_Library/Core/Src/usbd_core.c **** 
 121:Middlewares/ST/STM32_USB_Device_Library/Core/Src/usbd_core.c ****   return ret;
 122:Middlewares/ST/STM32_USB_Device_Library/Core/Src/usbd_core.c **** }
  65              		.loc 1 122 0
  66 0028 08BD     		pop	{r3, pc}
  67              	.LVL4:
  68              	.L4:
  69              	.LCFI1:
  70              		.cfi_def_cfa_offset 0
  71              		.cfi_restore 3
  72              		.cfi_restore 14
 100:Middlewares/ST/STM32_USB_Device_Library/Core/Src/usbd_core.c ****   }
  73              		.loc 1 100 0
  74 002a 0320     		movs	r0, #3
  75              	.LVL5:
  76              		.loc 1 122 0
  77 002c 7047     		bx	lr
  78              		.cfi_endproc
  79              	.LFE333:
  81              		.section	.text.USBD_DeInit,"ax",%progbits
  82              		.align	1
  83              		.global	USBD_DeInit
  84              		.syntax unified
  85              		.thumb
  86              		.thumb_func
  87              		.fpu fpv4-sp-d16
  89              	USBD_DeInit:
  90              	.LFB334:
 123:Middlewares/ST/STM32_USB_Device_Library/Core/Src/usbd_core.c **** 
 124:Middlewares/ST/STM32_USB_Device_Library/Core/Src/usbd_core.c **** /**
 125:Middlewares/ST/STM32_USB_Device_Library/Core/Src/usbd_core.c ****   * @brief  USBD_DeInit
 126:Middlewares/ST/STM32_USB_Device_Library/Core/Src/usbd_core.c ****   *         Re-Initialize the device library
 127:Middlewares/ST/STM32_USB_Device_Library/Core/Src/usbd_core.c ****   * @param  pdev: device instance
 128:Middlewares/ST/STM32_USB_Device_Library/Core/Src/usbd_core.c ****   * @retval status: status
 129:Middlewares/ST/STM32_USB_Device_Library/Core/Src/usbd_core.c ****   */
 130:Middlewares/ST/STM32_USB_Device_Library/Core/Src/usbd_core.c **** USBD_StatusTypeDef USBD_DeInit(USBD_HandleTypeDef *pdev)
 131:Middlewares/ST/STM32_USB_Device_Library/Core/Src/usbd_core.c **** {
  91              		.loc 1 131 0
  92              		.cfi_startproc
  93              		@ args = 0, pretend = 0, frame = 0
  94              		@ frame_needed = 0, uses_anonymous_args = 0
  95              	.LVL6:
  96 0000 10B5     		push	{r4, lr}
  97              	.LCFI2:
  98              		.cfi_def_cfa_offset 8
ARM GAS  /tmp/cc9FZSxU.s 			page 5


  99              		.cfi_offset 4, -8
 100              		.cfi_offset 14, -4
 101 0002 0446     		mov	r4, r0
 132:Middlewares/ST/STM32_USB_Device_Library/Core/Src/usbd_core.c ****   USBD_StatusTypeDef ret;
 133:Middlewares/ST/STM32_USB_Device_Library/Core/Src/usbd_core.c **** 
 134:Middlewares/ST/STM32_USB_Device_Library/Core/Src/usbd_core.c ****   /* Disconnect the USB Device */
 135:Middlewares/ST/STM32_USB_Device_Library/Core/Src/usbd_core.c ****   (void)USBD_LL_Stop(pdev);
 102              		.loc 1 135 0
 103 0004 FFF7FEFF 		bl	USBD_LL_Stop
 104              	.LVL7:
 136:Middlewares/ST/STM32_USB_Device_Library/Core/Src/usbd_core.c **** 
 137:Middlewares/ST/STM32_USB_Device_Library/Core/Src/usbd_core.c ****   /* Set Default State */
 138:Middlewares/ST/STM32_USB_Device_Library/Core/Src/usbd_core.c ****   pdev->dev_state = USBD_STATE_DEFAULT;
 105              		.loc 1 138 0
 106 0008 0123     		movs	r3, #1
 107 000a 84F89C32 		strb	r3, [r4, #668]
 139:Middlewares/ST/STM32_USB_Device_Library/Core/Src/usbd_core.c **** 
 140:Middlewares/ST/STM32_USB_Device_Library/Core/Src/usbd_core.c ****   /* Free Class Resources */
 141:Middlewares/ST/STM32_USB_Device_Library/Core/Src/usbd_core.c ****   if (pdev->pClass != NULL)
 108              		.loc 1 141 0
 109 000e D4F8B832 		ldr	r3, [r4, #696]
 110 0012 43B1     		cbz	r3, .L10
 142:Middlewares/ST/STM32_USB_Device_Library/Core/Src/usbd_core.c ****   {
 143:Middlewares/ST/STM32_USB_Device_Library/Core/Src/usbd_core.c ****     pdev->pClass->DeInit(pdev, (uint8_t)pdev->dev_config);
 111              		.loc 1 143 0
 112 0014 5B68     		ldr	r3, [r3, #4]
 113 0016 2179     		ldrb	r1, [r4, #4]	@ zero_extendqisi2
 114 0018 2046     		mov	r0, r4
 115 001a 9847     		blx	r3
 116              	.LVL8:
 144:Middlewares/ST/STM32_USB_Device_Library/Core/Src/usbd_core.c ****     pdev->pClass = NULL;
 117              		.loc 1 144 0
 118 001c 0023     		movs	r3, #0
 119 001e C4F8B832 		str	r3, [r4, #696]
 145:Middlewares/ST/STM32_USB_Device_Library/Core/Src/usbd_core.c ****     pdev->pUserData = NULL;
 120              		.loc 1 145 0
 121 0022 C4F8C032 		str	r3, [r4, #704]
 122              	.L10:
 146:Middlewares/ST/STM32_USB_Device_Library/Core/Src/usbd_core.c ****   }
 147:Middlewares/ST/STM32_USB_Device_Library/Core/Src/usbd_core.c **** 
 148:Middlewares/ST/STM32_USB_Device_Library/Core/Src/usbd_core.c ****   /* Free Device descriptors resources */
 149:Middlewares/ST/STM32_USB_Device_Library/Core/Src/usbd_core.c ****   pdev->pDesc = NULL;
 123              		.loc 1 149 0
 124 0026 0023     		movs	r3, #0
 125 0028 C4F8B432 		str	r3, [r4, #692]
 150:Middlewares/ST/STM32_USB_Device_Library/Core/Src/usbd_core.c ****   pdev->pConfDesc = NULL;
 126              		.loc 1 150 0
 127 002c C4F8CC32 		str	r3, [r4, #716]
 151:Middlewares/ST/STM32_USB_Device_Library/Core/Src/usbd_core.c **** 
 152:Middlewares/ST/STM32_USB_Device_Library/Core/Src/usbd_core.c ****   /* DeInitialize low level driver */
 153:Middlewares/ST/STM32_USB_Device_Library/Core/Src/usbd_core.c ****   ret = USBD_LL_DeInit(pdev);
 128              		.loc 1 153 0
 129 0030 2046     		mov	r0, r4
 130 0032 FFF7FEFF 		bl	USBD_LL_DeInit
 131              	.LVL9:
 154:Middlewares/ST/STM32_USB_Device_Library/Core/Src/usbd_core.c **** 
 155:Middlewares/ST/STM32_USB_Device_Library/Core/Src/usbd_core.c ****   return ret;
ARM GAS  /tmp/cc9FZSxU.s 			page 6


 156:Middlewares/ST/STM32_USB_Device_Library/Core/Src/usbd_core.c **** }
 132              		.loc 1 156 0
 133 0036 10BD     		pop	{r4, pc}
 134              		.cfi_endproc
 135              	.LFE334:
 137              		.section	.text.USBD_RegisterClass,"ax",%progbits
 138              		.align	1
 139              		.global	USBD_RegisterClass
 140              		.syntax unified
 141              		.thumb
 142              		.thumb_func
 143              		.fpu fpv4-sp-d16
 145              	USBD_RegisterClass:
 146              	.LFB335:
 157:Middlewares/ST/STM32_USB_Device_Library/Core/Src/usbd_core.c **** 
 158:Middlewares/ST/STM32_USB_Device_Library/Core/Src/usbd_core.c **** /**
 159:Middlewares/ST/STM32_USB_Device_Library/Core/Src/usbd_core.c ****   * @brief  USBD_RegisterClass
 160:Middlewares/ST/STM32_USB_Device_Library/Core/Src/usbd_core.c ****   *         Link class driver to Device Core.
 161:Middlewares/ST/STM32_USB_Device_Library/Core/Src/usbd_core.c ****   * @param  pDevice : Device Handle
 162:Middlewares/ST/STM32_USB_Device_Library/Core/Src/usbd_core.c ****   * @param  pclass: Class handle
 163:Middlewares/ST/STM32_USB_Device_Library/Core/Src/usbd_core.c ****   * @retval USBD Status
 164:Middlewares/ST/STM32_USB_Device_Library/Core/Src/usbd_core.c ****   */
 165:Middlewares/ST/STM32_USB_Device_Library/Core/Src/usbd_core.c **** USBD_StatusTypeDef USBD_RegisterClass(USBD_HandleTypeDef *pdev, USBD_ClassTypeDef *pclass)
 166:Middlewares/ST/STM32_USB_Device_Library/Core/Src/usbd_core.c **** {
 147              		.loc 1 166 0
 148              		.cfi_startproc
 149              		@ args = 0, pretend = 0, frame = 8
 150              		@ frame_needed = 0, uses_anonymous_args = 0
 151              	.LVL10:
 152 0000 10B5     		push	{r4, lr}
 153              	.LCFI3:
 154              		.cfi_def_cfa_offset 8
 155              		.cfi_offset 4, -8
 156              		.cfi_offset 14, -4
 157 0002 82B0     		sub	sp, sp, #8
 158              	.LCFI4:
 159              		.cfi_def_cfa_offset 16
 167:Middlewares/ST/STM32_USB_Device_Library/Core/Src/usbd_core.c ****   uint16_t len = 0U;
 160              		.loc 1 167 0
 161 0004 0023     		movs	r3, #0
 162 0006 ADF80630 		strh	r3, [sp, #6]	@ movhi
 168:Middlewares/ST/STM32_USB_Device_Library/Core/Src/usbd_core.c **** 
 169:Middlewares/ST/STM32_USB_Device_Library/Core/Src/usbd_core.c ****   if (pclass == NULL)
 163              		.loc 1 169 0
 164 000a 61B1     		cbz	r1, .L14
 170:Middlewares/ST/STM32_USB_Device_Library/Core/Src/usbd_core.c ****   {
 171:Middlewares/ST/STM32_USB_Device_Library/Core/Src/usbd_core.c **** #if (USBD_DEBUG_LEVEL > 1U)
 172:Middlewares/ST/STM32_USB_Device_Library/Core/Src/usbd_core.c ****     USBD_ErrLog("Invalid Class handle");
 173:Middlewares/ST/STM32_USB_Device_Library/Core/Src/usbd_core.c **** #endif
 174:Middlewares/ST/STM32_USB_Device_Library/Core/Src/usbd_core.c ****     return USBD_FAIL;
 175:Middlewares/ST/STM32_USB_Device_Library/Core/Src/usbd_core.c ****   }
 176:Middlewares/ST/STM32_USB_Device_Library/Core/Src/usbd_core.c **** 
 177:Middlewares/ST/STM32_USB_Device_Library/Core/Src/usbd_core.c ****   /* link the class to the USB Device handle */
 178:Middlewares/ST/STM32_USB_Device_Library/Core/Src/usbd_core.c ****   pdev->pClass = pclass;
 165              		.loc 1 178 0
 166 000c C0F8B812 		str	r1, [r0, #696]
 179:Middlewares/ST/STM32_USB_Device_Library/Core/Src/usbd_core.c **** 
ARM GAS  /tmp/cc9FZSxU.s 			page 7


 180:Middlewares/ST/STM32_USB_Device_Library/Core/Src/usbd_core.c ****   /* Get Device Configuration Descriptor */
 181:Middlewares/ST/STM32_USB_Device_Library/Core/Src/usbd_core.c **** #ifdef USE_USB_HS
 182:Middlewares/ST/STM32_USB_Device_Library/Core/Src/usbd_core.c ****   if (pdev->pClass->GetHSConfigDescriptor != NULL)
 183:Middlewares/ST/STM32_USB_Device_Library/Core/Src/usbd_core.c ****   {
 184:Middlewares/ST/STM32_USB_Device_Library/Core/Src/usbd_core.c ****     pdev->pConfDesc = (void *)pdev->pClass->GetHSConfigDescriptor(&len);
 185:Middlewares/ST/STM32_USB_Device_Library/Core/Src/usbd_core.c ****   }
 186:Middlewares/ST/STM32_USB_Device_Library/Core/Src/usbd_core.c **** #else /* Default USE_USB_FS */
 187:Middlewares/ST/STM32_USB_Device_Library/Core/Src/usbd_core.c ****   if (pdev->pClass->GetFSConfigDescriptor != NULL)
 167              		.loc 1 187 0
 168 0010 CB6A     		ldr	r3, [r1, #44]
 169 0012 53B1     		cbz	r3, .L15
 170 0014 0446     		mov	r4, r0
 188:Middlewares/ST/STM32_USB_Device_Library/Core/Src/usbd_core.c ****   {
 189:Middlewares/ST/STM32_USB_Device_Library/Core/Src/usbd_core.c ****     pdev->pConfDesc = (void *)pdev->pClass->GetFSConfigDescriptor(&len);
 171              		.loc 1 189 0
 172 0016 0DF10600 		add	r0, sp, #6
 173              	.LVL11:
 174 001a 9847     		blx	r3
 175              	.LVL12:
 176 001c C4F8CC02 		str	r0, [r4, #716]
 190:Middlewares/ST/STM32_USB_Device_Library/Core/Src/usbd_core.c ****   }
 191:Middlewares/ST/STM32_USB_Device_Library/Core/Src/usbd_core.c **** #endif /* USE_USB_FS */
 192:Middlewares/ST/STM32_USB_Device_Library/Core/Src/usbd_core.c **** 
 193:Middlewares/ST/STM32_USB_Device_Library/Core/Src/usbd_core.c ****   return USBD_OK;
 177              		.loc 1 193 0
 178 0020 0020     		movs	r0, #0
 179              	.LVL13:
 180              	.L13:
 194:Middlewares/ST/STM32_USB_Device_Library/Core/Src/usbd_core.c **** }
 181              		.loc 1 194 0
 182 0022 02B0     		add	sp, sp, #8
 183              	.LCFI5:
 184              		.cfi_remember_state
 185              		.cfi_def_cfa_offset 8
 186              		@ sp needed
 187 0024 10BD     		pop	{r4, pc}
 188              	.LVL14:
 189              	.L14:
 190              	.LCFI6:
 191              		.cfi_restore_state
 174:Middlewares/ST/STM32_USB_Device_Library/Core/Src/usbd_core.c ****   }
 192              		.loc 1 174 0
 193 0026 0320     		movs	r0, #3
 194              	.LVL15:
 195 0028 FBE7     		b	.L13
 196              	.LVL16:
 197              	.L15:
 193:Middlewares/ST/STM32_USB_Device_Library/Core/Src/usbd_core.c **** }
 198              		.loc 1 193 0
 199 002a 0020     		movs	r0, #0
 200              	.LVL17:
 201 002c F9E7     		b	.L13
 202              		.cfi_endproc
 203              	.LFE335:
 205              		.section	.text.USBD_Start,"ax",%progbits
 206              		.align	1
 207              		.global	USBD_Start
ARM GAS  /tmp/cc9FZSxU.s 			page 8


 208              		.syntax unified
 209              		.thumb
 210              		.thumb_func
 211              		.fpu fpv4-sp-d16
 213              	USBD_Start:
 214              	.LFB336:
 195:Middlewares/ST/STM32_USB_Device_Library/Core/Src/usbd_core.c **** 
 196:Middlewares/ST/STM32_USB_Device_Library/Core/Src/usbd_core.c **** /**
 197:Middlewares/ST/STM32_USB_Device_Library/Core/Src/usbd_core.c ****   * @brief  USBD_Start
 198:Middlewares/ST/STM32_USB_Device_Library/Core/Src/usbd_core.c ****   *         Start the USB Device Core.
 199:Middlewares/ST/STM32_USB_Device_Library/Core/Src/usbd_core.c ****   * @param  pdev: Device Handle
 200:Middlewares/ST/STM32_USB_Device_Library/Core/Src/usbd_core.c ****   * @retval USBD Status
 201:Middlewares/ST/STM32_USB_Device_Library/Core/Src/usbd_core.c ****   */
 202:Middlewares/ST/STM32_USB_Device_Library/Core/Src/usbd_core.c **** USBD_StatusTypeDef USBD_Start(USBD_HandleTypeDef *pdev)
 203:Middlewares/ST/STM32_USB_Device_Library/Core/Src/usbd_core.c **** {
 215              		.loc 1 203 0
 216              		.cfi_startproc
 217              		@ args = 0, pretend = 0, frame = 0
 218              		@ frame_needed = 0, uses_anonymous_args = 0
 219              	.LVL18:
 220 0000 08B5     		push	{r3, lr}
 221              	.LCFI7:
 222              		.cfi_def_cfa_offset 8
 223              		.cfi_offset 3, -8
 224              		.cfi_offset 14, -4
 204:Middlewares/ST/STM32_USB_Device_Library/Core/Src/usbd_core.c ****   /* Start the low level driver  */
 205:Middlewares/ST/STM32_USB_Device_Library/Core/Src/usbd_core.c ****   return USBD_LL_Start(pdev);
 225              		.loc 1 205 0
 226 0002 FFF7FEFF 		bl	USBD_LL_Start
 227              	.LVL19:
 206:Middlewares/ST/STM32_USB_Device_Library/Core/Src/usbd_core.c **** }
 228              		.loc 1 206 0
 229 0006 08BD     		pop	{r3, pc}
 230              		.cfi_endproc
 231              	.LFE336:
 233              		.section	.text.USBD_Stop,"ax",%progbits
 234              		.align	1
 235              		.global	USBD_Stop
 236              		.syntax unified
 237              		.thumb
 238              		.thumb_func
 239              		.fpu fpv4-sp-d16
 241              	USBD_Stop:
 242              	.LFB337:
 207:Middlewares/ST/STM32_USB_Device_Library/Core/Src/usbd_core.c **** 
 208:Middlewares/ST/STM32_USB_Device_Library/Core/Src/usbd_core.c **** /**
 209:Middlewares/ST/STM32_USB_Device_Library/Core/Src/usbd_core.c ****   * @brief  USBD_Stop
 210:Middlewares/ST/STM32_USB_Device_Library/Core/Src/usbd_core.c ****   *         Stop the USB Device Core.
 211:Middlewares/ST/STM32_USB_Device_Library/Core/Src/usbd_core.c ****   * @param  pdev: Device Handle
 212:Middlewares/ST/STM32_USB_Device_Library/Core/Src/usbd_core.c ****   * @retval USBD Status
 213:Middlewares/ST/STM32_USB_Device_Library/Core/Src/usbd_core.c ****   */
 214:Middlewares/ST/STM32_USB_Device_Library/Core/Src/usbd_core.c **** USBD_StatusTypeDef USBD_Stop(USBD_HandleTypeDef *pdev)
 215:Middlewares/ST/STM32_USB_Device_Library/Core/Src/usbd_core.c **** {
 243              		.loc 1 215 0
 244              		.cfi_startproc
 245              		@ args = 0, pretend = 0, frame = 0
 246              		@ frame_needed = 0, uses_anonymous_args = 0
ARM GAS  /tmp/cc9FZSxU.s 			page 9


 247              	.LVL20:
 248 0000 10B5     		push	{r4, lr}
 249              	.LCFI8:
 250              		.cfi_def_cfa_offset 8
 251              		.cfi_offset 4, -8
 252              		.cfi_offset 14, -4
 253 0002 0446     		mov	r4, r0
 216:Middlewares/ST/STM32_USB_Device_Library/Core/Src/usbd_core.c ****   /* Disconnect USB Device */
 217:Middlewares/ST/STM32_USB_Device_Library/Core/Src/usbd_core.c ****   (void)USBD_LL_Stop(pdev);
 254              		.loc 1 217 0
 255 0004 FFF7FEFF 		bl	USBD_LL_Stop
 256              	.LVL21:
 218:Middlewares/ST/STM32_USB_Device_Library/Core/Src/usbd_core.c **** 
 219:Middlewares/ST/STM32_USB_Device_Library/Core/Src/usbd_core.c ****   /* Free Class Resources */
 220:Middlewares/ST/STM32_USB_Device_Library/Core/Src/usbd_core.c ****   if (pdev->pClass != NULL)
 257              		.loc 1 220 0
 258 0008 D4F8B832 		ldr	r3, [r4, #696]
 259 000c 1BB1     		cbz	r3, .L20
 221:Middlewares/ST/STM32_USB_Device_Library/Core/Src/usbd_core.c ****   {
 222:Middlewares/ST/STM32_USB_Device_Library/Core/Src/usbd_core.c ****     (void)pdev->pClass->DeInit(pdev, (uint8_t)pdev->dev_config);
 260              		.loc 1 222 0
 261 000e 5B68     		ldr	r3, [r3, #4]
 262 0010 2179     		ldrb	r1, [r4, #4]	@ zero_extendqisi2
 263 0012 2046     		mov	r0, r4
 264 0014 9847     		blx	r3
 265              	.LVL22:
 266              	.L20:
 223:Middlewares/ST/STM32_USB_Device_Library/Core/Src/usbd_core.c ****   }
 224:Middlewares/ST/STM32_USB_Device_Library/Core/Src/usbd_core.c **** 
 225:Middlewares/ST/STM32_USB_Device_Library/Core/Src/usbd_core.c ****   return USBD_OK;
 226:Middlewares/ST/STM32_USB_Device_Library/Core/Src/usbd_core.c **** }
 267              		.loc 1 226 0
 268 0016 0020     		movs	r0, #0
 269 0018 10BD     		pop	{r4, pc}
 270              		.cfi_endproc
 271              	.LFE337:
 273              		.section	.text.USBD_RunTestMode,"ax",%progbits
 274              		.align	1
 275              		.global	USBD_RunTestMode
 276              		.syntax unified
 277              		.thumb
 278              		.thumb_func
 279              		.fpu fpv4-sp-d16
 281              	USBD_RunTestMode:
 282              	.LFB338:
 227:Middlewares/ST/STM32_USB_Device_Library/Core/Src/usbd_core.c **** 
 228:Middlewares/ST/STM32_USB_Device_Library/Core/Src/usbd_core.c **** /**
 229:Middlewares/ST/STM32_USB_Device_Library/Core/Src/usbd_core.c ****   * @brief  USBD_RunTestMode
 230:Middlewares/ST/STM32_USB_Device_Library/Core/Src/usbd_core.c ****   *         Launch test mode process
 231:Middlewares/ST/STM32_USB_Device_Library/Core/Src/usbd_core.c ****   * @param  pdev: device instance
 232:Middlewares/ST/STM32_USB_Device_Library/Core/Src/usbd_core.c ****   * @retval status
 233:Middlewares/ST/STM32_USB_Device_Library/Core/Src/usbd_core.c ****   */
 234:Middlewares/ST/STM32_USB_Device_Library/Core/Src/usbd_core.c **** USBD_StatusTypeDef USBD_RunTestMode(USBD_HandleTypeDef  *pdev)
 235:Middlewares/ST/STM32_USB_Device_Library/Core/Src/usbd_core.c **** {
 283              		.loc 1 235 0
 284              		.cfi_startproc
 285              		@ args = 0, pretend = 0, frame = 0
ARM GAS  /tmp/cc9FZSxU.s 			page 10


 286              		@ frame_needed = 0, uses_anonymous_args = 0
 287              		@ link register save eliminated.
 288              	.LVL23:
 236:Middlewares/ST/STM32_USB_Device_Library/Core/Src/usbd_core.c ****   /* Prevent unused argument compilation warning */
 237:Middlewares/ST/STM32_USB_Device_Library/Core/Src/usbd_core.c ****   UNUSED(pdev);
 238:Middlewares/ST/STM32_USB_Device_Library/Core/Src/usbd_core.c **** 
 239:Middlewares/ST/STM32_USB_Device_Library/Core/Src/usbd_core.c ****   return USBD_OK;
 240:Middlewares/ST/STM32_USB_Device_Library/Core/Src/usbd_core.c **** }
 289              		.loc 1 240 0
 290 0000 0020     		movs	r0, #0
 291              	.LVL24:
 292 0002 7047     		bx	lr
 293              		.cfi_endproc
 294              	.LFE338:
 296              		.section	.text.USBD_SetClassConfig,"ax",%progbits
 297              		.align	1
 298              		.global	USBD_SetClassConfig
 299              		.syntax unified
 300              		.thumb
 301              		.thumb_func
 302              		.fpu fpv4-sp-d16
 304              	USBD_SetClassConfig:
 305              	.LFB339:
 241:Middlewares/ST/STM32_USB_Device_Library/Core/Src/usbd_core.c **** 
 242:Middlewares/ST/STM32_USB_Device_Library/Core/Src/usbd_core.c **** /**
 243:Middlewares/ST/STM32_USB_Device_Library/Core/Src/usbd_core.c ****   * @brief  USBD_SetClassConfig
 244:Middlewares/ST/STM32_USB_Device_Library/Core/Src/usbd_core.c ****   *        Configure device and start the interface
 245:Middlewares/ST/STM32_USB_Device_Library/Core/Src/usbd_core.c ****   * @param  pdev: device instance
 246:Middlewares/ST/STM32_USB_Device_Library/Core/Src/usbd_core.c ****   * @param  cfgidx: configuration index
 247:Middlewares/ST/STM32_USB_Device_Library/Core/Src/usbd_core.c ****   * @retval status
 248:Middlewares/ST/STM32_USB_Device_Library/Core/Src/usbd_core.c ****   */
 249:Middlewares/ST/STM32_USB_Device_Library/Core/Src/usbd_core.c **** 
 250:Middlewares/ST/STM32_USB_Device_Library/Core/Src/usbd_core.c **** USBD_StatusTypeDef USBD_SetClassConfig(USBD_HandleTypeDef *pdev, uint8_t cfgidx)
 251:Middlewares/ST/STM32_USB_Device_Library/Core/Src/usbd_core.c **** {
 306              		.loc 1 251 0
 307              		.cfi_startproc
 308              		@ args = 0, pretend = 0, frame = 0
 309              		@ frame_needed = 0, uses_anonymous_args = 0
 310              	.LVL25:
 311 0000 08B5     		push	{r3, lr}
 312              	.LCFI9:
 313              		.cfi_def_cfa_offset 8
 314              		.cfi_offset 3, -8
 315              		.cfi_offset 14, -4
 316              	.LVL26:
 252:Middlewares/ST/STM32_USB_Device_Library/Core/Src/usbd_core.c ****   USBD_StatusTypeDef ret = USBD_FAIL;
 253:Middlewares/ST/STM32_USB_Device_Library/Core/Src/usbd_core.c **** 
 254:Middlewares/ST/STM32_USB_Device_Library/Core/Src/usbd_core.c ****   if (pdev->pClass != NULL)
 317              		.loc 1 254 0
 318 0002 D0F8B832 		ldr	r3, [r0, #696]
 319 0006 13B1     		cbz	r3, .L25
 255:Middlewares/ST/STM32_USB_Device_Library/Core/Src/usbd_core.c ****   {
 256:Middlewares/ST/STM32_USB_Device_Library/Core/Src/usbd_core.c ****     /* Set configuration and Start the Class */
 257:Middlewares/ST/STM32_USB_Device_Library/Core/Src/usbd_core.c ****     ret = (USBD_StatusTypeDef)pdev->pClass->Init(pdev, cfgidx);
 320              		.loc 1 257 0
 321 0008 1B68     		ldr	r3, [r3]
 322 000a 9847     		blx	r3
ARM GAS  /tmp/cc9FZSxU.s 			page 11


 323              	.LVL27:
 324              	.L24:
 258:Middlewares/ST/STM32_USB_Device_Library/Core/Src/usbd_core.c ****   }
 259:Middlewares/ST/STM32_USB_Device_Library/Core/Src/usbd_core.c **** 
 260:Middlewares/ST/STM32_USB_Device_Library/Core/Src/usbd_core.c ****   return ret;
 261:Middlewares/ST/STM32_USB_Device_Library/Core/Src/usbd_core.c **** }
 325              		.loc 1 261 0
 326 000c 08BD     		pop	{r3, pc}
 327              	.LVL28:
 328              	.L25:
 252:Middlewares/ST/STM32_USB_Device_Library/Core/Src/usbd_core.c **** 
 329              		.loc 1 252 0
 330 000e 0320     		movs	r0, #3
 331              	.LVL29:
 332 0010 FCE7     		b	.L24
 333              		.cfi_endproc
 334              	.LFE339:
 336              		.section	.text.USBD_ClrClassConfig,"ax",%progbits
 337              		.align	1
 338              		.global	USBD_ClrClassConfig
 339              		.syntax unified
 340              		.thumb
 341              		.thumb_func
 342              		.fpu fpv4-sp-d16
 344              	USBD_ClrClassConfig:
 345              	.LFB340:
 262:Middlewares/ST/STM32_USB_Device_Library/Core/Src/usbd_core.c **** 
 263:Middlewares/ST/STM32_USB_Device_Library/Core/Src/usbd_core.c **** /**
 264:Middlewares/ST/STM32_USB_Device_Library/Core/Src/usbd_core.c ****   * @brief  USBD_ClrClassConfig
 265:Middlewares/ST/STM32_USB_Device_Library/Core/Src/usbd_core.c ****   *         Clear current configuration
 266:Middlewares/ST/STM32_USB_Device_Library/Core/Src/usbd_core.c ****   * @param  pdev: device instance
 267:Middlewares/ST/STM32_USB_Device_Library/Core/Src/usbd_core.c ****   * @param  cfgidx: configuration index
 268:Middlewares/ST/STM32_USB_Device_Library/Core/Src/usbd_core.c ****   * @retval status: USBD_StatusTypeDef
 269:Middlewares/ST/STM32_USB_Device_Library/Core/Src/usbd_core.c ****   */
 270:Middlewares/ST/STM32_USB_Device_Library/Core/Src/usbd_core.c **** USBD_StatusTypeDef USBD_ClrClassConfig(USBD_HandleTypeDef *pdev, uint8_t cfgidx)
 271:Middlewares/ST/STM32_USB_Device_Library/Core/Src/usbd_core.c **** {
 346              		.loc 1 271 0
 347              		.cfi_startproc
 348              		@ args = 0, pretend = 0, frame = 0
 349              		@ frame_needed = 0, uses_anonymous_args = 0
 350              	.LVL30:
 351 0000 08B5     		push	{r3, lr}
 352              	.LCFI10:
 353              		.cfi_def_cfa_offset 8
 354              		.cfi_offset 3, -8
 355              		.cfi_offset 14, -4
 272:Middlewares/ST/STM32_USB_Device_Library/Core/Src/usbd_core.c ****   /* Clear configuration and De-initialize the Class process */
 273:Middlewares/ST/STM32_USB_Device_Library/Core/Src/usbd_core.c ****   if (pdev->pClass != NULL)
 356              		.loc 1 273 0
 357 0002 D0F8B832 		ldr	r3, [r0, #696]
 358 0006 0BB1     		cbz	r3, .L28
 274:Middlewares/ST/STM32_USB_Device_Library/Core/Src/usbd_core.c ****   {
 275:Middlewares/ST/STM32_USB_Device_Library/Core/Src/usbd_core.c ****     pdev->pClass->DeInit(pdev, cfgidx);
 359              		.loc 1 275 0
 360 0008 5B68     		ldr	r3, [r3, #4]
 361 000a 9847     		blx	r3
 362              	.LVL31:
ARM GAS  /tmp/cc9FZSxU.s 			page 12


 363              	.L28:
 276:Middlewares/ST/STM32_USB_Device_Library/Core/Src/usbd_core.c ****   }
 277:Middlewares/ST/STM32_USB_Device_Library/Core/Src/usbd_core.c **** 
 278:Middlewares/ST/STM32_USB_Device_Library/Core/Src/usbd_core.c ****   return USBD_OK;
 279:Middlewares/ST/STM32_USB_Device_Library/Core/Src/usbd_core.c **** }
 364              		.loc 1 279 0
 365 000c 0020     		movs	r0, #0
 366 000e 08BD     		pop	{r3, pc}
 367              		.cfi_endproc
 368              	.LFE340:
 370              		.section	.text.USBD_LL_SetupStage,"ax",%progbits
 371              		.align	1
 372              		.global	USBD_LL_SetupStage
 373              		.syntax unified
 374              		.thumb
 375              		.thumb_func
 376              		.fpu fpv4-sp-d16
 378              	USBD_LL_SetupStage:
 379              	.LFB341:
 280:Middlewares/ST/STM32_USB_Device_Library/Core/Src/usbd_core.c **** 
 281:Middlewares/ST/STM32_USB_Device_Library/Core/Src/usbd_core.c **** 
 282:Middlewares/ST/STM32_USB_Device_Library/Core/Src/usbd_core.c **** /**
 283:Middlewares/ST/STM32_USB_Device_Library/Core/Src/usbd_core.c ****   * @brief  USBD_LL_SetupStage
 284:Middlewares/ST/STM32_USB_Device_Library/Core/Src/usbd_core.c ****   *         Handle the setup stage
 285:Middlewares/ST/STM32_USB_Device_Library/Core/Src/usbd_core.c ****   * @param  pdev: device instance
 286:Middlewares/ST/STM32_USB_Device_Library/Core/Src/usbd_core.c ****   * @retval status
 287:Middlewares/ST/STM32_USB_Device_Library/Core/Src/usbd_core.c ****   */
 288:Middlewares/ST/STM32_USB_Device_Library/Core/Src/usbd_core.c **** USBD_StatusTypeDef USBD_LL_SetupStage(USBD_HandleTypeDef *pdev, uint8_t *psetup)
 289:Middlewares/ST/STM32_USB_Device_Library/Core/Src/usbd_core.c **** {
 380              		.loc 1 289 0
 381              		.cfi_startproc
 382              		@ args = 0, pretend = 0, frame = 0
 383              		@ frame_needed = 0, uses_anonymous_args = 0
 384              	.LVL32:
 385 0000 38B5     		push	{r3, r4, r5, lr}
 386              	.LCFI11:
 387              		.cfi_def_cfa_offset 16
 388              		.cfi_offset 3, -16
 389              		.cfi_offset 4, -12
 390              		.cfi_offset 5, -8
 391              		.cfi_offset 14, -4
 392 0002 0446     		mov	r4, r0
 290:Middlewares/ST/STM32_USB_Device_Library/Core/Src/usbd_core.c ****   USBD_StatusTypeDef ret;
 291:Middlewares/ST/STM32_USB_Device_Library/Core/Src/usbd_core.c **** 
 292:Middlewares/ST/STM32_USB_Device_Library/Core/Src/usbd_core.c ****   USBD_ParseSetupRequest(&pdev->request, psetup);
 393              		.loc 1 292 0
 394 0004 00F2AA25 		addw	r5, r0, #682
 395 0008 2846     		mov	r0, r5
 396              	.LVL33:
 397 000a FFF7FEFF 		bl	USBD_ParseSetupRequest
 398              	.LVL34:
 293:Middlewares/ST/STM32_USB_Device_Library/Core/Src/usbd_core.c **** 
 294:Middlewares/ST/STM32_USB_Device_Library/Core/Src/usbd_core.c ****   pdev->ep0_state = USBD_EP0_SETUP;
 399              		.loc 1 294 0
 400 000e 0123     		movs	r3, #1
 401 0010 C4F89432 		str	r3, [r4, #660]
 295:Middlewares/ST/STM32_USB_Device_Library/Core/Src/usbd_core.c **** 
ARM GAS  /tmp/cc9FZSxU.s 			page 13


 296:Middlewares/ST/STM32_USB_Device_Library/Core/Src/usbd_core.c ****   pdev->ep0_data_len = pdev->request.wLength;
 402              		.loc 1 296 0
 403 0014 B4F8B032 		ldrh	r3, [r4, #688]
 404 0018 C4F89832 		str	r3, [r4, #664]
 297:Middlewares/ST/STM32_USB_Device_Library/Core/Src/usbd_core.c **** 
 298:Middlewares/ST/STM32_USB_Device_Library/Core/Src/usbd_core.c ****   switch (pdev->request.bmRequest & 0x1FU)
 405              		.loc 1 298 0
 406 001c 94F8AA12 		ldrb	r1, [r4, #682]	@ zero_extendqisi2
 407 0020 01F01F03 		and	r3, r1, #31
 408 0024 012B     		cmp	r3, #1
 409 0026 0DD0     		beq	.L32
 410 0028 3BB1     		cbz	r3, .L33
 411 002a 022B     		cmp	r3, #2
 412 002c 0FD0     		beq	.L34
 299:Middlewares/ST/STM32_USB_Device_Library/Core/Src/usbd_core.c ****   {
 300:Middlewares/ST/STM32_USB_Device_Library/Core/Src/usbd_core.c ****     case USB_REQ_RECIPIENT_DEVICE:
 301:Middlewares/ST/STM32_USB_Device_Library/Core/Src/usbd_core.c ****       ret = USBD_StdDevReq(pdev, &pdev->request);
 302:Middlewares/ST/STM32_USB_Device_Library/Core/Src/usbd_core.c ****       break;
 303:Middlewares/ST/STM32_USB_Device_Library/Core/Src/usbd_core.c **** 
 304:Middlewares/ST/STM32_USB_Device_Library/Core/Src/usbd_core.c ****     case USB_REQ_RECIPIENT_INTERFACE:
 305:Middlewares/ST/STM32_USB_Device_Library/Core/Src/usbd_core.c ****       ret = USBD_StdItfReq(pdev, &pdev->request);
 306:Middlewares/ST/STM32_USB_Device_Library/Core/Src/usbd_core.c ****       break;
 307:Middlewares/ST/STM32_USB_Device_Library/Core/Src/usbd_core.c **** 
 308:Middlewares/ST/STM32_USB_Device_Library/Core/Src/usbd_core.c ****     case USB_REQ_RECIPIENT_ENDPOINT:
 309:Middlewares/ST/STM32_USB_Device_Library/Core/Src/usbd_core.c ****       ret = USBD_StdEPReq(pdev, &pdev->request);
 310:Middlewares/ST/STM32_USB_Device_Library/Core/Src/usbd_core.c ****       break;
 311:Middlewares/ST/STM32_USB_Device_Library/Core/Src/usbd_core.c **** 
 312:Middlewares/ST/STM32_USB_Device_Library/Core/Src/usbd_core.c ****     default:
 313:Middlewares/ST/STM32_USB_Device_Library/Core/Src/usbd_core.c ****       ret = USBD_LL_StallEP(pdev, (pdev->request.bmRequest & 0x80U));
 413              		.loc 1 313 0
 414 002e 01F08001 		and	r1, r1, #128
 415 0032 2046     		mov	r0, r4
 416 0034 FFF7FEFF 		bl	USBD_LL_StallEP
 417              	.LVL35:
 314:Middlewares/ST/STM32_USB_Device_Library/Core/Src/usbd_core.c ****       break;
 418              		.loc 1 314 0
 419 0038 03E0     		b	.L35
 420              	.LVL36:
 421              	.L33:
 301:Middlewares/ST/STM32_USB_Device_Library/Core/Src/usbd_core.c ****       break;
 422              		.loc 1 301 0
 423 003a 2946     		mov	r1, r5
 424 003c 2046     		mov	r0, r4
 425 003e FFF7FEFF 		bl	USBD_StdDevReq
 426              	.LVL37:
 427              	.L35:
 315:Middlewares/ST/STM32_USB_Device_Library/Core/Src/usbd_core.c ****   }
 316:Middlewares/ST/STM32_USB_Device_Library/Core/Src/usbd_core.c **** 
 317:Middlewares/ST/STM32_USB_Device_Library/Core/Src/usbd_core.c ****   return ret;
 318:Middlewares/ST/STM32_USB_Device_Library/Core/Src/usbd_core.c **** }
 428              		.loc 1 318 0
 429 0042 38BD     		pop	{r3, r4, r5, pc}
 430              	.LVL38:
 431              	.L32:
 305:Middlewares/ST/STM32_USB_Device_Library/Core/Src/usbd_core.c ****       break;
 432              		.loc 1 305 0
 433 0044 2946     		mov	r1, r5
ARM GAS  /tmp/cc9FZSxU.s 			page 14


 434 0046 2046     		mov	r0, r4
 435 0048 FFF7FEFF 		bl	USBD_StdItfReq
 436              	.LVL39:
 306:Middlewares/ST/STM32_USB_Device_Library/Core/Src/usbd_core.c **** 
 437              		.loc 1 306 0
 438 004c F9E7     		b	.L35
 439              	.LVL40:
 440              	.L34:
 309:Middlewares/ST/STM32_USB_Device_Library/Core/Src/usbd_core.c ****       break;
 441              		.loc 1 309 0
 442 004e 2946     		mov	r1, r5
 443 0050 2046     		mov	r0, r4
 444 0052 FFF7FEFF 		bl	USBD_StdEPReq
 445              	.LVL41:
 310:Middlewares/ST/STM32_USB_Device_Library/Core/Src/usbd_core.c **** 
 446              		.loc 1 310 0
 447 0056 F4E7     		b	.L35
 448              		.cfi_endproc
 449              	.LFE341:
 451              		.section	.text.USBD_LL_DataOutStage,"ax",%progbits
 452              		.align	1
 453              		.global	USBD_LL_DataOutStage
 454              		.syntax unified
 455              		.thumb
 456              		.thumb_func
 457              		.fpu fpv4-sp-d16
 459              	USBD_LL_DataOutStage:
 460              	.LFB342:
 319:Middlewares/ST/STM32_USB_Device_Library/Core/Src/usbd_core.c **** 
 320:Middlewares/ST/STM32_USB_Device_Library/Core/Src/usbd_core.c **** /**
 321:Middlewares/ST/STM32_USB_Device_Library/Core/Src/usbd_core.c ****   * @brief  USBD_LL_DataOutStage
 322:Middlewares/ST/STM32_USB_Device_Library/Core/Src/usbd_core.c ****   *         Handle data OUT stage
 323:Middlewares/ST/STM32_USB_Device_Library/Core/Src/usbd_core.c ****   * @param  pdev: device instance
 324:Middlewares/ST/STM32_USB_Device_Library/Core/Src/usbd_core.c ****   * @param  epnum: endpoint index
 325:Middlewares/ST/STM32_USB_Device_Library/Core/Src/usbd_core.c ****   * @param  pdata: data pointer
 326:Middlewares/ST/STM32_USB_Device_Library/Core/Src/usbd_core.c ****   * @retval status
 327:Middlewares/ST/STM32_USB_Device_Library/Core/Src/usbd_core.c ****   */
 328:Middlewares/ST/STM32_USB_Device_Library/Core/Src/usbd_core.c **** USBD_StatusTypeDef USBD_LL_DataOutStage(USBD_HandleTypeDef *pdev,
 329:Middlewares/ST/STM32_USB_Device_Library/Core/Src/usbd_core.c ****                                         uint8_t epnum, uint8_t *pdata)
 330:Middlewares/ST/STM32_USB_Device_Library/Core/Src/usbd_core.c **** {
 461              		.loc 1 330 0
 462              		.cfi_startproc
 463              		@ args = 0, pretend = 0, frame = 0
 464              		@ frame_needed = 0, uses_anonymous_args = 0
 465              	.LVL42:
 466 0000 10B5     		push	{r4, lr}
 467              	.LCFI12:
 468              		.cfi_def_cfa_offset 8
 469              		.cfi_offset 4, -8
 470              		.cfi_offset 14, -4
 471 0002 0446     		mov	r4, r0
 331:Middlewares/ST/STM32_USB_Device_Library/Core/Src/usbd_core.c ****   USBD_EndpointTypeDef *pep;
 332:Middlewares/ST/STM32_USB_Device_Library/Core/Src/usbd_core.c ****   USBD_StatusTypeDef ret;
 333:Middlewares/ST/STM32_USB_Device_Library/Core/Src/usbd_core.c **** 
 334:Middlewares/ST/STM32_USB_Device_Library/Core/Src/usbd_core.c ****   if (epnum == 0U)
 472              		.loc 1 334 0
 473 0004 41BB     		cbnz	r1, .L39
ARM GAS  /tmp/cc9FZSxU.s 			page 15


 474 0006 1346     		mov	r3, r2
 475              	.LVL43:
 335:Middlewares/ST/STM32_USB_Device_Library/Core/Src/usbd_core.c ****   {
 336:Middlewares/ST/STM32_USB_Device_Library/Core/Src/usbd_core.c ****     pep = &pdev->ep_out[0];
 337:Middlewares/ST/STM32_USB_Device_Library/Core/Src/usbd_core.c **** 
 338:Middlewares/ST/STM32_USB_Device_Library/Core/Src/usbd_core.c ****     if (pdev->ep0_state == USBD_EP0_DATA_OUT)
 476              		.loc 1 338 0
 477 0008 D0F89422 		ldr	r2, [r0, #660]
 478              	.LVL44:
 479 000c 032A     		cmp	r2, #3
 480 000e 01D0     		beq	.L47
 339:Middlewares/ST/STM32_USB_Device_Library/Core/Src/usbd_core.c ****     {
 340:Middlewares/ST/STM32_USB_Device_Library/Core/Src/usbd_core.c ****       if (pep->rem_length > pep->maxpacket)
 341:Middlewares/ST/STM32_USB_Device_Library/Core/Src/usbd_core.c ****       {
 342:Middlewares/ST/STM32_USB_Device_Library/Core/Src/usbd_core.c ****         pep->rem_length -= pep->maxpacket;
 343:Middlewares/ST/STM32_USB_Device_Library/Core/Src/usbd_core.c **** 
 344:Middlewares/ST/STM32_USB_Device_Library/Core/Src/usbd_core.c ****         (void)USBD_CtlContinueRx(pdev, pdata, MIN(pep->rem_length, pep->maxpacket));
 345:Middlewares/ST/STM32_USB_Device_Library/Core/Src/usbd_core.c ****       }
 346:Middlewares/ST/STM32_USB_Device_Library/Core/Src/usbd_core.c ****       else
 347:Middlewares/ST/STM32_USB_Device_Library/Core/Src/usbd_core.c ****       {
 348:Middlewares/ST/STM32_USB_Device_Library/Core/Src/usbd_core.c ****         if (pdev->dev_state == USBD_STATE_CONFIGURED)
 349:Middlewares/ST/STM32_USB_Device_Library/Core/Src/usbd_core.c ****         {
 350:Middlewares/ST/STM32_USB_Device_Library/Core/Src/usbd_core.c ****           if (pdev->pClass->EP0_RxReady != NULL)
 351:Middlewares/ST/STM32_USB_Device_Library/Core/Src/usbd_core.c ****           {
 352:Middlewares/ST/STM32_USB_Device_Library/Core/Src/usbd_core.c ****             pdev->pClass->EP0_RxReady(pdev);
 353:Middlewares/ST/STM32_USB_Device_Library/Core/Src/usbd_core.c ****           }
 354:Middlewares/ST/STM32_USB_Device_Library/Core/Src/usbd_core.c ****         }
 355:Middlewares/ST/STM32_USB_Device_Library/Core/Src/usbd_core.c **** 
 356:Middlewares/ST/STM32_USB_Device_Library/Core/Src/usbd_core.c ****         (void)USBD_CtlSendStatus(pdev);
 357:Middlewares/ST/STM32_USB_Device_Library/Core/Src/usbd_core.c ****       }
 358:Middlewares/ST/STM32_USB_Device_Library/Core/Src/usbd_core.c ****     }
 359:Middlewares/ST/STM32_USB_Device_Library/Core/Src/usbd_core.c ****     else
 360:Middlewares/ST/STM32_USB_Device_Library/Core/Src/usbd_core.c ****     {
 361:Middlewares/ST/STM32_USB_Device_Library/Core/Src/usbd_core.c **** #if 0
 362:Middlewares/ST/STM32_USB_Device_Library/Core/Src/usbd_core.c ****       if (pdev->ep0_state == USBD_EP0_STATUS_OUT)
 363:Middlewares/ST/STM32_USB_Device_Library/Core/Src/usbd_core.c ****       {
 364:Middlewares/ST/STM32_USB_Device_Library/Core/Src/usbd_core.c ****         /*
 365:Middlewares/ST/STM32_USB_Device_Library/Core/Src/usbd_core.c ****           * STATUS PHASE completed, update ep0_state to idle
 366:Middlewares/ST/STM32_USB_Device_Library/Core/Src/usbd_core.c ****           */
 367:Middlewares/ST/STM32_USB_Device_Library/Core/Src/usbd_core.c ****         pdev->ep0_state = USBD_EP0_IDLE;
 368:Middlewares/ST/STM32_USB_Device_Library/Core/Src/usbd_core.c ****         (void)USBD_LL_StallEP(pdev, 0U);
 369:Middlewares/ST/STM32_USB_Device_Library/Core/Src/usbd_core.c ****       }
 370:Middlewares/ST/STM32_USB_Device_Library/Core/Src/usbd_core.c **** #endif
 371:Middlewares/ST/STM32_USB_Device_Library/Core/Src/usbd_core.c ****     }
 372:Middlewares/ST/STM32_USB_Device_Library/Core/Src/usbd_core.c ****   }
 373:Middlewares/ST/STM32_USB_Device_Library/Core/Src/usbd_core.c ****   else
 374:Middlewares/ST/STM32_USB_Device_Library/Core/Src/usbd_core.c ****   {
 375:Middlewares/ST/STM32_USB_Device_Library/Core/Src/usbd_core.c ****     if (pdev->dev_state == USBD_STATE_CONFIGURED)
 376:Middlewares/ST/STM32_USB_Device_Library/Core/Src/usbd_core.c ****     {
 377:Middlewares/ST/STM32_USB_Device_Library/Core/Src/usbd_core.c ****       if (pdev->pClass->DataOut != NULL)
 378:Middlewares/ST/STM32_USB_Device_Library/Core/Src/usbd_core.c ****       {
 379:Middlewares/ST/STM32_USB_Device_Library/Core/Src/usbd_core.c ****         ret = (USBD_StatusTypeDef)pdev->pClass->DataOut(pdev, epnum);
 380:Middlewares/ST/STM32_USB_Device_Library/Core/Src/usbd_core.c **** 
 381:Middlewares/ST/STM32_USB_Device_Library/Core/Src/usbd_core.c ****         if (ret != USBD_OK)
 382:Middlewares/ST/STM32_USB_Device_Library/Core/Src/usbd_core.c ****         {
 383:Middlewares/ST/STM32_USB_Device_Library/Core/Src/usbd_core.c ****           return ret;
 384:Middlewares/ST/STM32_USB_Device_Library/Core/Src/usbd_core.c ****         }
ARM GAS  /tmp/cc9FZSxU.s 			page 16


 385:Middlewares/ST/STM32_USB_Device_Library/Core/Src/usbd_core.c ****       }
 386:Middlewares/ST/STM32_USB_Device_Library/Core/Src/usbd_core.c ****     }
 387:Middlewares/ST/STM32_USB_Device_Library/Core/Src/usbd_core.c ****   }
 388:Middlewares/ST/STM32_USB_Device_Library/Core/Src/usbd_core.c **** 
 389:Middlewares/ST/STM32_USB_Device_Library/Core/Src/usbd_core.c ****   return USBD_OK;
 481              		.loc 1 389 0
 482 0010 0020     		movs	r0, #0
 483              	.LVL45:
 484              	.L40:
 390:Middlewares/ST/STM32_USB_Device_Library/Core/Src/usbd_core.c **** }
 485              		.loc 1 390 0
 486 0012 10BD     		pop	{r4, pc}
 487              	.LVL46:
 488              	.L47:
 340:Middlewares/ST/STM32_USB_Device_Library/Core/Src/usbd_core.c ****       {
 489              		.loc 1 340 0
 490 0014 D0F85C11 		ldr	r1, [r0, #348]
 491              	.LVL47:
 492 0018 D0F86021 		ldr	r2, [r0, #352]
 493 001c 9142     		cmp	r1, r2
 494 001e 09D8     		bhi	.L48
 348:Middlewares/ST/STM32_USB_Device_Library/Core/Src/usbd_core.c ****         {
 495              		.loc 1 348 0
 496 0020 90F89C32 		ldrb	r3, [r0, #668]	@ zero_extendqisi2
 497              	.LVL48:
 498 0024 DBB2     		uxtb	r3, r3
 499 0026 032B     		cmp	r3, #3
 500 0028 0FD0     		beq	.L49
 501              	.LVL49:
 502              	.L42:
 356:Middlewares/ST/STM32_USB_Device_Library/Core/Src/usbd_core.c ****       }
 503              		.loc 1 356 0
 504 002a 2046     		mov	r0, r4
 505 002c FFF7FEFF 		bl	USBD_CtlSendStatus
 506              	.LVL50:
 389:Middlewares/ST/STM32_USB_Device_Library/Core/Src/usbd_core.c **** }
 507              		.loc 1 389 0
 508 0030 0020     		movs	r0, #0
 509 0032 EEE7     		b	.L40
 510              	.LVL51:
 511              	.L48:
 342:Middlewares/ST/STM32_USB_Device_Library/Core/Src/usbd_core.c **** 
 512              		.loc 1 342 0
 513 0034 891A     		subs	r1, r1, r2
 514 0036 C0F85C11 		str	r1, [r0, #348]
 344:Middlewares/ST/STM32_USB_Device_Library/Core/Src/usbd_core.c ****       }
 515              		.loc 1 344 0
 516 003a 8A42     		cmp	r2, r1
 517 003c 28BF     		it	cs
 518 003e 0A46     		movcs	r2, r1
 519 0040 1946     		mov	r1, r3
 520 0042 FFF7FEFF 		bl	USBD_CtlContinueRx
 521              	.LVL52:
 389:Middlewares/ST/STM32_USB_Device_Library/Core/Src/usbd_core.c **** }
 522              		.loc 1 389 0
 523 0046 0020     		movs	r0, #0
 524 0048 E3E7     		b	.L40
ARM GAS  /tmp/cc9FZSxU.s 			page 17


 525              	.LVL53:
 526              	.L49:
 350:Middlewares/ST/STM32_USB_Device_Library/Core/Src/usbd_core.c ****           {
 527              		.loc 1 350 0
 528 004a D0F8B832 		ldr	r3, [r0, #696]
 529 004e 1B69     		ldr	r3, [r3, #16]
 530 0050 002B     		cmp	r3, #0
 531 0052 EAD0     		beq	.L42
 352:Middlewares/ST/STM32_USB_Device_Library/Core/Src/usbd_core.c ****           }
 532              		.loc 1 352 0
 533 0054 9847     		blx	r3
 534              	.LVL54:
 535 0056 E8E7     		b	.L42
 536              	.LVL55:
 537              	.L39:
 375:Middlewares/ST/STM32_USB_Device_Library/Core/Src/usbd_core.c ****     {
 538              		.loc 1 375 0
 539 0058 90F89C32 		ldrb	r3, [r0, #668]	@ zero_extendqisi2
 540 005c DBB2     		uxtb	r3, r3
 541 005e 032B     		cmp	r3, #3
 542 0060 01D0     		beq	.L50
 389:Middlewares/ST/STM32_USB_Device_Library/Core/Src/usbd_core.c **** }
 543              		.loc 1 389 0
 544 0062 0020     		movs	r0, #0
 545              	.LVL56:
 546 0064 D5E7     		b	.L40
 547              	.LVL57:
 548              	.L50:
 377:Middlewares/ST/STM32_USB_Device_Library/Core/Src/usbd_core.c ****       {
 549              		.loc 1 377 0
 550 0066 D0F8B832 		ldr	r3, [r0, #696]
 551 006a 9B69     		ldr	r3, [r3, #24]
 552 006c 0BB1     		cbz	r3, .L45
 379:Middlewares/ST/STM32_USB_Device_Library/Core/Src/usbd_core.c **** 
 553              		.loc 1 379 0
 554 006e 9847     		blx	r3
 555              	.LVL58:
 556 0070 CFE7     		b	.L40
 557              	.LVL59:
 558              	.L45:
 389:Middlewares/ST/STM32_USB_Device_Library/Core/Src/usbd_core.c **** }
 559              		.loc 1 389 0
 560 0072 0020     		movs	r0, #0
 561              	.LVL60:
 562 0074 CDE7     		b	.L40
 563              		.cfi_endproc
 564              	.LFE342:
 566              		.section	.text.USBD_LL_DataInStage,"ax",%progbits
 567              		.align	1
 568              		.global	USBD_LL_DataInStage
 569              		.syntax unified
 570              		.thumb
 571              		.thumb_func
 572              		.fpu fpv4-sp-d16
 574              	USBD_LL_DataInStage:
 575              	.LFB343:
 391:Middlewares/ST/STM32_USB_Device_Library/Core/Src/usbd_core.c **** 
ARM GAS  /tmp/cc9FZSxU.s 			page 18


 392:Middlewares/ST/STM32_USB_Device_Library/Core/Src/usbd_core.c **** /**
 393:Middlewares/ST/STM32_USB_Device_Library/Core/Src/usbd_core.c ****   * @brief  USBD_LL_DataInStage
 394:Middlewares/ST/STM32_USB_Device_Library/Core/Src/usbd_core.c ****   *         Handle data in stage
 395:Middlewares/ST/STM32_USB_Device_Library/Core/Src/usbd_core.c ****   * @param  pdev: device instance
 396:Middlewares/ST/STM32_USB_Device_Library/Core/Src/usbd_core.c ****   * @param  epnum: endpoint index
 397:Middlewares/ST/STM32_USB_Device_Library/Core/Src/usbd_core.c ****   * @retval status
 398:Middlewares/ST/STM32_USB_Device_Library/Core/Src/usbd_core.c ****   */
 399:Middlewares/ST/STM32_USB_Device_Library/Core/Src/usbd_core.c **** USBD_StatusTypeDef USBD_LL_DataInStage(USBD_HandleTypeDef *pdev,
 400:Middlewares/ST/STM32_USB_Device_Library/Core/Src/usbd_core.c ****                                        uint8_t epnum, uint8_t *pdata)
 401:Middlewares/ST/STM32_USB_Device_Library/Core/Src/usbd_core.c **** {
 576              		.loc 1 401 0
 577              		.cfi_startproc
 578              		@ args = 0, pretend = 0, frame = 0
 579              		@ frame_needed = 0, uses_anonymous_args = 0
 580              	.LVL61:
 581 0000 10B5     		push	{r4, lr}
 582              	.LCFI13:
 583              		.cfi_def_cfa_offset 8
 584              		.cfi_offset 4, -8
 585              		.cfi_offset 14, -4
 586 0002 0446     		mov	r4, r0
 402:Middlewares/ST/STM32_USB_Device_Library/Core/Src/usbd_core.c ****   USBD_EndpointTypeDef *pep;
 403:Middlewares/ST/STM32_USB_Device_Library/Core/Src/usbd_core.c ****   USBD_StatusTypeDef ret;
 404:Middlewares/ST/STM32_USB_Device_Library/Core/Src/usbd_core.c **** 
 405:Middlewares/ST/STM32_USB_Device_Library/Core/Src/usbd_core.c ****   if (epnum == 0U)
 587              		.loc 1 405 0
 588 0004 0029     		cmp	r1, #0
 589 0006 49D1     		bne	.L52
 590 0008 1346     		mov	r3, r2
 591              	.LVL62:
 406:Middlewares/ST/STM32_USB_Device_Library/Core/Src/usbd_core.c ****   {
 407:Middlewares/ST/STM32_USB_Device_Library/Core/Src/usbd_core.c ****     pep = &pdev->ep_in[0];
 408:Middlewares/ST/STM32_USB_Device_Library/Core/Src/usbd_core.c **** 
 409:Middlewares/ST/STM32_USB_Device_Library/Core/Src/usbd_core.c ****     if (pdev->ep0_state == USBD_EP0_DATA_IN)
 592              		.loc 1 409 0
 593 000a D0F89422 		ldr	r2, [r0, #660]
 594              	.LVL63:
 595 000e 022A     		cmp	r2, #2
 596 0010 05D0     		beq	.L62
 597              	.LVL64:
 598              	.L53:
 410:Middlewares/ST/STM32_USB_Device_Library/Core/Src/usbd_core.c ****     {
 411:Middlewares/ST/STM32_USB_Device_Library/Core/Src/usbd_core.c ****       if (pep->rem_length > pep->maxpacket)
 412:Middlewares/ST/STM32_USB_Device_Library/Core/Src/usbd_core.c ****       {
 413:Middlewares/ST/STM32_USB_Device_Library/Core/Src/usbd_core.c ****         pep->rem_length -= pep->maxpacket;
 414:Middlewares/ST/STM32_USB_Device_Library/Core/Src/usbd_core.c **** 
 415:Middlewares/ST/STM32_USB_Device_Library/Core/Src/usbd_core.c ****         (void)USBD_CtlContinueSendData(pdev, pdata, pep->rem_length);
 416:Middlewares/ST/STM32_USB_Device_Library/Core/Src/usbd_core.c **** 
 417:Middlewares/ST/STM32_USB_Device_Library/Core/Src/usbd_core.c ****         /* Prepare endpoint for premature end of transfer */
 418:Middlewares/ST/STM32_USB_Device_Library/Core/Src/usbd_core.c ****         (void)USBD_LL_PrepareReceive(pdev, 0U, NULL, 0U);
 419:Middlewares/ST/STM32_USB_Device_Library/Core/Src/usbd_core.c ****       }
 420:Middlewares/ST/STM32_USB_Device_Library/Core/Src/usbd_core.c ****       else
 421:Middlewares/ST/STM32_USB_Device_Library/Core/Src/usbd_core.c ****       {
 422:Middlewares/ST/STM32_USB_Device_Library/Core/Src/usbd_core.c ****         /* last packet is MPS multiple, so send ZLP packet */
 423:Middlewares/ST/STM32_USB_Device_Library/Core/Src/usbd_core.c ****         if ((pep->maxpacket == pep->rem_length) &&
 424:Middlewares/ST/STM32_USB_Device_Library/Core/Src/usbd_core.c ****             (pep->total_length >= pep->maxpacket) &&
 425:Middlewares/ST/STM32_USB_Device_Library/Core/Src/usbd_core.c ****             (pep->total_length < pdev->ep0_data_len))
ARM GAS  /tmp/cc9FZSxU.s 			page 19


 426:Middlewares/ST/STM32_USB_Device_Library/Core/Src/usbd_core.c ****         {
 427:Middlewares/ST/STM32_USB_Device_Library/Core/Src/usbd_core.c ****           (void)USBD_CtlContinueSendData(pdev, NULL, 0U);
 428:Middlewares/ST/STM32_USB_Device_Library/Core/Src/usbd_core.c ****           pdev->ep0_data_len = 0U;
 429:Middlewares/ST/STM32_USB_Device_Library/Core/Src/usbd_core.c **** 
 430:Middlewares/ST/STM32_USB_Device_Library/Core/Src/usbd_core.c ****           /* Prepare endpoint for premature end of transfer */
 431:Middlewares/ST/STM32_USB_Device_Library/Core/Src/usbd_core.c ****           (void)USBD_LL_PrepareReceive(pdev, 0U, NULL, 0U);
 432:Middlewares/ST/STM32_USB_Device_Library/Core/Src/usbd_core.c ****         }
 433:Middlewares/ST/STM32_USB_Device_Library/Core/Src/usbd_core.c ****         else
 434:Middlewares/ST/STM32_USB_Device_Library/Core/Src/usbd_core.c ****         {
 435:Middlewares/ST/STM32_USB_Device_Library/Core/Src/usbd_core.c ****           if (pdev->dev_state == USBD_STATE_CONFIGURED)
 436:Middlewares/ST/STM32_USB_Device_Library/Core/Src/usbd_core.c ****           {
 437:Middlewares/ST/STM32_USB_Device_Library/Core/Src/usbd_core.c ****             if (pdev->pClass->EP0_TxSent != NULL)
 438:Middlewares/ST/STM32_USB_Device_Library/Core/Src/usbd_core.c ****             {
 439:Middlewares/ST/STM32_USB_Device_Library/Core/Src/usbd_core.c ****               pdev->pClass->EP0_TxSent(pdev);
 440:Middlewares/ST/STM32_USB_Device_Library/Core/Src/usbd_core.c ****             }
 441:Middlewares/ST/STM32_USB_Device_Library/Core/Src/usbd_core.c ****           }
 442:Middlewares/ST/STM32_USB_Device_Library/Core/Src/usbd_core.c ****           (void)USBD_LL_StallEP(pdev, 0x80U);
 443:Middlewares/ST/STM32_USB_Device_Library/Core/Src/usbd_core.c ****           (void)USBD_CtlReceiveStatus(pdev);
 444:Middlewares/ST/STM32_USB_Device_Library/Core/Src/usbd_core.c ****         }
 445:Middlewares/ST/STM32_USB_Device_Library/Core/Src/usbd_core.c ****       }
 446:Middlewares/ST/STM32_USB_Device_Library/Core/Src/usbd_core.c ****     }
 447:Middlewares/ST/STM32_USB_Device_Library/Core/Src/usbd_core.c ****     else
 448:Middlewares/ST/STM32_USB_Device_Library/Core/Src/usbd_core.c ****     {
 449:Middlewares/ST/STM32_USB_Device_Library/Core/Src/usbd_core.c **** #if 0
 450:Middlewares/ST/STM32_USB_Device_Library/Core/Src/usbd_core.c ****       if ((pdev->ep0_state == USBD_EP0_STATUS_IN) ||
 451:Middlewares/ST/STM32_USB_Device_Library/Core/Src/usbd_core.c ****           (pdev->ep0_state == USBD_EP0_IDLE))
 452:Middlewares/ST/STM32_USB_Device_Library/Core/Src/usbd_core.c ****       {
 453:Middlewares/ST/STM32_USB_Device_Library/Core/Src/usbd_core.c ****         (void)USBD_LL_StallEP(pdev, 0x80U);
 454:Middlewares/ST/STM32_USB_Device_Library/Core/Src/usbd_core.c ****       }
 455:Middlewares/ST/STM32_USB_Device_Library/Core/Src/usbd_core.c **** #endif
 456:Middlewares/ST/STM32_USB_Device_Library/Core/Src/usbd_core.c ****     }
 457:Middlewares/ST/STM32_USB_Device_Library/Core/Src/usbd_core.c **** 
 458:Middlewares/ST/STM32_USB_Device_Library/Core/Src/usbd_core.c ****     if (pdev->dev_test_mode == 1U)
 599              		.loc 1 458 0
 600 0012 94F8A032 		ldrb	r3, [r4, #672]	@ zero_extendqisi2
 601 0016 012B     		cmp	r3, #1
 602 0018 3CD0     		beq	.L63
 459:Middlewares/ST/STM32_USB_Device_Library/Core/Src/usbd_core.c ****     {
 460:Middlewares/ST/STM32_USB_Device_Library/Core/Src/usbd_core.c ****       (void)USBD_RunTestMode(pdev);
 461:Middlewares/ST/STM32_USB_Device_Library/Core/Src/usbd_core.c ****       pdev->dev_test_mode = 0U;
 462:Middlewares/ST/STM32_USB_Device_Library/Core/Src/usbd_core.c ****     }
 463:Middlewares/ST/STM32_USB_Device_Library/Core/Src/usbd_core.c ****   }
 464:Middlewares/ST/STM32_USB_Device_Library/Core/Src/usbd_core.c ****   else
 465:Middlewares/ST/STM32_USB_Device_Library/Core/Src/usbd_core.c ****   {
 466:Middlewares/ST/STM32_USB_Device_Library/Core/Src/usbd_core.c ****     if (pdev->dev_state == USBD_STATE_CONFIGURED)
 467:Middlewares/ST/STM32_USB_Device_Library/Core/Src/usbd_core.c ****     {
 468:Middlewares/ST/STM32_USB_Device_Library/Core/Src/usbd_core.c ****       if (pdev->pClass->DataIn != NULL)
 469:Middlewares/ST/STM32_USB_Device_Library/Core/Src/usbd_core.c ****       {
 470:Middlewares/ST/STM32_USB_Device_Library/Core/Src/usbd_core.c ****         ret = (USBD_StatusTypeDef)pdev->pClass->DataIn(pdev, epnum);
 471:Middlewares/ST/STM32_USB_Device_Library/Core/Src/usbd_core.c **** 
 472:Middlewares/ST/STM32_USB_Device_Library/Core/Src/usbd_core.c ****         if (ret != USBD_OK)
 473:Middlewares/ST/STM32_USB_Device_Library/Core/Src/usbd_core.c ****         {
 474:Middlewares/ST/STM32_USB_Device_Library/Core/Src/usbd_core.c ****           return ret;
 475:Middlewares/ST/STM32_USB_Device_Library/Core/Src/usbd_core.c ****         }
 476:Middlewares/ST/STM32_USB_Device_Library/Core/Src/usbd_core.c ****       }
 477:Middlewares/ST/STM32_USB_Device_Library/Core/Src/usbd_core.c ****     }
 478:Middlewares/ST/STM32_USB_Device_Library/Core/Src/usbd_core.c ****   }
ARM GAS  /tmp/cc9FZSxU.s 			page 20


 479:Middlewares/ST/STM32_USB_Device_Library/Core/Src/usbd_core.c **** 
 480:Middlewares/ST/STM32_USB_Device_Library/Core/Src/usbd_core.c ****   return USBD_OK;
 603              		.loc 1 480 0
 604 001a 0020     		movs	r0, #0
 605              	.LVL65:
 606              	.L57:
 481:Middlewares/ST/STM32_USB_Device_Library/Core/Src/usbd_core.c **** }
 607              		.loc 1 481 0
 608 001c 10BD     		pop	{r4, pc}
 609              	.LVL66:
 610              	.L62:
 411:Middlewares/ST/STM32_USB_Device_Library/Core/Src/usbd_core.c ****       {
 611              		.loc 1 411 0
 612 001e C269     		ldr	r2, [r0, #28]
 613 0020 016A     		ldr	r1, [r0, #32]
 614              	.LVL67:
 615 0022 8A42     		cmp	r2, r1
 616 0024 0ED8     		bhi	.L64
 423:Middlewares/ST/STM32_USB_Device_Library/Core/Src/usbd_core.c ****             (pep->total_length >= pep->maxpacket) &&
 617              		.loc 1 423 0
 618 0026 8A42     		cmp	r2, r1
 619 0028 18D0     		beq	.L65
 620              	.LVL68:
 621              	.L55:
 435:Middlewares/ST/STM32_USB_Device_Library/Core/Src/usbd_core.c ****           {
 622              		.loc 1 435 0
 623 002a 94F89C32 		ldrb	r3, [r4, #668]	@ zero_extendqisi2
 624 002e DBB2     		uxtb	r3, r3
 625 0030 032B     		cmp	r3, #3
 626 0032 27D0     		beq	.L66
 627              	.LVL69:
 628              	.L56:
 442:Middlewares/ST/STM32_USB_Device_Library/Core/Src/usbd_core.c ****           (void)USBD_CtlReceiveStatus(pdev);
 629              		.loc 1 442 0
 630 0034 8021     		movs	r1, #128
 631 0036 2046     		mov	r0, r4
 632 0038 FFF7FEFF 		bl	USBD_LL_StallEP
 633              	.LVL70:
 443:Middlewares/ST/STM32_USB_Device_Library/Core/Src/usbd_core.c ****         }
 634              		.loc 1 443 0
 635 003c 2046     		mov	r0, r4
 636 003e FFF7FEFF 		bl	USBD_CtlReceiveStatus
 637              	.LVL71:
 638 0042 E6E7     		b	.L53
 639              	.LVL72:
 640              	.L64:
 413:Middlewares/ST/STM32_USB_Device_Library/Core/Src/usbd_core.c **** 
 641              		.loc 1 413 0
 642 0044 521A     		subs	r2, r2, r1
 643 0046 C261     		str	r2, [r0, #28]
 415:Middlewares/ST/STM32_USB_Device_Library/Core/Src/usbd_core.c **** 
 644              		.loc 1 415 0
 645 0048 1946     		mov	r1, r3
 646 004a FFF7FEFF 		bl	USBD_CtlContinueSendData
 647              	.LVL73:
 418:Middlewares/ST/STM32_USB_Device_Library/Core/Src/usbd_core.c ****       }
 648              		.loc 1 418 0
ARM GAS  /tmp/cc9FZSxU.s 			page 21


 649 004e 0023     		movs	r3, #0
 650 0050 1A46     		mov	r2, r3
 651 0052 1946     		mov	r1, r3
 652 0054 2046     		mov	r0, r4
 653 0056 FFF7FEFF 		bl	USBD_LL_PrepareReceive
 654              	.LVL74:
 655 005a DAE7     		b	.L53
 656              	.LVL75:
 657              	.L65:
 424:Middlewares/ST/STM32_USB_Device_Library/Core/Src/usbd_core.c ****             (pep->total_length < pdev->ep0_data_len))
 658              		.loc 1 424 0 discriminator 1
 659 005c 8369     		ldr	r3, [r0, #24]
 660              	.LVL76:
 423:Middlewares/ST/STM32_USB_Device_Library/Core/Src/usbd_core.c ****             (pep->total_length >= pep->maxpacket) &&
 661              		.loc 1 423 0 discriminator 1
 662 005e 9942     		cmp	r1, r3
 663 0060 E3D8     		bhi	.L55
 425:Middlewares/ST/STM32_USB_Device_Library/Core/Src/usbd_core.c ****         {
 664              		.loc 1 425 0
 665 0062 D0F89822 		ldr	r2, [r0, #664]
 424:Middlewares/ST/STM32_USB_Device_Library/Core/Src/usbd_core.c ****             (pep->total_length < pdev->ep0_data_len))
 666              		.loc 1 424 0
 667 0066 9342     		cmp	r3, r2
 668 0068 DFD2     		bcs	.L55
 427:Middlewares/ST/STM32_USB_Device_Library/Core/Src/usbd_core.c ****           pdev->ep0_data_len = 0U;
 669              		.loc 1 427 0
 670 006a 0022     		movs	r2, #0
 671 006c 1146     		mov	r1, r2
 672 006e FFF7FEFF 		bl	USBD_CtlContinueSendData
 673              	.LVL77:
 428:Middlewares/ST/STM32_USB_Device_Library/Core/Src/usbd_core.c **** 
 674              		.loc 1 428 0
 675 0072 0021     		movs	r1, #0
 676 0074 C4F89812 		str	r1, [r4, #664]
 431:Middlewares/ST/STM32_USB_Device_Library/Core/Src/usbd_core.c ****         }
 677              		.loc 1 431 0
 678 0078 0B46     		mov	r3, r1
 679 007a 0A46     		mov	r2, r1
 680 007c 2046     		mov	r0, r4
 681 007e FFF7FEFF 		bl	USBD_LL_PrepareReceive
 682              	.LVL78:
 683 0082 C6E7     		b	.L53
 684              	.LVL79:
 685              	.L66:
 437:Middlewares/ST/STM32_USB_Device_Library/Core/Src/usbd_core.c ****             {
 686              		.loc 1 437 0
 687 0084 D4F8B832 		ldr	r3, [r4, #696]
 688 0088 DB68     		ldr	r3, [r3, #12]
 689 008a 002B     		cmp	r3, #0
 690 008c D2D0     		beq	.L56
 439:Middlewares/ST/STM32_USB_Device_Library/Core/Src/usbd_core.c ****             }
 691              		.loc 1 439 0
 692 008e 2046     		mov	r0, r4
 693              	.LVL80:
 694 0090 9847     		blx	r3
 695              	.LVL81:
 696 0092 CFE7     		b	.L56
ARM GAS  /tmp/cc9FZSxU.s 			page 22


 697              	.L63:
 461:Middlewares/ST/STM32_USB_Device_Library/Core/Src/usbd_core.c ****     }
 698              		.loc 1 461 0
 699 0094 0020     		movs	r0, #0
 700 0096 84F8A002 		strb	r0, [r4, #672]
 701 009a BFE7     		b	.L57
 702              	.LVL82:
 703              	.L52:
 466:Middlewares/ST/STM32_USB_Device_Library/Core/Src/usbd_core.c ****     {
 704              		.loc 1 466 0
 705 009c 90F89C32 		ldrb	r3, [r0, #668]	@ zero_extendqisi2
 706 00a0 DBB2     		uxtb	r3, r3
 707 00a2 032B     		cmp	r3, #3
 708 00a4 01D0     		beq	.L67
 480:Middlewares/ST/STM32_USB_Device_Library/Core/Src/usbd_core.c **** }
 709              		.loc 1 480 0
 710 00a6 0020     		movs	r0, #0
 711              	.LVL83:
 712 00a8 B8E7     		b	.L57
 713              	.LVL84:
 714              	.L67:
 468:Middlewares/ST/STM32_USB_Device_Library/Core/Src/usbd_core.c ****       {
 715              		.loc 1 468 0
 716 00aa D0F8B832 		ldr	r3, [r0, #696]
 717 00ae 5B69     		ldr	r3, [r3, #20]
 718 00b0 0BB1     		cbz	r3, .L60
 470:Middlewares/ST/STM32_USB_Device_Library/Core/Src/usbd_core.c **** 
 719              		.loc 1 470 0
 720 00b2 9847     		blx	r3
 721              	.LVL85:
 722 00b4 B2E7     		b	.L57
 723              	.LVL86:
 724              	.L60:
 480:Middlewares/ST/STM32_USB_Device_Library/Core/Src/usbd_core.c **** }
 725              		.loc 1 480 0
 726 00b6 0020     		movs	r0, #0
 727              	.LVL87:
 728 00b8 B0E7     		b	.L57
 729              		.cfi_endproc
 730              	.LFE343:
 732              		.section	.text.USBD_LL_Reset,"ax",%progbits
 733              		.align	1
 734              		.global	USBD_LL_Reset
 735              		.syntax unified
 736              		.thumb
 737              		.thumb_func
 738              		.fpu fpv4-sp-d16
 740              	USBD_LL_Reset:
 741              	.LFB344:
 482:Middlewares/ST/STM32_USB_Device_Library/Core/Src/usbd_core.c **** 
 483:Middlewares/ST/STM32_USB_Device_Library/Core/Src/usbd_core.c **** /**
 484:Middlewares/ST/STM32_USB_Device_Library/Core/Src/usbd_core.c ****   * @brief  USBD_LL_Reset
 485:Middlewares/ST/STM32_USB_Device_Library/Core/Src/usbd_core.c ****   *         Handle Reset event
 486:Middlewares/ST/STM32_USB_Device_Library/Core/Src/usbd_core.c ****   * @param  pdev: device instance
 487:Middlewares/ST/STM32_USB_Device_Library/Core/Src/usbd_core.c ****   * @retval status
 488:Middlewares/ST/STM32_USB_Device_Library/Core/Src/usbd_core.c ****   */
 489:Middlewares/ST/STM32_USB_Device_Library/Core/Src/usbd_core.c **** 
ARM GAS  /tmp/cc9FZSxU.s 			page 23


 490:Middlewares/ST/STM32_USB_Device_Library/Core/Src/usbd_core.c **** USBD_StatusTypeDef USBD_LL_Reset(USBD_HandleTypeDef *pdev)
 491:Middlewares/ST/STM32_USB_Device_Library/Core/Src/usbd_core.c **** {
 742              		.loc 1 491 0
 743              		.cfi_startproc
 744              		@ args = 0, pretend = 0, frame = 0
 745              		@ frame_needed = 0, uses_anonymous_args = 0
 746              	.LVL88:
 492:Middlewares/ST/STM32_USB_Device_Library/Core/Src/usbd_core.c ****   /* Upon Reset call user call back */
 493:Middlewares/ST/STM32_USB_Device_Library/Core/Src/usbd_core.c ****   pdev->dev_state = USBD_STATE_DEFAULT;
 747              		.loc 1 493 0
 748 0000 0123     		movs	r3, #1
 749 0002 80F89C32 		strb	r3, [r0, #668]
 494:Middlewares/ST/STM32_USB_Device_Library/Core/Src/usbd_core.c ****   pdev->ep0_state = USBD_EP0_IDLE;
 750              		.loc 1 494 0
 751 0006 0023     		movs	r3, #0
 752 0008 C0F89432 		str	r3, [r0, #660]
 495:Middlewares/ST/STM32_USB_Device_Library/Core/Src/usbd_core.c ****   pdev->dev_config = 0U;
 753              		.loc 1 495 0
 754 000c 4360     		str	r3, [r0, #4]
 496:Middlewares/ST/STM32_USB_Device_Library/Core/Src/usbd_core.c ****   pdev->dev_remote_wakeup = 0U;
 755              		.loc 1 496 0
 756 000e C0F8A432 		str	r3, [r0, #676]
 497:Middlewares/ST/STM32_USB_Device_Library/Core/Src/usbd_core.c **** 
 498:Middlewares/ST/STM32_USB_Device_Library/Core/Src/usbd_core.c ****   if (pdev->pClass == NULL)
 757              		.loc 1 498 0
 758 0012 D0F8B832 		ldr	r3, [r0, #696]
 759 0016 F3B1     		cbz	r3, .L71
 491:Middlewares/ST/STM32_USB_Device_Library/Core/Src/usbd_core.c ****   /* Upon Reset call user call back */
 760              		.loc 1 491 0
 761 0018 70B5     		push	{r4, r5, r6, lr}
 762              	.LCFI14:
 763              		.cfi_def_cfa_offset 16
 764              		.cfi_offset 4, -16
 765              		.cfi_offset 5, -12
 766              		.cfi_offset 6, -8
 767              		.cfi_offset 14, -4
 768 001a 0446     		mov	r4, r0
 499:Middlewares/ST/STM32_USB_Device_Library/Core/Src/usbd_core.c ****   {
 500:Middlewares/ST/STM32_USB_Device_Library/Core/Src/usbd_core.c ****     return USBD_FAIL;
 501:Middlewares/ST/STM32_USB_Device_Library/Core/Src/usbd_core.c ****   }
 502:Middlewares/ST/STM32_USB_Device_Library/Core/Src/usbd_core.c **** 
 503:Middlewares/ST/STM32_USB_Device_Library/Core/Src/usbd_core.c ****   if (pdev->pClassData != NULL)
 769              		.loc 1 503 0
 770 001c D0F8BC22 		ldr	r2, [r0, #700]
 771 0020 1AB1     		cbz	r2, .L70
 504:Middlewares/ST/STM32_USB_Device_Library/Core/Src/usbd_core.c ****   {
 505:Middlewares/ST/STM32_USB_Device_Library/Core/Src/usbd_core.c ****     if (pdev->pClass->DeInit != NULL)
 772              		.loc 1 505 0
 773 0022 5B68     		ldr	r3, [r3, #4]
 774 0024 0BB1     		cbz	r3, .L70
 506:Middlewares/ST/STM32_USB_Device_Library/Core/Src/usbd_core.c ****     {
 507:Middlewares/ST/STM32_USB_Device_Library/Core/Src/usbd_core.c ****       (void)pdev->pClass->DeInit(pdev, (uint8_t)pdev->dev_config);
 775              		.loc 1 507 0
 776 0026 0021     		movs	r1, #0
 777 0028 9847     		blx	r3
 778              	.LVL89:
 779              	.L70:
ARM GAS  /tmp/cc9FZSxU.s 			page 24


 508:Middlewares/ST/STM32_USB_Device_Library/Core/Src/usbd_core.c ****     }
 509:Middlewares/ST/STM32_USB_Device_Library/Core/Src/usbd_core.c ****   }
 510:Middlewares/ST/STM32_USB_Device_Library/Core/Src/usbd_core.c **** 
 511:Middlewares/ST/STM32_USB_Device_Library/Core/Src/usbd_core.c ****   /* Open EP0 OUT */
 512:Middlewares/ST/STM32_USB_Device_Library/Core/Src/usbd_core.c ****   (void)USBD_LL_OpenEP(pdev, 0x00U, USBD_EP_TYPE_CTRL, USB_MAX_EP0_SIZE);
 780              		.loc 1 512 0
 781 002a 4023     		movs	r3, #64
 782 002c 0022     		movs	r2, #0
 783 002e 1146     		mov	r1, r2
 784 0030 2046     		mov	r0, r4
 785 0032 FFF7FEFF 		bl	USBD_LL_OpenEP
 786              	.LVL90:
 513:Middlewares/ST/STM32_USB_Device_Library/Core/Src/usbd_core.c ****   pdev->ep_out[0x00U & 0xFU].is_used = 1U;
 787              		.loc 1 513 0
 788 0036 0126     		movs	r6, #1
 789 0038 A4F86461 		strh	r6, [r4, #356]	@ movhi
 514:Middlewares/ST/STM32_USB_Device_Library/Core/Src/usbd_core.c **** 
 515:Middlewares/ST/STM32_USB_Device_Library/Core/Src/usbd_core.c ****   pdev->ep_out[0].maxpacket = USB_MAX_EP0_SIZE;
 790              		.loc 1 515 0
 791 003c 4025     		movs	r5, #64
 792 003e C4F86051 		str	r5, [r4, #352]
 516:Middlewares/ST/STM32_USB_Device_Library/Core/Src/usbd_core.c **** 
 517:Middlewares/ST/STM32_USB_Device_Library/Core/Src/usbd_core.c ****   /* Open EP0 IN */
 518:Middlewares/ST/STM32_USB_Device_Library/Core/Src/usbd_core.c ****   (void)USBD_LL_OpenEP(pdev, 0x80U, USBD_EP_TYPE_CTRL, USB_MAX_EP0_SIZE);
 793              		.loc 1 518 0
 794 0042 2B46     		mov	r3, r5
 795 0044 0022     		movs	r2, #0
 796 0046 8021     		movs	r1, #128
 797 0048 2046     		mov	r0, r4
 798 004a FFF7FEFF 		bl	USBD_LL_OpenEP
 799              	.LVL91:
 519:Middlewares/ST/STM32_USB_Device_Library/Core/Src/usbd_core.c ****   pdev->ep_in[0x80U & 0xFU].is_used = 1U;
 800              		.loc 1 519 0
 801 004e A684     		strh	r6, [r4, #36]	@ movhi
 520:Middlewares/ST/STM32_USB_Device_Library/Core/Src/usbd_core.c **** 
 521:Middlewares/ST/STM32_USB_Device_Library/Core/Src/usbd_core.c ****   pdev->ep_in[0].maxpacket = USB_MAX_EP0_SIZE;
 802              		.loc 1 521 0
 803 0050 2562     		str	r5, [r4, #32]
 522:Middlewares/ST/STM32_USB_Device_Library/Core/Src/usbd_core.c **** 
 523:Middlewares/ST/STM32_USB_Device_Library/Core/Src/usbd_core.c ****   return USBD_OK;
 804              		.loc 1 523 0
 805 0052 0020     		movs	r0, #0
 524:Middlewares/ST/STM32_USB_Device_Library/Core/Src/usbd_core.c **** }
 806              		.loc 1 524 0
 807 0054 70BD     		pop	{r4, r5, r6, pc}
 808              	.LVL92:
 809              	.L71:
 810              	.LCFI15:
 811              		.cfi_def_cfa_offset 0
 812              		.cfi_restore 4
 813              		.cfi_restore 5
 814              		.cfi_restore 6
 815              		.cfi_restore 14
 500:Middlewares/ST/STM32_USB_Device_Library/Core/Src/usbd_core.c ****   }
 816              		.loc 1 500 0
 817 0056 0320     		movs	r0, #3
 818              	.LVL93:
ARM GAS  /tmp/cc9FZSxU.s 			page 25


 819              		.loc 1 524 0
 820 0058 7047     		bx	lr
 821              		.cfi_endproc
 822              	.LFE344:
 824              		.section	.text.USBD_LL_SetSpeed,"ax",%progbits
 825              		.align	1
 826              		.global	USBD_LL_SetSpeed
 827              		.syntax unified
 828              		.thumb
 829              		.thumb_func
 830              		.fpu fpv4-sp-d16
 832              	USBD_LL_SetSpeed:
 833              	.LFB345:
 525:Middlewares/ST/STM32_USB_Device_Library/Core/Src/usbd_core.c **** 
 526:Middlewares/ST/STM32_USB_Device_Library/Core/Src/usbd_core.c **** /**
 527:Middlewares/ST/STM32_USB_Device_Library/Core/Src/usbd_core.c ****   * @brief  USBD_LL_SetSpeed
 528:Middlewares/ST/STM32_USB_Device_Library/Core/Src/usbd_core.c ****   *         Handle Reset event
 529:Middlewares/ST/STM32_USB_Device_Library/Core/Src/usbd_core.c ****   * @param  pdev: device instance
 530:Middlewares/ST/STM32_USB_Device_Library/Core/Src/usbd_core.c ****   * @retval status
 531:Middlewares/ST/STM32_USB_Device_Library/Core/Src/usbd_core.c ****   */
 532:Middlewares/ST/STM32_USB_Device_Library/Core/Src/usbd_core.c **** USBD_StatusTypeDef USBD_LL_SetSpeed(USBD_HandleTypeDef *pdev,
 533:Middlewares/ST/STM32_USB_Device_Library/Core/Src/usbd_core.c ****                                     USBD_SpeedTypeDef speed)
 534:Middlewares/ST/STM32_USB_Device_Library/Core/Src/usbd_core.c **** {
 834              		.loc 1 534 0
 835              		.cfi_startproc
 836              		@ args = 0, pretend = 0, frame = 0
 837              		@ frame_needed = 0, uses_anonymous_args = 0
 838              		@ link register save eliminated.
 839              	.LVL94:
 535:Middlewares/ST/STM32_USB_Device_Library/Core/Src/usbd_core.c ****   pdev->dev_speed = speed;
 840              		.loc 1 535 0
 841 0000 0174     		strb	r1, [r0, #16]
 536:Middlewares/ST/STM32_USB_Device_Library/Core/Src/usbd_core.c **** 
 537:Middlewares/ST/STM32_USB_Device_Library/Core/Src/usbd_core.c ****   return USBD_OK;
 538:Middlewares/ST/STM32_USB_Device_Library/Core/Src/usbd_core.c **** }
 842              		.loc 1 538 0
 843 0002 0020     		movs	r0, #0
 844              	.LVL95:
 845 0004 7047     		bx	lr
 846              		.cfi_endproc
 847              	.LFE345:
 849              		.section	.text.USBD_LL_Suspend,"ax",%progbits
 850              		.align	1
 851              		.global	USBD_LL_Suspend
 852              		.syntax unified
 853              		.thumb
 854              		.thumb_func
 855              		.fpu fpv4-sp-d16
 857              	USBD_LL_Suspend:
 858              	.LFB346:
 539:Middlewares/ST/STM32_USB_Device_Library/Core/Src/usbd_core.c **** 
 540:Middlewares/ST/STM32_USB_Device_Library/Core/Src/usbd_core.c **** /**
 541:Middlewares/ST/STM32_USB_Device_Library/Core/Src/usbd_core.c ****   * @brief  USBD_LL_Suspend
 542:Middlewares/ST/STM32_USB_Device_Library/Core/Src/usbd_core.c ****   *         Handle Suspend event
 543:Middlewares/ST/STM32_USB_Device_Library/Core/Src/usbd_core.c ****   * @param  pdev: device instance
 544:Middlewares/ST/STM32_USB_Device_Library/Core/Src/usbd_core.c ****   * @retval status
 545:Middlewares/ST/STM32_USB_Device_Library/Core/Src/usbd_core.c ****   */
ARM GAS  /tmp/cc9FZSxU.s 			page 26


 546:Middlewares/ST/STM32_USB_Device_Library/Core/Src/usbd_core.c **** 
 547:Middlewares/ST/STM32_USB_Device_Library/Core/Src/usbd_core.c **** USBD_StatusTypeDef USBD_LL_Suspend(USBD_HandleTypeDef *pdev)
 548:Middlewares/ST/STM32_USB_Device_Library/Core/Src/usbd_core.c **** {
 859              		.loc 1 548 0
 860              		.cfi_startproc
 861              		@ args = 0, pretend = 0, frame = 0
 862              		@ frame_needed = 0, uses_anonymous_args = 0
 863              		@ link register save eliminated.
 864              	.LVL96:
 549:Middlewares/ST/STM32_USB_Device_Library/Core/Src/usbd_core.c ****   pdev->dev_old_state = pdev->dev_state;
 865              		.loc 1 549 0
 866 0000 90F89C32 		ldrb	r3, [r0, #668]	@ zero_extendqisi2
 867 0004 DBB2     		uxtb	r3, r3
 868 0006 80F89D32 		strb	r3, [r0, #669]
 550:Middlewares/ST/STM32_USB_Device_Library/Core/Src/usbd_core.c ****   pdev->dev_state = USBD_STATE_SUSPENDED;
 869              		.loc 1 550 0
 870 000a 0423     		movs	r3, #4
 871 000c 80F89C32 		strb	r3, [r0, #668]
 551:Middlewares/ST/STM32_USB_Device_Library/Core/Src/usbd_core.c **** 
 552:Middlewares/ST/STM32_USB_Device_Library/Core/Src/usbd_core.c ****   return USBD_OK;
 553:Middlewares/ST/STM32_USB_Device_Library/Core/Src/usbd_core.c **** }
 872              		.loc 1 553 0
 873 0010 0020     		movs	r0, #0
 874              	.LVL97:
 875 0012 7047     		bx	lr
 876              		.cfi_endproc
 877              	.LFE346:
 879              		.section	.text.USBD_LL_Resume,"ax",%progbits
 880              		.align	1
 881              		.global	USBD_LL_Resume
 882              		.syntax unified
 883              		.thumb
 884              		.thumb_func
 885              		.fpu fpv4-sp-d16
 887              	USBD_LL_Resume:
 888              	.LFB347:
 554:Middlewares/ST/STM32_USB_Device_Library/Core/Src/usbd_core.c **** 
 555:Middlewares/ST/STM32_USB_Device_Library/Core/Src/usbd_core.c **** /**
 556:Middlewares/ST/STM32_USB_Device_Library/Core/Src/usbd_core.c ****   * @brief  USBD_LL_Resume
 557:Middlewares/ST/STM32_USB_Device_Library/Core/Src/usbd_core.c ****   *         Handle Resume event
 558:Middlewares/ST/STM32_USB_Device_Library/Core/Src/usbd_core.c ****   * @param  pdev: device instance
 559:Middlewares/ST/STM32_USB_Device_Library/Core/Src/usbd_core.c ****   * @retval status
 560:Middlewares/ST/STM32_USB_Device_Library/Core/Src/usbd_core.c ****   */
 561:Middlewares/ST/STM32_USB_Device_Library/Core/Src/usbd_core.c **** 
 562:Middlewares/ST/STM32_USB_Device_Library/Core/Src/usbd_core.c **** USBD_StatusTypeDef USBD_LL_Resume(USBD_HandleTypeDef *pdev)
 563:Middlewares/ST/STM32_USB_Device_Library/Core/Src/usbd_core.c **** {
 889              		.loc 1 563 0
 890              		.cfi_startproc
 891              		@ args = 0, pretend = 0, frame = 0
 892              		@ frame_needed = 0, uses_anonymous_args = 0
 893              		@ link register save eliminated.
 894              	.LVL98:
 564:Middlewares/ST/STM32_USB_Device_Library/Core/Src/usbd_core.c ****   if (pdev->dev_state == USBD_STATE_SUSPENDED)
 895              		.loc 1 564 0
 896 0000 90F89C32 		ldrb	r3, [r0, #668]	@ zero_extendqisi2
 897 0004 DBB2     		uxtb	r3, r3
 898 0006 042B     		cmp	r3, #4
ARM GAS  /tmp/cc9FZSxU.s 			page 27


 899 0008 01D0     		beq	.L80
 900              	.L79:
 565:Middlewares/ST/STM32_USB_Device_Library/Core/Src/usbd_core.c ****   {
 566:Middlewares/ST/STM32_USB_Device_Library/Core/Src/usbd_core.c ****     pdev->dev_state = pdev->dev_old_state;
 567:Middlewares/ST/STM32_USB_Device_Library/Core/Src/usbd_core.c ****   }
 568:Middlewares/ST/STM32_USB_Device_Library/Core/Src/usbd_core.c **** 
 569:Middlewares/ST/STM32_USB_Device_Library/Core/Src/usbd_core.c ****   return USBD_OK;
 570:Middlewares/ST/STM32_USB_Device_Library/Core/Src/usbd_core.c **** }
 901              		.loc 1 570 0
 902 000a 0020     		movs	r0, #0
 903              	.LVL99:
 904 000c 7047     		bx	lr
 905              	.LVL100:
 906              	.L80:
 566:Middlewares/ST/STM32_USB_Device_Library/Core/Src/usbd_core.c ****   }
 907              		.loc 1 566 0
 908 000e 90F89D32 		ldrb	r3, [r0, #669]	@ zero_extendqisi2
 909 0012 DBB2     		uxtb	r3, r3
 910 0014 80F89C32 		strb	r3, [r0, #668]
 911 0018 F7E7     		b	.L79
 912              		.cfi_endproc
 913              	.LFE347:
 915              		.section	.text.USBD_LL_SOF,"ax",%progbits
 916              		.align	1
 917              		.global	USBD_LL_SOF
 918              		.syntax unified
 919              		.thumb
 920              		.thumb_func
 921              		.fpu fpv4-sp-d16
 923              	USBD_LL_SOF:
 924              	.LFB348:
 571:Middlewares/ST/STM32_USB_Device_Library/Core/Src/usbd_core.c **** 
 572:Middlewares/ST/STM32_USB_Device_Library/Core/Src/usbd_core.c **** /**
 573:Middlewares/ST/STM32_USB_Device_Library/Core/Src/usbd_core.c ****   * @brief  USBD_LL_SOF
 574:Middlewares/ST/STM32_USB_Device_Library/Core/Src/usbd_core.c ****   *         Handle SOF event
 575:Middlewares/ST/STM32_USB_Device_Library/Core/Src/usbd_core.c ****   * @param  pdev: device instance
 576:Middlewares/ST/STM32_USB_Device_Library/Core/Src/usbd_core.c ****   * @retval status
 577:Middlewares/ST/STM32_USB_Device_Library/Core/Src/usbd_core.c ****   */
 578:Middlewares/ST/STM32_USB_Device_Library/Core/Src/usbd_core.c **** 
 579:Middlewares/ST/STM32_USB_Device_Library/Core/Src/usbd_core.c **** USBD_StatusTypeDef USBD_LL_SOF(USBD_HandleTypeDef *pdev)
 580:Middlewares/ST/STM32_USB_Device_Library/Core/Src/usbd_core.c **** {
 925              		.loc 1 580 0
 926              		.cfi_startproc
 927              		@ args = 0, pretend = 0, frame = 0
 928              		@ frame_needed = 0, uses_anonymous_args = 0
 929              	.LVL101:
 581:Middlewares/ST/STM32_USB_Device_Library/Core/Src/usbd_core.c ****   if (pdev->pClass == NULL)
 930              		.loc 1 581 0
 931 0000 D0F8B822 		ldr	r2, [r0, #696]
 932 0004 62B1     		cbz	r2, .L83
 580:Middlewares/ST/STM32_USB_Device_Library/Core/Src/usbd_core.c ****   if (pdev->pClass == NULL)
 933              		.loc 1 580 0
 934 0006 08B5     		push	{r3, lr}
 935              	.LCFI16:
 936              		.cfi_def_cfa_offset 8
 937              		.cfi_offset 3, -8
 938              		.cfi_offset 14, -4
ARM GAS  /tmp/cc9FZSxU.s 			page 28


 582:Middlewares/ST/STM32_USB_Device_Library/Core/Src/usbd_core.c ****   {
 583:Middlewares/ST/STM32_USB_Device_Library/Core/Src/usbd_core.c ****     return USBD_FAIL;
 584:Middlewares/ST/STM32_USB_Device_Library/Core/Src/usbd_core.c ****   }
 585:Middlewares/ST/STM32_USB_Device_Library/Core/Src/usbd_core.c **** 
 586:Middlewares/ST/STM32_USB_Device_Library/Core/Src/usbd_core.c ****   if (pdev->dev_state == USBD_STATE_CONFIGURED)
 939              		.loc 1 586 0
 940 0008 90F89C32 		ldrb	r3, [r0, #668]	@ zero_extendqisi2
 941 000c DBB2     		uxtb	r3, r3
 942 000e 032B     		cmp	r3, #3
 943 0010 01D0     		beq	.L90
 587:Middlewares/ST/STM32_USB_Device_Library/Core/Src/usbd_core.c ****   {
 588:Middlewares/ST/STM32_USB_Device_Library/Core/Src/usbd_core.c ****     if (pdev->pClass->SOF != NULL)
 589:Middlewares/ST/STM32_USB_Device_Library/Core/Src/usbd_core.c ****     {
 590:Middlewares/ST/STM32_USB_Device_Library/Core/Src/usbd_core.c ****       (void)pdev->pClass->SOF(pdev);
 591:Middlewares/ST/STM32_USB_Device_Library/Core/Src/usbd_core.c ****     }
 592:Middlewares/ST/STM32_USB_Device_Library/Core/Src/usbd_core.c ****   }
 593:Middlewares/ST/STM32_USB_Device_Library/Core/Src/usbd_core.c **** 
 594:Middlewares/ST/STM32_USB_Device_Library/Core/Src/usbd_core.c ****   return USBD_OK;
 944              		.loc 1 594 0
 945 0012 0020     		movs	r0, #0
 946              	.LVL102:
 947              	.L82:
 595:Middlewares/ST/STM32_USB_Device_Library/Core/Src/usbd_core.c **** }
 948              		.loc 1 595 0
 949 0014 08BD     		pop	{r3, pc}
 950              	.LVL103:
 951              	.L90:
 588:Middlewares/ST/STM32_USB_Device_Library/Core/Src/usbd_core.c ****     {
 952              		.loc 1 588 0
 953 0016 D369     		ldr	r3, [r2, #28]
 954 0018 23B1     		cbz	r3, .L85
 590:Middlewares/ST/STM32_USB_Device_Library/Core/Src/usbd_core.c ****     }
 955              		.loc 1 590 0
 956 001a 9847     		blx	r3
 957              	.LVL104:
 594:Middlewares/ST/STM32_USB_Device_Library/Core/Src/usbd_core.c **** }
 958              		.loc 1 594 0
 959 001c 0020     		movs	r0, #0
 960 001e F9E7     		b	.L82
 961              	.LVL105:
 962              	.L83:
 963              	.LCFI17:
 964              		.cfi_def_cfa_offset 0
 965              		.cfi_restore 3
 966              		.cfi_restore 14
 583:Middlewares/ST/STM32_USB_Device_Library/Core/Src/usbd_core.c ****   }
 967              		.loc 1 583 0
 968 0020 0320     		movs	r0, #3
 969              	.LVL106:
 970              		.loc 1 595 0
 971 0022 7047     		bx	lr
 972              	.LVL107:
 973              	.L85:
 974              	.LCFI18:
 975              		.cfi_def_cfa_offset 8
 976              		.cfi_offset 3, -8
 977              		.cfi_offset 14, -4
ARM GAS  /tmp/cc9FZSxU.s 			page 29


 594:Middlewares/ST/STM32_USB_Device_Library/Core/Src/usbd_core.c **** }
 978              		.loc 1 594 0
 979 0024 0020     		movs	r0, #0
 980              	.LVL108:
 981 0026 F5E7     		b	.L82
 982              		.cfi_endproc
 983              	.LFE348:
 985              		.section	.text.USBD_LL_IsoINIncomplete,"ax",%progbits
 986              		.align	1
 987              		.global	USBD_LL_IsoINIncomplete
 988              		.syntax unified
 989              		.thumb
 990              		.thumb_func
 991              		.fpu fpv4-sp-d16
 993              	USBD_LL_IsoINIncomplete:
 994              	.LFB349:
 596:Middlewares/ST/STM32_USB_Device_Library/Core/Src/usbd_core.c **** 
 597:Middlewares/ST/STM32_USB_Device_Library/Core/Src/usbd_core.c **** /**
 598:Middlewares/ST/STM32_USB_Device_Library/Core/Src/usbd_core.c ****   * @brief  USBD_LL_IsoINIncomplete
 599:Middlewares/ST/STM32_USB_Device_Library/Core/Src/usbd_core.c ****   *         Handle iso in incomplete event
 600:Middlewares/ST/STM32_USB_Device_Library/Core/Src/usbd_core.c ****   * @param  pdev: device instance
 601:Middlewares/ST/STM32_USB_Device_Library/Core/Src/usbd_core.c ****   * @retval status
 602:Middlewares/ST/STM32_USB_Device_Library/Core/Src/usbd_core.c ****   */
 603:Middlewares/ST/STM32_USB_Device_Library/Core/Src/usbd_core.c **** USBD_StatusTypeDef USBD_LL_IsoINIncomplete(USBD_HandleTypeDef *pdev,
 604:Middlewares/ST/STM32_USB_Device_Library/Core/Src/usbd_core.c ****                                            uint8_t epnum)
 605:Middlewares/ST/STM32_USB_Device_Library/Core/Src/usbd_core.c **** {
 995              		.loc 1 605 0
 996              		.cfi_startproc
 997              		@ args = 0, pretend = 0, frame = 0
 998              		@ frame_needed = 0, uses_anonymous_args = 0
 999              	.LVL109:
 606:Middlewares/ST/STM32_USB_Device_Library/Core/Src/usbd_core.c ****   if (pdev->pClass == NULL)
 1000              		.loc 1 606 0
 1001 0000 D0F8B822 		ldr	r2, [r0, #696]
 1002 0004 62B1     		cbz	r2, .L93
 605:Middlewares/ST/STM32_USB_Device_Library/Core/Src/usbd_core.c ****   if (pdev->pClass == NULL)
 1003              		.loc 1 605 0
 1004 0006 08B5     		push	{r3, lr}
 1005              	.LCFI19:
 1006              		.cfi_def_cfa_offset 8
 1007              		.cfi_offset 3, -8
 1008              		.cfi_offset 14, -4
 607:Middlewares/ST/STM32_USB_Device_Library/Core/Src/usbd_core.c ****   {
 608:Middlewares/ST/STM32_USB_Device_Library/Core/Src/usbd_core.c ****     return USBD_FAIL;
 609:Middlewares/ST/STM32_USB_Device_Library/Core/Src/usbd_core.c ****   }
 610:Middlewares/ST/STM32_USB_Device_Library/Core/Src/usbd_core.c **** 
 611:Middlewares/ST/STM32_USB_Device_Library/Core/Src/usbd_core.c ****   if (pdev->dev_state == USBD_STATE_CONFIGURED)
 1009              		.loc 1 611 0
 1010 0008 90F89C32 		ldrb	r3, [r0, #668]	@ zero_extendqisi2
 1011 000c DBB2     		uxtb	r3, r3
 1012 000e 032B     		cmp	r3, #3
 1013 0010 01D0     		beq	.L100
 612:Middlewares/ST/STM32_USB_Device_Library/Core/Src/usbd_core.c ****   {
 613:Middlewares/ST/STM32_USB_Device_Library/Core/Src/usbd_core.c ****     if (pdev->pClass->IsoINIncomplete != NULL)
 614:Middlewares/ST/STM32_USB_Device_Library/Core/Src/usbd_core.c ****     {
 615:Middlewares/ST/STM32_USB_Device_Library/Core/Src/usbd_core.c ****       (void)pdev->pClass->IsoINIncomplete(pdev, epnum);
 616:Middlewares/ST/STM32_USB_Device_Library/Core/Src/usbd_core.c ****     }
ARM GAS  /tmp/cc9FZSxU.s 			page 30


 617:Middlewares/ST/STM32_USB_Device_Library/Core/Src/usbd_core.c ****   }
 618:Middlewares/ST/STM32_USB_Device_Library/Core/Src/usbd_core.c **** 
 619:Middlewares/ST/STM32_USB_Device_Library/Core/Src/usbd_core.c ****   return USBD_OK;
 1014              		.loc 1 619 0
 1015 0012 0020     		movs	r0, #0
 1016              	.LVL110:
 1017              	.L92:
 620:Middlewares/ST/STM32_USB_Device_Library/Core/Src/usbd_core.c **** }
 1018              		.loc 1 620 0
 1019 0014 08BD     		pop	{r3, pc}
 1020              	.LVL111:
 1021              	.L100:
 613:Middlewares/ST/STM32_USB_Device_Library/Core/Src/usbd_core.c ****     {
 1022              		.loc 1 613 0
 1023 0016 136A     		ldr	r3, [r2, #32]
 1024 0018 23B1     		cbz	r3, .L95
 615:Middlewares/ST/STM32_USB_Device_Library/Core/Src/usbd_core.c ****     }
 1025              		.loc 1 615 0
 1026 001a 9847     		blx	r3
 1027              	.LVL112:
 619:Middlewares/ST/STM32_USB_Device_Library/Core/Src/usbd_core.c **** }
 1028              		.loc 1 619 0
 1029 001c 0020     		movs	r0, #0
 1030 001e F9E7     		b	.L92
 1031              	.LVL113:
 1032              	.L93:
 1033              	.LCFI20:
 1034              		.cfi_def_cfa_offset 0
 1035              		.cfi_restore 3
 1036              		.cfi_restore 14
 608:Middlewares/ST/STM32_USB_Device_Library/Core/Src/usbd_core.c ****   }
 1037              		.loc 1 608 0
 1038 0020 0320     		movs	r0, #3
 1039              	.LVL114:
 1040              		.loc 1 620 0
 1041 0022 7047     		bx	lr
 1042              	.LVL115:
 1043              	.L95:
 1044              	.LCFI21:
 1045              		.cfi_def_cfa_offset 8
 1046              		.cfi_offset 3, -8
 1047              		.cfi_offset 14, -4
 619:Middlewares/ST/STM32_USB_Device_Library/Core/Src/usbd_core.c **** }
 1048              		.loc 1 619 0
 1049 0024 0020     		movs	r0, #0
 1050              	.LVL116:
 1051 0026 F5E7     		b	.L92
 1052              		.cfi_endproc
 1053              	.LFE349:
 1055              		.section	.text.USBD_LL_IsoOUTIncomplete,"ax",%progbits
 1056              		.align	1
 1057              		.global	USBD_LL_IsoOUTIncomplete
 1058              		.syntax unified
 1059              		.thumb
 1060              		.thumb_func
 1061              		.fpu fpv4-sp-d16
 1063              	USBD_LL_IsoOUTIncomplete:
ARM GAS  /tmp/cc9FZSxU.s 			page 31


 1064              	.LFB350:
 621:Middlewares/ST/STM32_USB_Device_Library/Core/Src/usbd_core.c **** 
 622:Middlewares/ST/STM32_USB_Device_Library/Core/Src/usbd_core.c **** /**
 623:Middlewares/ST/STM32_USB_Device_Library/Core/Src/usbd_core.c ****   * @brief  USBD_LL_IsoOUTIncomplete
 624:Middlewares/ST/STM32_USB_Device_Library/Core/Src/usbd_core.c ****   *         Handle iso out incomplete event
 625:Middlewares/ST/STM32_USB_Device_Library/Core/Src/usbd_core.c ****   * @param  pdev: device instance
 626:Middlewares/ST/STM32_USB_Device_Library/Core/Src/usbd_core.c ****   * @retval status
 627:Middlewares/ST/STM32_USB_Device_Library/Core/Src/usbd_core.c ****   */
 628:Middlewares/ST/STM32_USB_Device_Library/Core/Src/usbd_core.c **** USBD_StatusTypeDef USBD_LL_IsoOUTIncomplete(USBD_HandleTypeDef *pdev,
 629:Middlewares/ST/STM32_USB_Device_Library/Core/Src/usbd_core.c ****                                             uint8_t epnum)
 630:Middlewares/ST/STM32_USB_Device_Library/Core/Src/usbd_core.c **** {
 1065              		.loc 1 630 0
 1066              		.cfi_startproc
 1067              		@ args = 0, pretend = 0, frame = 0
 1068              		@ frame_needed = 0, uses_anonymous_args = 0
 1069              	.LVL117:
 631:Middlewares/ST/STM32_USB_Device_Library/Core/Src/usbd_core.c ****   if (pdev->pClass == NULL)
 1070              		.loc 1 631 0
 1071 0000 D0F8B822 		ldr	r2, [r0, #696]
 1072 0004 62B1     		cbz	r2, .L103
 630:Middlewares/ST/STM32_USB_Device_Library/Core/Src/usbd_core.c ****   if (pdev->pClass == NULL)
 1073              		.loc 1 630 0
 1074 0006 08B5     		push	{r3, lr}
 1075              	.LCFI22:
 1076              		.cfi_def_cfa_offset 8
 1077              		.cfi_offset 3, -8
 1078              		.cfi_offset 14, -4
 632:Middlewares/ST/STM32_USB_Device_Library/Core/Src/usbd_core.c ****   {
 633:Middlewares/ST/STM32_USB_Device_Library/Core/Src/usbd_core.c ****     return USBD_FAIL;
 634:Middlewares/ST/STM32_USB_Device_Library/Core/Src/usbd_core.c ****   }
 635:Middlewares/ST/STM32_USB_Device_Library/Core/Src/usbd_core.c **** 
 636:Middlewares/ST/STM32_USB_Device_Library/Core/Src/usbd_core.c ****   if (pdev->dev_state == USBD_STATE_CONFIGURED)
 1079              		.loc 1 636 0
 1080 0008 90F89C32 		ldrb	r3, [r0, #668]	@ zero_extendqisi2
 1081 000c DBB2     		uxtb	r3, r3
 1082 000e 032B     		cmp	r3, #3
 1083 0010 01D0     		beq	.L110
 637:Middlewares/ST/STM32_USB_Device_Library/Core/Src/usbd_core.c ****   {
 638:Middlewares/ST/STM32_USB_Device_Library/Core/Src/usbd_core.c ****     if (pdev->pClass->IsoOUTIncomplete != NULL)
 639:Middlewares/ST/STM32_USB_Device_Library/Core/Src/usbd_core.c ****     {
 640:Middlewares/ST/STM32_USB_Device_Library/Core/Src/usbd_core.c ****       (void)pdev->pClass->IsoOUTIncomplete(pdev, epnum);
 641:Middlewares/ST/STM32_USB_Device_Library/Core/Src/usbd_core.c ****     }
 642:Middlewares/ST/STM32_USB_Device_Library/Core/Src/usbd_core.c ****   }
 643:Middlewares/ST/STM32_USB_Device_Library/Core/Src/usbd_core.c **** 
 644:Middlewares/ST/STM32_USB_Device_Library/Core/Src/usbd_core.c ****   return USBD_OK;
 1084              		.loc 1 644 0
 1085 0012 0020     		movs	r0, #0
 1086              	.LVL118:
 1087              	.L102:
 645:Middlewares/ST/STM32_USB_Device_Library/Core/Src/usbd_core.c **** }
 1088              		.loc 1 645 0
 1089 0014 08BD     		pop	{r3, pc}
 1090              	.LVL119:
 1091              	.L110:
 638:Middlewares/ST/STM32_USB_Device_Library/Core/Src/usbd_core.c ****     {
 1092              		.loc 1 638 0
 1093 0016 536A     		ldr	r3, [r2, #36]
ARM GAS  /tmp/cc9FZSxU.s 			page 32


 1094 0018 23B1     		cbz	r3, .L105
 640:Middlewares/ST/STM32_USB_Device_Library/Core/Src/usbd_core.c ****     }
 1095              		.loc 1 640 0
 1096 001a 9847     		blx	r3
 1097              	.LVL120:
 644:Middlewares/ST/STM32_USB_Device_Library/Core/Src/usbd_core.c **** }
 1098              		.loc 1 644 0
 1099 001c 0020     		movs	r0, #0
 1100 001e F9E7     		b	.L102
 1101              	.LVL121:
 1102              	.L103:
 1103              	.LCFI23:
 1104              		.cfi_def_cfa_offset 0
 1105              		.cfi_restore 3
 1106              		.cfi_restore 14
 633:Middlewares/ST/STM32_USB_Device_Library/Core/Src/usbd_core.c ****   }
 1107              		.loc 1 633 0
 1108 0020 0320     		movs	r0, #3
 1109              	.LVL122:
 1110              		.loc 1 645 0
 1111 0022 7047     		bx	lr
 1112              	.LVL123:
 1113              	.L105:
 1114              	.LCFI24:
 1115              		.cfi_def_cfa_offset 8
 1116              		.cfi_offset 3, -8
 1117              		.cfi_offset 14, -4
 644:Middlewares/ST/STM32_USB_Device_Library/Core/Src/usbd_core.c **** }
 1118              		.loc 1 644 0
 1119 0024 0020     		movs	r0, #0
 1120              	.LVL124:
 1121 0026 F5E7     		b	.L102
 1122              		.cfi_endproc
 1123              	.LFE350:
 1125              		.section	.text.USBD_LL_DevConnected,"ax",%progbits
 1126              		.align	1
 1127              		.global	USBD_LL_DevConnected
 1128              		.syntax unified
 1129              		.thumb
 1130              		.thumb_func
 1131              		.fpu fpv4-sp-d16
 1133              	USBD_LL_DevConnected:
 1134              	.LFB351:
 646:Middlewares/ST/STM32_USB_Device_Library/Core/Src/usbd_core.c **** 
 647:Middlewares/ST/STM32_USB_Device_Library/Core/Src/usbd_core.c **** /**
 648:Middlewares/ST/STM32_USB_Device_Library/Core/Src/usbd_core.c ****   * @brief  USBD_LL_DevConnected
 649:Middlewares/ST/STM32_USB_Device_Library/Core/Src/usbd_core.c ****   *         Handle device connection event
 650:Middlewares/ST/STM32_USB_Device_Library/Core/Src/usbd_core.c ****   * @param  pdev: device instance
 651:Middlewares/ST/STM32_USB_Device_Library/Core/Src/usbd_core.c ****   * @retval status
 652:Middlewares/ST/STM32_USB_Device_Library/Core/Src/usbd_core.c ****   */
 653:Middlewares/ST/STM32_USB_Device_Library/Core/Src/usbd_core.c **** USBD_StatusTypeDef USBD_LL_DevConnected(USBD_HandleTypeDef *pdev)
 654:Middlewares/ST/STM32_USB_Device_Library/Core/Src/usbd_core.c **** {
 1135              		.loc 1 654 0
 1136              		.cfi_startproc
 1137              		@ args = 0, pretend = 0, frame = 0
 1138              		@ frame_needed = 0, uses_anonymous_args = 0
 1139              		@ link register save eliminated.
ARM GAS  /tmp/cc9FZSxU.s 			page 33


 1140              	.LVL125:
 655:Middlewares/ST/STM32_USB_Device_Library/Core/Src/usbd_core.c ****   /* Prevent unused argument compilation warning */
 656:Middlewares/ST/STM32_USB_Device_Library/Core/Src/usbd_core.c ****   UNUSED(pdev);
 657:Middlewares/ST/STM32_USB_Device_Library/Core/Src/usbd_core.c **** 
 658:Middlewares/ST/STM32_USB_Device_Library/Core/Src/usbd_core.c ****   return USBD_OK;
 659:Middlewares/ST/STM32_USB_Device_Library/Core/Src/usbd_core.c **** }
 1141              		.loc 1 659 0
 1142 0000 0020     		movs	r0, #0
 1143              	.LVL126:
 1144 0002 7047     		bx	lr
 1145              		.cfi_endproc
 1146              	.LFE351:
 1148              		.section	.text.USBD_LL_DevDisconnected,"ax",%progbits
 1149              		.align	1
 1150              		.global	USBD_LL_DevDisconnected
 1151              		.syntax unified
 1152              		.thumb
 1153              		.thumb_func
 1154              		.fpu fpv4-sp-d16
 1156              	USBD_LL_DevDisconnected:
 1157              	.LFB352:
 660:Middlewares/ST/STM32_USB_Device_Library/Core/Src/usbd_core.c **** 
 661:Middlewares/ST/STM32_USB_Device_Library/Core/Src/usbd_core.c **** /**
 662:Middlewares/ST/STM32_USB_Device_Library/Core/Src/usbd_core.c ****   * @brief  USBD_LL_DevDisconnected
 663:Middlewares/ST/STM32_USB_Device_Library/Core/Src/usbd_core.c ****   *         Handle device disconnection event
 664:Middlewares/ST/STM32_USB_Device_Library/Core/Src/usbd_core.c ****   * @param  pdev: device instance
 665:Middlewares/ST/STM32_USB_Device_Library/Core/Src/usbd_core.c ****   * @retval status
 666:Middlewares/ST/STM32_USB_Device_Library/Core/Src/usbd_core.c ****   */
 667:Middlewares/ST/STM32_USB_Device_Library/Core/Src/usbd_core.c **** USBD_StatusTypeDef USBD_LL_DevDisconnected(USBD_HandleTypeDef *pdev)
 668:Middlewares/ST/STM32_USB_Device_Library/Core/Src/usbd_core.c **** {
 1158              		.loc 1 668 0
 1159              		.cfi_startproc
 1160              		@ args = 0, pretend = 0, frame = 0
 1161              		@ frame_needed = 0, uses_anonymous_args = 0
 1162              	.LVL127:
 1163 0000 08B5     		push	{r3, lr}
 1164              	.LCFI25:
 1165              		.cfi_def_cfa_offset 8
 1166              		.cfi_offset 3, -8
 1167              		.cfi_offset 14, -4
 669:Middlewares/ST/STM32_USB_Device_Library/Core/Src/usbd_core.c ****   /* Free Class Resources */
 670:Middlewares/ST/STM32_USB_Device_Library/Core/Src/usbd_core.c ****   pdev->dev_state = USBD_STATE_DEFAULT;
 1168              		.loc 1 670 0
 1169 0002 0123     		movs	r3, #1
 1170 0004 80F89C32 		strb	r3, [r0, #668]
 671:Middlewares/ST/STM32_USB_Device_Library/Core/Src/usbd_core.c **** 
 672:Middlewares/ST/STM32_USB_Device_Library/Core/Src/usbd_core.c ****   if (pdev->pClass != NULL)
 1171              		.loc 1 672 0
 1172 0008 D0F8B832 		ldr	r3, [r0, #696]
 1173 000c 13B1     		cbz	r3, .L113
 673:Middlewares/ST/STM32_USB_Device_Library/Core/Src/usbd_core.c ****   {
 674:Middlewares/ST/STM32_USB_Device_Library/Core/Src/usbd_core.c ****     (void)pdev->pClass->DeInit(pdev, (uint8_t)pdev->dev_config);
 1174              		.loc 1 674 0
 1175 000e 5B68     		ldr	r3, [r3, #4]
 1176 0010 0179     		ldrb	r1, [r0, #4]	@ zero_extendqisi2
 1177 0012 9847     		blx	r3
 1178              	.LVL128:
ARM GAS  /tmp/cc9FZSxU.s 			page 34


 1179              	.L113:
 675:Middlewares/ST/STM32_USB_Device_Library/Core/Src/usbd_core.c ****   }
 676:Middlewares/ST/STM32_USB_Device_Library/Core/Src/usbd_core.c **** 
 677:Middlewares/ST/STM32_USB_Device_Library/Core/Src/usbd_core.c ****   return USBD_OK;
 678:Middlewares/ST/STM32_USB_Device_Library/Core/Src/usbd_core.c **** }
 1180              		.loc 1 678 0
 1181 0014 0020     		movs	r0, #0
 1182 0016 08BD     		pop	{r3, pc}
 1183              		.cfi_endproc
 1184              	.LFE352:
 1186              		.text
 1187              	.Letext0:
 1188              		.file 2 "/usr/include/newlib/machine/_default_types.h"
 1189              		.file 3 "/usr/include/newlib/sys/lock.h"
 1190              		.file 4 "/usr/include/newlib/sys/_types.h"
 1191              		.file 5 "/usr/lib/gcc/arm-none-eabi/7.3.1/include/stddef.h"
 1192              		.file 6 "/usr/include/newlib/sys/reent.h"
 1193              		.file 7 "/usr/include/newlib/sys/_stdint.h"
 1194              		.file 8 "/usr/include/newlib/stdlib.h"
 1195              		.file 9 "Drivers/CMSIS/Include/core_cm4.h"
 1196              		.file 10 "Drivers/CMSIS/Device/ST/STM32G4xx/Include/system_stm32g4xx.h"
 1197              		.file 11 "Drivers/STM32G4xx_HAL_Driver/Inc/stm32g4xx_hal_def.h"
 1198              		.file 12 "Drivers/STM32G4xx_HAL_Driver/Inc/stm32g4xx_hal_flash.h"
 1199              		.file 13 "Drivers/STM32G4xx_HAL_Driver/Inc/stm32g4xx_hal_uart.h"
 1200              		.file 14 "Drivers/STM32G4xx_HAL_Driver/Inc/stm32g4xx_hal.h"
 1201              		.file 15 "Middlewares/ST/STM32_USB_Device_Library/Core/Inc/usbd_def.h"
 1202              		.file 16 "Middlewares/ST/STM32_USB_Device_Library/Core/Inc/usbd_core.h"
 1203              		.file 17 "Middlewares/ST/STM32_USB_Device_Library/Core/Inc/usbd_ioreq.h"
 1204              		.file 18 "Middlewares/ST/STM32_USB_Device_Library/Core/Inc/usbd_ctlreq.h"
ARM GAS  /tmp/cc9FZSxU.s 			page 35

